 MD3View

 Timestamp is 5984bbe1 (Fri Aug 04 13:24:33 2017)

 Preferred load address is 00400000

 Start         Length     Name                   Class
 0001:00000000 0005b6c7H .text                   CODE
 0001:0005b6d0 00000defH .text$x                 CODE
 0001:0005c4c0 000002ceH .text$yc                CODE
 0001:0005c790 00000254H .text$yd                CODE
 0002:00000000 00000348H .idata$5                DATA
 0002:00000348 00000004H .CRT$XCA                DATA
 0002:0000034c 0000001cH .CRT$XCC                DATA
 0002:00000368 00000028H .CRT$XCU                DATA
 0002:00000390 00000004H .CRT$XCZ                DATA
 0002:00000394 00000004H .CRT$XIA                DATA
 0002:00000398 00000018H .CRT$XIC                DATA
 0002:000003b0 00000004H .CRT$XID                DATA
 0002:000003b4 00000004H .CRT$XIY                DATA
 0002:000003b8 00000004H .CRT$XIZ                DATA
 0002:000003bc 00000004H .CRT$XPA                DATA
 0002:000003c0 00000004H .CRT$XPX                DATA
 0002:000003c4 00000004H .CRT$XPXA               DATA
 0002:000003c8 00000004H .CRT$XPZ                DATA
 0002:000003cc 00000004H .CRT$XTA                DATA
 0002:000003d0 00000004H .CRT$XTZ                DATA
 0002:000003e0 0000e6b0H .rdata                  DATA
 0002:0000ea90 00000072H .rdata$debug            DATA
 0002:0000eb04 00000908H .rdata$r                DATA
 0002:0000f410 00000134H .rdata$sxdata           DATA
 0002:0000f544 00000004H .rtc$IAA                DATA
 0002:0000f548 00000004H .rtc$IZZ                DATA
 0002:0000f54c 00000004H .rtc$TAA                DATA
 0002:0000f550 00000004H .rtc$TZZ                DATA
 0002:0000f558 00001ec4H .xdata$x                DATA
 0002:0001141c 00000078H .idata$2                DATA
 0002:00011494 00000014H .idata$3                DATA
 0002:000114a8 00000348H .idata$4                DATA
 0002:000117f0 00000dbeH .idata$6                DATA
 0002:000125ae 00000000H .edata                  DATA
 0003:00000000 000032e0H .data                   DATA
 0003:000032e0 00022744H .bss                    DATA
 0004:00000000 00000208H .rsrc$01                DATA
 0004:00000210 000017c8H .rsrc$02                DATA

  Address         Publics by Value              Rva+Base       Lib:Object

 0000:00000000       __except_list              00000000     <absolute>
 0000:0000004d       ___safe_se_handler_count   0000004d     <absolute>
 0000:00000000       ___ImageBase               00400000     <linker-defined>
 0001:00000000       ?strstr@@YAPADPADPBD@Z     00401000 f i animation.obj
 0001:00000010       ??0bad_alloc@std@@QAE@PBD@Z 00401010 f i animation.obj
 0001:00000030       ??1bad_alloc@std@@UAE@XZ   00401030 f i animation.obj
 0001:00000040       ??_Gbad_alloc@std@@UAEPAXI@Z 00401040 f i animation.obj
 0001:00000040       ??_Ebad_alloc@std@@UAEPAXI@Z 00401040 f i animation.obj
 0001:00000070       ??2@YAPAXIPAX@Z            00401070 f i animation.obj
 0001:00000080       ??3@YAXPAX0@Z              00401080 f i animation.obj
 0001:00000090       ?assign@?$char_traits@D@std@@SAXAADABD@Z 00401090 f i animation.obj
 0001:000000a0       ?length@?$char_traits@D@std@@SAIPBD@Z 004010a0 f i animation.obj
 0001:000000c0       ?_Copy_s@?$char_traits@D@std@@SAPADPADIPBDI@Z 004010c0 f i animation.obj
 0001:000000f0       ?_Move_s@?$char_traits@D@std@@SAPADPADIPBDI@Z 004010f0 f i animation.obj
 0001:00000120       ??0_Aux_cont@std@@QAE@QBV_Container_base_aux@1@@Z 00401120 f i animation.obj
 0001:00000130       ?_Getcont@_Aux_cont@std@@QBEPBV_Container_base_aux@2@XZ 00401130 f i animation.obj
 0001:00000140       ??0_Container_base_aux@std@@QAE@XZ 00401140 f i animation.obj
 0001:00000150       ??1_Container_base_aux@std@@QAE@XZ 00401150 f i animation.obj
 0001:00000160       ??0_Iterator_base_aux@std@@QAE@XZ 00401160 f i animation.obj
 0001:00000170       ?_Set_container@_Iterator_base_aux@std@@QAEXQBV_Container_base_aux@2@@Z 00401170 f i animation.obj
 0001:00000180       ?_Getmycont@_Iterator_base_aux@std@@QBEPBV_Container_base_aux@2@XZ 00401180 f i animation.obj
 0001:00000190       ?_Same_container@_Iterator_base_aux@std@@QBE_NABV12@@Z 00401190 f i animation.obj
 0001:000001b0       ?_Has_container@_Iterator_base_aux@std@@QBE_NXZ 004011b0 f i animation.obj
 0001:000001c0       ?element@NodePositionInfo@@QAEPAXXZ 004011c0 f i animation.obj
 0001:000001d0       ?isEmpty@NodeSequenceInfo@@QAEHXZ 004011d0 f i animation.obj
 0001:000001e0       ?first@NodeSequenceInfo@@QAEPAVNodePositionInfo@@XZ 004011e0 f i animation.obj
 0001:000001f0       ?SetLODLevel@@YAXH@Z       004011f0 f   animation.obj
 0001:00000200       ?ReportFrameMismatches@@YAXPAUSequence_t@@PAUgl_model@@@Z 00401200 f   animation.obj
 0001:00000270       ?size@?$basic_string@DU?$char_traits@D@std@@V?$allocator@D@2@@std@@QBEIXZ 00401270 f i animation.obj
 0001:00000280       ?size@?$vector@HV?$allocator@H@std@@@std@@QBEIXZ 00401280 f i animation.obj
 0001:00000290       ?size@?$vector@USequence_t@@V?$allocator@USequence_t@@@std@@@std@@QBEIXZ 00401290 f i animation.obj
 0001:000002b0       ??A?$vector@USequence_t@@V?$allocator@USequence_t@@@std@@@std@@QAEAAUSequence_t@@I@Z 004012b0 f i animation.obj
 0001:000002f0       ?_Myptr@?$basic_string@DU?$char_traits@D@std@@V?$allocator@D@2@@std@@IBEPBDXZ 004012f0 f i animation.obj
 0001:00000300       ??0?$allocator@D@std@@QAE@XZ 00401300 f i animation.obj
 0001:00000310       ??0?$allocator@H@std@@QAE@XZ 00401310 f i animation.obj
 0001:00000320       ??D?$_Vector_const_iterator@HV?$allocator@H@std@@@std@@QBEABHXZ 00401320 f i animation.obj
 0001:00000350       ??E?$_Vector_const_iterator@HV?$allocator@H@std@@@std@@QAEAAV01@XZ 00401350 f i animation.obj
 0001:00000380       ??8?$_Vector_const_iterator@HV?$allocator@H@std@@@std@@QBE_NABV01@@Z 00401380 f i animation.obj
 0001:000003b0       ?capacity@?$vector@USequence_t@@V?$allocator@USequence_t@@@std@@@std@@QBEIXZ 004013b0 f i animation.obj
 0001:000003d0       ??0?$allocator@USequence_t@@@std@@QAE@XZ 004013d0 f i animation.obj
 0001:000003e0       ??D?$_Vector_const_iterator@USequence_t@@V?$allocator@USequence_t@@@std@@@std@@QBEABUSequence_t@@XZ 004013e0 f i animation.obj
 0001:00000410       ??8?$_Vector_const_iterator@USequence_t@@V?$allocator@USequence_t@@@std@@@std@@QBE_NABV01@@Z 00401410 f i animation.obj
 0001:00000440       ??0?$_Iterator_with_base@Urandom_access_iterator_tag@std@@HHPBHABHV_Iterator_base_aux@2@@std@@QAE@XZ 00401440 f i animation.obj
 0001:00000450       ??0?$_Iterator_with_base@Urandom_access_iterator_tag@std@@USequence_t@@HPBU3@ABU3@V_Iterator_base_aux@2@@std@@QAE@XZ 00401450 f i animation.obj
 0001:00000460       ?_Myptr@?$basic_string@DU?$char_traits@D@std@@V?$allocator@D@2@@std@@IAEPADXZ 00401460 f i animation.obj
 0001:00000470       ??0?$allocator@D@std@@QAE@ABV01@@Z 00401470 f i animation.obj
 0001:00000480       ?deallocate@?$allocator@D@std@@QAEXPADI@Z 00401480 f i animation.obj
 0001:00000490       ??0?$allocator@H@std@@QAE@ABV01@@Z 00401490 f i animation.obj
 0001:000004a0       ?deallocate@?$allocator@H@std@@QAEXPAHI@Z 004014a0 f i animation.obj
 0001:000004b0       ?deallocate@?$allocator@V_Aux_cont@std@@@std@@QAEXPAV_Aux_cont@2@I@Z 004014b0 f i animation.obj
 0001:000004c0       ??0?$allocator@USequence_t@@@std@@QAE@ABV01@@Z 004014c0 f i animation.obj
 0001:000004d0       ?deallocate@?$allocator@USequence_t@@@std@@QAEXPAUSequence_t@@I@Z 004014d0 f i animation.obj
 0001:000004e0       ??E?$_Vector_const_iterator@USequence_t@@V?$allocator@USequence_t@@@std@@@std@@QAEAAV01@XZ 004014e0 f i animation.obj
 0001:00000510       ??G?$_Vector_const_iterator@USequence_t@@V?$allocator@USequence_t@@@std@@@std@@QBEHABV01@@Z 00401510 f i animation.obj
 0001:00000550       ?_Inside@?$basic_string@DU?$char_traits@D@std@@V?$allocator@D@2@@std@@IAE_NPBD@Z 00401550 f i animation.obj
 0001:00000590       ?max_size@?$allocator@H@std@@QBEIXZ 00401590 f i animation.obj
 0001:000005a0       ??Y?$_Vector_const_iterator@HV?$allocator@H@std@@@std@@QAEAAV01@H@Z 004015a0 f i animation.obj
 0001:000005f0       ?max_size@?$allocator@USequence_t@@@std@@QBEIXZ 004015f0 f i animation.obj
 0001:00000600       ?max_size@?$allocator@D@std@@QBEIXZ 00401600 f i animation.obj
 0001:00000610       ??Y?$_Vector_const_iterator@USequence_t@@V?$allocator@USequence_t@@@std@@@std@@QAEAAV01@H@Z 00401610 f i animation.obj
 0001:00000660       ??$?0H@?$allocator@V_Aux_cont@std@@@std@@QAE@ABV?$allocator@H@1@@Z 00401660 f i animation.obj
 0001:00000670       ??$_Allocate@H@std@@YAPAHIPAH@Z 00401670 f i animation.obj
 0001:000006d0       ??$?0USequence_t@@@?$allocator@V_Aux_cont@std@@@std@@QAE@ABV?$allocator@USequence_t@@@1@@Z 004016d0 f i animation.obj
 0001:000006e0       ??$_Allocate@USequence_t@@@std@@YAPAUSequence_t@@IPAU1@@Z 004016e0 f i animation.obj
 0001:00000740       ??$_Allocate@V_Aux_cont@std@@@std@@YAPAV_Aux_cont@0@IPAV10@@Z 00401740 f i animation.obj
 0001:000007a0       ??$_Allocate@D@std@@YAPADIPAD@Z 004017a0 f i animation.obj
 0001:00000800       ??0bad_alloc@std@@QAE@ABV01@@Z 00401800 f i animation.obj
 0001:00000820       ??$_Char_traits_cat@U?$char_traits@D@std@@@std@@YA?AU_Secure_char_traits_tag@0@XZ 00401820 f i animation.obj
 0001:00000830       ??$copy_s@U?$char_traits@D@std@@@_Traits_helper@std@@YAPADPADIPBDIU_Secure_char_traits_tag@1@@Z 00401830 f i animation.obj
 0001:00000860       ??$_Iter_random@PAUSequence_t@@PAU1@@std@@YA?AUrandom_access_iterator_tag@0@ABQAUSequence_t@@0@Z 00401860 f i animation.obj
 0001:00000870       ??$_Ptr_cat@PAUSequence_t@@PAU1@@std@@YA?AU_Nonscalar_ptr_iterator_tag@0@AAPAUSequence_t@@0@Z 00401870 f i animation.obj
 0001:00000880       ??$move_s@U?$char_traits@D@std@@@_Traits_helper@std@@YAPADPADIPBDIU_Secure_char_traits_tag@1@@Z 00401880 f i animation.obj
 0001:000008b0       ??$_Ptr_cat@PAHPAH@std@@YA?AU_Scalar_ptr_iterator_tag@0@AAPAH0@Z 004018b0 f i animation.obj
 0001:000008c0       ??$_Destroy_range@V?$allocator@H@std@@@std@@YAXPAH0AAV?$allocator@H@0@U_Scalar_ptr_iterator_tag@0@@Z 004018c0 f i animation.obj
 0001:000008d0       ??$_Move_cat@PAUSequence_t@@@std@@YA?AU_Undefined_move_tag@0@ABQAUSequence_t@@@Z 004018d0 f i animation.obj
 0001:000008e0       ??$_Checked_base@PAUSequence_t@@@std@@YAPAUSequence_t@@AAPAU1@U_Unchanged_checked_iterator_base_type_tag@0@@Z 004018e0 f i animation.obj
 0001:000008f0       ?Animation_GetNumLowerSequences@@YAHXZ 004018f0 f   animation.obj
 0001:00000910       ?Animation_GetNumUpperSequences@@YAHXZ 00401910 f   animation.obj
 0001:00000930       ?Animation_GetLowerSequence@@YAPAUSequence_t@@H@Z 00401930 f   animation.obj
 0001:00000980       ?Animation_GetUpperSequence@@YAPAUSequence_t@@H@Z 00401980 f   animation.obj
 0001:000009d0       ?Animation_FromUpperFrame@@YAPAUSequence_t@@H@Z 004019d0 f   animation.obj
 0001:00000a10       ?Animation_FromLowerFrame@@YAPAUSequence_t@@H@Z 00401a10 f   animation.obj
 0001:00000a50       ?c_str@?$basic_string@DU?$char_traits@D@std@@V?$allocator@D@2@@std@@QBEPBDXZ 00401a50 f i animation.obj
 0001:00000a60       ??D?$_Vector_iterator@HV?$allocator@H@std@@@std@@QBEAAHXZ 00401a60 f i animation.obj
 0001:00000a90       ??E?$_Vector_iterator@HV?$allocator@H@std@@@std@@QAEAAV01@XZ 00401a90 f i animation.obj
 0001:00000ac0       ??9?$_Vector_const_iterator@HV?$allocator@H@std@@@std@@QBE_NABV01@@Z 00401ac0 f i animation.obj
 0001:00000af0       ??D?$_Vector_iterator@USequence_t@@V?$allocator@USequence_t@@@std@@@std@@QBEAAUSequence_t@@XZ 00401af0 f i animation.obj
 0001:00000b20       ??9?$_Vector_const_iterator@USequence_t@@V?$allocator@USequence_t@@@std@@@std@@QBE_NABV01@@Z 00401b20 f i animation.obj
 0001:00000b50       ??0?$_String_val@DV?$allocator@D@std@@@std@@IAE@V?$allocator@D@1@@Z 00401b50 f i animation.obj
 0001:00000b60       ??0?$_String_val@DV?$allocator@D@std@@@std@@QAE@ABV01@@Z 00401b60 f i animation.obj
 0001:00000b70       ??1?$_Container_base_aux_alloc_real@V?$allocator@H@std@@@std@@IAE@XZ 00401b70 f i animation.obj
 0001:00000b80       ??1?$_Container_base_aux_alloc_real@V?$allocator@USequence_t@@@std@@@std@@IAE@XZ 00401b80 f i animation.obj
 0001:00000b90       ??E?$_Vector_iterator@USequence_t@@V?$allocator@USequence_t@@@std@@@std@@QAEAAV01@XZ 00401b90 f i animation.obj
 0001:00000bc0       ??0?$_Ranit@HHPBHABH@std@@QAE@XZ 00401bc0 f i animation.obj
 0001:00000bd0       ??0?$_Ranit@USequence_t@@HPBU1@ABU1@@std@@QAE@XZ 00401bd0 f i animation.obj
 0001:00000be0       ?_Eos@?$basic_string@DU?$char_traits@D@std@@V?$allocator@D@2@@std@@IAEXI@Z 00401be0 f i animation.obj
 0001:00000c00       ?max_size@?$vector@HV?$allocator@H@std@@@std@@QBEIXZ 00401c00 f i animation.obj
 0001:00000c10       ?allocate@?$allocator@H@std@@QAEPAHI@Z 00401c10 f i animation.obj
 0001:00000c30       ??Y?$_Vector_iterator@HV?$allocator@H@std@@@std@@QAEAAV01@H@Z 00401c30 f i animation.obj
 0001:00000c80       ??0?$_Vector_const_iterator@HV?$allocator@H@std@@@std@@QAE@PAHPBV_Container_base_aux@1@@Z 00401c80 f i animation.obj
 0001:00000cc0       ?max_size@?$vector@USequence_t@@V?$allocator@USequence_t@@@std@@@std@@QBEIXZ 00401cc0 f i animation.obj
 0001:00000cd0       ?allocate@?$allocator@USequence_t@@@std@@QAEPAUSequence_t@@I@Z 00401cd0 f i animation.obj
 0001:00000cf0       ??0?$_Vector_const_iterator@USequence_t@@V?$allocator@USequence_t@@@std@@@std@@QAE@PAUSequence_t@@PBV_Container_base_aux@1@@Z 00401cf0 f i animation.obj
 0001:00000d30       ?max_size@?$basic_string@DU?$char_traits@D@std@@V?$allocator@D@2@@std@@QBEIXZ 00401d30 f i animation.obj
 0001:00000d40       ?allocate@?$allocator@V_Aux_cont@std@@@std@@QAEPAV_Aux_cont@2@I@Z 00401d40 f i animation.obj
 0001:00000d60       ??Y?$_Vector_iterator@USequence_t@@V?$allocator@USequence_t@@@std@@@std@@QAEAAV01@H@Z 00401d60 f i animation.obj
 0001:00000db0       ?allocate@?$allocator@D@std@@QAEPADI@Z 00401db0 f i animation.obj
 0001:00000dd0       ??$copy_s@U?$char_traits@D@std@@@_Traits_helper@std@@YAPADPADIPBDI@Z 00401dd0 f i animation.obj
 0001:00000e00       ??$move_s@U?$char_traits@D@std@@@_Traits_helper@std@@YAPADPADIPBDI@Z 00401e00 f i animation.obj
 0001:00000e30       ??$_Destroy_range@V?$allocator@H@std@@@std@@YAXPAH0AAV?$allocator@H@0@@Z 00401e30 f i animation.obj
 0001:00000e40       ??$_Checked_base@PAUSequence_t@@@std@@YAPAUSequence_t@@AAPAU1@@Z 00401e40 f i animation.obj
 0001:00000e50       ?GetLockedSequence_Upper@@YAPAUSequence_t@@PAUgl_model@@@Z 00401e50 f   animation.obj
 0001:00000e80       ?GetLockedSequence_Lower@@YAPAUSequence_t@@PAUgl_model@@@Z 00401e80 f   animation.obj
 0001:00000eb0       ??E?$_Vector_iterator@USequence_t@@V?$allocator@USequence_t@@@std@@@std@@QAE?AV01@H@Z 00401eb0 f i animation.obj
 0001:00000ef0       ??1?$_Vector_val@HV?$allocator@H@std@@@std@@QAE@XZ 00401ef0 f i animation.obj
 0001:00000f00       ??1?$_Vector_val@USequence_t@@V?$allocator@USequence_t@@@std@@@std@@QAE@XZ 00401f00 f i animation.obj
 0001:00000f10       ?_Tidy@?$basic_string@DU?$char_traits@D@std@@V?$allocator@D@2@@std@@IAEX_NI@Z 00401f10 f i animation.obj
 0001:00000f60       ??0?$_Vector_iterator@HV?$allocator@H@std@@@std@@QAE@PAHPBV_Container_base_aux@1@@Z 00401f60 f i animation.obj
 0001:00000fa0       ??H?$_Vector_iterator@HV?$allocator@H@std@@@std@@QBE?AV01@H@Z 00401fa0 f i animation.obj
 0001:00000ff0       ??0?$_Vector_const_iterator@HV?$allocator@H@std@@@std@@QAE@XZ 00401ff0 f i animation.obj
 0001:00001000       ??0?$_Vector_iterator@USequence_t@@V?$allocator@USequence_t@@@std@@@std@@QAE@PAUSequence_t@@PBV_Container_base_aux@1@@Z 00402000 f i animation.obj
 0001:00001040       ??0?$_Vector_const_iterator@USequence_t@@V?$allocator@USequence_t@@@std@@@std@@QAE@XZ 00402040 f i animation.obj
 0001:00001050       ?erase@?$basic_string@DU?$char_traits@D@std@@V?$allocator@D@2@@std@@QAEAAV12@II@Z 00402050 f i animation.obj
 0001:000010e0       ?_Destroy@?$vector@HV?$allocator@H@std@@@std@@IAEXPAH0@Z 004020e0 f i animation.obj
 0001:000010f0       ??0?$_Container_base_aux_alloc_real@V?$allocator@H@std@@@std@@IAE@V?$allocator@H@1@@Z 004020f0 f i animation.obj
 0001:00001120       ?_Make_iter@?$vector@USequence_t@@V?$allocator@USequence_t@@@std@@@std@@QBE?AV?$_Vector_iterator@USequence_t@@V?$allocator@USequence_t@@@std@@@2@V?$_Vector_const_iterator@USequence_t@@V?$allocator@USequence_t@@@std@@@2@@Z 00402120 f i animation.obj
 0001:00001160       ??0?$_Container_base_aux_alloc_real@V?$allocator@USequence_t@@@std@@@std@@IAE@V?$allocator@USequence_t@@@1@@Z 00402160 f i animation.obj
 0001:00001190       ??H?$_Vector_iterator@USequence_t@@V?$allocator@USequence_t@@@std@@@std@@QBE?AV01@H@Z 00402190 f i animation.obj
 0001:000011e0       ?_Copy@?$basic_string@DU?$char_traits@D@std@@V?$allocator@D@2@@std@@IAEXII@Z 004021e0 f i animation.obj
 0001:00001320       ??0?$basic_string@DU?$char_traits@D@std@@V?$allocator@D@2@@std@@QAE@XZ 00402320 f i animation.obj
 0001:00001340       ??1?$basic_string@DU?$char_traits@D@std@@V?$allocator@D@2@@std@@QAE@XZ 00402340 f i animation.obj
 0001:00001370       ?begin@?$vector@HV?$allocator@H@std@@@std@@QAE?AV?$_Vector_iterator@HV?$allocator@H@std@@@2@XZ 00402370 f i animation.obj
 0001:000013a0       ?end@?$vector@HV?$allocator@H@std@@@std@@QAE?AV?$_Vector_iterator@HV?$allocator@H@std@@@2@XZ 004023a0 f i animation.obj
 0001:000013d0       ??0?$_Vector_iterator@HV?$allocator@H@std@@@std@@QAE@XZ 004023d0 f i animation.obj
 0001:000013e0       ?begin@?$vector@USequence_t@@V?$allocator@USequence_t@@@std@@@std@@QAE?AV?$_Vector_iterator@USequence_t@@V?$allocator@USequence_t@@@std@@@2@XZ 004023e0 f i animation.obj
 0001:00001410       ?end@?$vector@USequence_t@@V?$allocator@USequence_t@@@std@@@std@@QAE?AV?$_Vector_iterator@USequence_t@@V?$allocator@USequence_t@@@std@@@2@XZ 00402410 f i animation.obj
 0001:00001440       ??0?$_Vector_iterator@USequence_t@@V?$allocator@USequence_t@@@std@@@std@@QAE@XZ 00402440 f i animation.obj
 0001:00001450       ?_Tidy@?$vector@HV?$allocator@H@std@@@std@@IAEXXZ 00402450 f i animation.obj
 0001:00001480       ??0?$_Vector_val@HV?$allocator@H@std@@@std@@IAE@V?$allocator@H@1@@Z 00402480 f i animation.obj
 0001:000014b0       ??0?$_Vector_val@USequence_t@@V?$allocator@USequence_t@@@std@@@std@@IAE@V?$allocator@USequence_t@@@1@@Z 004024b0 f i animation.obj
 0001:000014e0       ?_Grow@?$basic_string@DU?$char_traits@D@std@@V?$allocator@D@2@@std@@IAE_NI_N@Z 004024e0 f i animation.obj
 0001:000015a0       ??1logic_error@std@@UAE@XZ 004025a0 f i animation.obj
 0001:000015e0       ?what@logic_error@std@@UBEPBDXZ 004025e0 f i animation.obj
 0001:000015f0       ??_Elogic_error@std@@UAEPAXI@Z 004025f0 f i animation.obj
 0001:000015f0       ??_Glogic_error@std@@UAEPAXI@Z 004025f0 f i animation.obj
 0001:00001640       ?GetMultiLockedSequenceIndexFromFrame@@YAHH_N@Z 00402640 f   animation.obj
 0001:00001720       ??0Sequence_t@@QAE@XZ      00402720 f i animation.obj
 0001:00001740       ??1Sequence_t@@QAE@XZ      00402740 f i animation.obj
 0001:00001770       ??1?$vector@HV?$allocator@H@std@@@std@@QAE@XZ 00402770 f i animation.obj
 0001:000017b0       ?assign@?$basic_string@DU?$char_traits@D@std@@V?$allocator@D@2@@std@@QAEAAV12@ABV12@II@Z 004027b0 f i animation.obj
 0001:00001890       ?assign@?$basic_string@DU?$char_traits@D@std@@V?$allocator@D@2@@std@@QAEAAV12@PBDI@Z 00402890 f i animation.obj
 0001:00001970       ?assign@?$basic_string@DU?$char_traits@D@std@@V?$allocator@D@2@@std@@QAEAAV12@ABV12@@Z 00402970 f i animation.obj
 0001:00001990       ??_GSequence_t@@QAEPAXI@Z  00402990 f i animation.obj
 0001:000019d0       ??0?$basic_string@DU?$char_traits@D@std@@V?$allocator@D@2@@std@@QAE@ABV01@@Z 004029d0 f i animation.obj
 0001:00001a00       ?assign@?$basic_string@DU?$char_traits@D@std@@V?$allocator@D@2@@std@@QAEAAV12@PBD@Z 00402a00 f i animation.obj
 0001:00001a30       ??0Sequence_t@@QAE@ABU0@@Z 00402a30 f i animation.obj
 0001:00001a80       ??4?$basic_string@DU?$char_traits@D@std@@V?$allocator@D@2@@std@@QAEAAV01@ABV01@@Z 00402a80 f i animation.obj
 0001:00001aa0       ??$_Construct@USequence_t@@U1@@std@@YAXPAUSequence_t@@ABU1@@Z 00402aa0 f i animation.obj
 0001:00001b30       ??$_Destroy@USequence_t@@@std@@YAXPAUSequence_t@@@Z 00402b30 f i animation.obj
 0001:00001b60       ??0logic_error@std@@QAE@ABV?$basic_string@DU?$char_traits@D@std@@V?$allocator@D@2@@1@@Z 00402b60 f i animation.obj
 0001:00001bd0       ??0length_error@std@@QAE@ABV?$basic_string@DU?$char_traits@D@std@@V?$allocator@D@2@@1@@Z 00402bd0 f i animation.obj
 0001:00001bf0       ??1length_error@std@@UAE@XZ 00402bf0 f i animation.obj
 0001:00001c30       ??_Elength_error@std@@UAEPAXI@Z 00402c30 f i animation.obj
 0001:00001c30       ??_Glength_error@std@@UAEPAXI@Z 00402c30 f i animation.obj
 0001:00001c80       ??0out_of_range@std@@QAE@ABV?$basic_string@DU?$char_traits@D@std@@V?$allocator@D@2@@1@@Z 00402c80 f i animation.obj
 0001:00001ca0       ??1out_of_range@std@@UAE@XZ 00402ca0 f i animation.obj
 0001:00001ce0       ??_Eout_of_range@std@@UAEPAXI@Z 00402ce0 f i animation.obj
 0001:00001ce0       ??_Gout_of_range@std@@UAEPAXI@Z 00402ce0 f i animation.obj
 0001:00001d30       ??0?$basic_string@DU?$char_traits@D@std@@V?$allocator@D@2@@std@@QAE@PBD@Z 00402d30 f i animation.obj
 0001:00001d70       ??4?$basic_string@DU?$char_traits@D@std@@V?$allocator@D@2@@std@@QAEAAV01@PBD@Z 00402d70 f i animation.obj
 0001:00001da0       ?_Xran@?$vector@HV?$allocator@H@std@@@std@@KAXXZ 00402da0 f i animation.obj
 0001:00001e20       ??0logic_error@std@@QAE@ABV01@@Z 00402e20 f i animation.obj
 0001:00001ea0       ?_Xlen@?$vector@HV?$allocator@H@std@@@std@@KAXXZ 00402ea0 f i animation.obj
 0001:00001f20       ?_Xlen@?$vector@USequence_t@@V?$allocator@USequence_t@@@std@@@std@@KAXXZ 00402f20 f i animation.obj
 0001:00001fa0       ??0length_error@std@@QAE@ABV01@@Z 00402fa0 f i animation.obj
 0001:00001fc0       ??4Sequence_t@@QAEAAU0@ABU0@@Z 00402fc0 f i animation.obj
 0001:00002000       ?construct@?$allocator@USequence_t@@@std@@QAEXPAUSequence_t@@ABU3@@Z 00403000 f i animation.obj
 0001:00002020       ?destroy@?$allocator@USequence_t@@@std@@QAEXPAUSequence_t@@@Z 00403020 f i animation.obj
 0001:00002050       ??$_Copy_opt@PAUSequence_t@@PAU1@Uforward_iterator_tag@std@@@std@@YAPAUSequence_t@@PAU1@00Uforward_iterator_tag@0@U_Nonscalar_ptr_iterator_tag@0@U_Range_checked_iterator_tag@0@@Z 00403050 f i animation.obj
 0001:000020b0       ??$_Copy_backward_opt@PAUSequence_t@@PAU1@Uforward_iterator_tag@std@@@std@@YAPAUSequence_t@@PAU1@00Uforward_iterator_tag@0@U_Nonscalar_ptr_iterator_tag@0@U_Range_checked_iterator_tag@0@@Z 004030b0 f i animation.obj
 0001:00002110       ??$_Uninit_copy@PAUSequence_t@@PAU1@V?$allocator@USequence_t@@@std@@@std@@YAPAUSequence_t@@PAU1@00AAV?$allocator@USequence_t@@@0@U_Nonscalar_ptr_iterator_tag@0@U_Range_checked_iterator_tag@0@@Z 00403110 f i animation.obj
 0001:000021b0       ??0out_of_range@std@@QAE@ABV01@@Z 004031b0 f i animation.obj
 0001:000021d0       ?at@?$vector@HV?$allocator@H@std@@@std@@QAEAAHI@Z 004031d0 f i animation.obj
 0001:00002260       ?_Buy@?$vector@HV?$allocator@H@std@@@std@@IAE_NI@Z 00403260 f i animation.obj
 0001:000022b0       ?_Buy@?$vector@USequence_t@@V?$allocator@USequence_t@@@std@@@std@@IAE_NI@Z 004032b0 f i animation.obj
 0001:00002300       ??$_Copy_opt@PAUSequence_t@@PAU1@@std@@YAPAUSequence_t@@PAU1@00Urandom_access_iterator_tag@0@U_Nonscalar_ptr_iterator_tag@0@U_Range_checked_iterator_tag@0@@Z 00403300 f i animation.obj
 0001:00002360       ??$_Uninit_fill_n@PAUSequence_t@@IU1@V?$allocator@USequence_t@@@std@@@std@@YAXPAUSequence_t@@IABU1@AAV?$allocator@USequence_t@@@0@U_Nonscalar_ptr_iterator_tag@0@U_Range_checked_iterator_tag@0@@Z 00403360 f i animation.obj
 0001:000023f0       ??$_Destroy_range@V?$allocator@USequence_t@@@std@@@std@@YAXPAUSequence_t@@0AAV?$allocator@USequence_t@@@0@U_Nonscalar_ptr_iterator_tag@0@@Z 004033f0 f i animation.obj
 0001:00002430       ??$_Fill@PAUSequence_t@@U1@@std@@YAXPAUSequence_t@@0ABU1@@Z 00403430 f i animation.obj
 0001:00002480       ??$_Copy_backward_opt@PAUSequence_t@@PAU1@@std@@YAPAUSequence_t@@PAU1@00Urandom_access_iterator_tag@0@U_Nonscalar_ptr_iterator_tag@0@U_Range_checked_iterator_tag@0@@Z 00403480 f i animation.obj
 0001:000024e0       ??$unchecked_uninitialized_copy@PAUSequence_t@@PAU1@V?$allocator@USequence_t@@@std@@@stdext@@YAPAUSequence_t@@PAU1@00AAV?$allocator@USequence_t@@@std@@@Z 004034e0 f i animation.obj
 0001:00002510       ?GetMultiLockedSequenceFromFrame@@YAPAUSequence_t@@H_N@Z 00403510 f   animation.obj
 0001:00002560       ?GetNextFrame_MultiLocked@@YAHPAUgl_model@@HH@Z 00403560 f   animation.obj
 0001:000026e0       ?Model_EnsureCurrentFrameLegal@@YAHPAUgl_model@@H@Z 004036e0 f   animation.obj
 0001:00002920       ?FrameAdvanceAnim@@YAXH@Z  00403920 f   animation.obj
 0001:00002990       ??0?$vector@HV?$allocator@H@std@@@std@@QAE@XZ 00403990 f i animation.obj
 0001:000029f0       ??0?$vector@USequence_t@@V?$allocator@USequence_t@@@std@@@std@@QAE@XZ 004039f0 f i animation.obj
 0001:00002a50       ??$unchecked_copy@PAUSequence_t@@PAU1@@stdext@@YAPAUSequence_t@@PAU1@00@Z 00403a50 f i animation.obj
 0001:00002a80       ??$unchecked_uninitialized_fill_n@PAUSequence_t@@IU1@V?$allocator@USequence_t@@@std@@@stdext@@YAXPAUSequence_t@@IABU1@AAV?$allocator@USequence_t@@@std@@@Z 00403a80 f i animation.obj
 0001:00002ab0       ??$_Destroy_range@V?$allocator@USequence_t@@@std@@@std@@YAXPAUSequence_t@@0AAV?$allocator@USequence_t@@@0@@Z 00403ab0 f i animation.obj
 0001:00002ad0       ??$fill@PAUSequence_t@@U1@@std@@YAXPAUSequence_t@@0ABU1@@Z 00403ad0 f i animation.obj
 0001:00002ae0       ??$_Move_backward_opt@PAUSequence_t@@PAU1@Urandom_access_iterator_tag@std@@U_Undefined_move_tag@3@@std@@YAPAUSequence_t@@PAU1@00Urandom_access_iterator_tag@0@U_Undefined_move_tag@0@U_Range_checked_iterator_tag@0@@Z 00403ae0 f i animation.obj
 0001:00002b10       ??$_Uninit_move@PAUSequence_t@@PAU1@V?$allocator@USequence_t@@@std@@U_Undefined_move_tag@3@@std@@YAPAUSequence_t@@PAU1@00AAV?$allocator@USequence_t@@@0@U_Undefined_move_tag@0@U_Range_checked_iterator_tag@0@@Z 00403b10 f i animation.obj
 0001:00002b40       ?rewindAnim@@YAXXZ         00403b40 f   animation.obj
 0001:00002b80       ?animation_loop@@YAXXZ     00403b80 f   animation.obj
 0001:00002cc0       ?_Ufill@?$vector@USequence_t@@V?$allocator@USequence_t@@@std@@@std@@IAEPAUSequence_t@@PAU3@IABU3@@Z 00403cc0 f i animation.obj
 0001:00002d00       ?_Destroy@?$vector@USequence_t@@V?$allocator@USequence_t@@@std@@@std@@IAEXPAUSequence_t@@0@Z 00403d00 f i animation.obj
 0001:00002d20       ??$_Unchecked_move_backward@PAUSequence_t@@PAU1@@stdext@@YAPAUSequence_t@@PAU1@00@Z 00403d20 f i animation.obj
 0001:00002d50       ??$_Unchecked_uninitialized_move@PAUSequence_t@@PAU1@V?$allocator@USequence_t@@@std@@@stdext@@YAPAUSequence_t@@PAU1@00AAV?$allocator@USequence_t@@@std@@@Z 00403d50 f i animation.obj
 0001:00002d80       ?erase@?$vector@USequence_t@@V?$allocator@USequence_t@@@std@@@std@@QAE?AV?$_Vector_iterator@USequence_t@@V?$allocator@USequence_t@@@std@@@2@V?$_Vector_const_iterator@USequence_t@@V?$allocator@USequence_t@@@std@@@2@0@Z 00403d80 f i animation.obj
 0001:00002e30       ?_Tidy@?$vector@USequence_t@@V?$allocator@USequence_t@@@std@@@std@@IAEXXZ 00403e30 f i animation.obj
 0001:00002e80       ??$_Umove@PAUSequence_t@@@?$vector@USequence_t@@V?$allocator@USequence_t@@@std@@@std@@IAEPAUSequence_t@@PAU2@00@Z 00403e80 f i animation.obj
 0001:00002eb0       ??1?$vector@USequence_t@@V?$allocator@USequence_t@@@std@@@std@@QAE@XZ 00403eb0 f i animation.obj
 0001:00002f00       ?clear@?$vector@USequence_t@@V?$allocator@USequence_t@@@std@@@std@@QAEXXZ 00403f00 f i animation.obj
 0001:00002f40       ?_Insert_n@?$vector@USequence_t@@V?$allocator@USequence_t@@@std@@@std@@IAEXV?$_Vector_const_iterator@USequence_t@@V?$allocator@USequence_t@@@std@@@2@IABUSequence_t@@@Z 00403f40 f i animation.obj
 0001:000032d0       ?ClearAnimationCFG@@YAXXZ  004042d0 f   animation.obj
 0001:000033e0       ?insert@?$vector@USequence_t@@V?$allocator@USequence_t@@@std@@@std@@QAE?AV?$_Vector_iterator@USequence_t@@V?$allocator@USequence_t@@@std@@@2@V?$_Vector_const_iterator@USequence_t@@V?$allocator@USequence_t@@@std@@@2@ABUSequence_t@@@Z 004043e0 f i animation.obj
 0001:000034b0       ?push_back@?$vector@USequence_t@@V?$allocator@USequence_t@@@std@@@std@@QAEXABUSequence_t@@@Z 004044b0 f i animation.obj
 0001:00003550       ?LoadAnimationCFG@@YAXPBDPAUHDC__@@@Z 00404550 f   animation.obj
 0001:00003f30       ?BMP_GetMemDIB@@YA_NAAPAXAAH@Z 00404f30 f   bmp.obj
 0001:00003f50       ?BMP_Open@@YA_NPBDHH@Z     00404f50 f   bmp.obj
 0001:000040e0       ?BMP_WritePixel@@YA_NEEE@Z 004050e0 f   bmp.obj
 0001:00004140       ?BMP_WriteLinePadding@@YA_NH@Z 00405140 f   bmp.obj
 0001:00004320       ?BMP_Close@@YA_NPBD_N@Z    00405320 f   bmp.obj
 0001:00004360       ?ClipBoard_SendDIB@@YAHPAXH@Z 00405360 f   clipboard.obj
 0001:00004400       ?Clipboard_SendString@@YAHPBD@Z 00405400 f   clipboard.obj
 0001:000044e0       ?putLittle16@@YAXFPAU_iobuf@@@Z 004054e0 f   DiskIO.obj
 0001:00004510       ?getLittle16@@YAFPAU_iobuf@@@Z 00405510 f   DiskIO.obj
 0001:00004540       ?putLittle32@@YAXHPAU_iobuf@@@Z 00405540 f   DiskIO.obj
 0001:00004580       ?getLittle32@@YAHPAU_iobuf@@@Z 00405580 f   DiskIO.obj
 0001:000045c0       ?putLittleFloat@@YAXMPAU_iobuf@@@Z 004055c0 f   DiskIO.obj
 0001:00004610       ?getLittleFloat@@YAMPAU_iobuf@@@Z 00405610 f   DiskIO.obj
 0001:00004650       ?putBig16@@YAXFPAU_iobuf@@@Z 00405650 f   DiskIO.obj
 0001:00004680       ?getBig16@@YAFPAU_iobuf@@@Z 00405680 f   DiskIO.obj
 0001:000046b0       ?putBig32@@YAXHPAU_iobuf@@@Z 004056b0 f   DiskIO.obj
 0001:000046f0       ?getBig32@@YAHPAU_iobuf@@@Z 004056f0 f   DiskIO.obj
 0001:00004730       ?putBigFloat@@YAXMPAU_iobuf@@@Z 00405730 f   DiskIO.obj
 0001:00004780       ?getBigFloat@@YAMPAU_iobuf@@@Z 00405780 f   DiskIO.obj
 0001:000047c0       ?start_drag@@YAXW4mkey_enum@@HH@Z 004057c0 f   drag.obj
 0001:000047e0       ?drag@@YA_NW4mkey_enum@@HH@Z 004057e0 f   drag.obj
 0001:00004a80       ?end_drag@@YAXW4mkey_enum@@HH@Z 00405a80 f   drag.obj
 0001:00004a90       ?Error@@YAXPADZZ           00405a90 f   Error.obj
 0001:00004ae0       ?Debug@@YAXPADZZ           00405ae0 f   Error.obj
 0001:00004fc0       ?ExportGhoul2FromMD3@@YAPADPBDHHHPAPBD@Z 00405fc0 f   g2export.obj
 0001:00005050       _LoadJPG                   00406050 f   jpeg_interface.obj
 0001:00005290       _JPG_ErrorThrow            00406290 f   jpeg_interface.obj
 0001:000052b0       _JPG_MessageOut            004062b0 f   jpeg_interface.obj
 0001:000052d0       _JPG_Malloc                004062d0 f   jpeg_interface.obj
 0001:000052e0       _JPG_Free                  004062e0 f   jpeg_interface.obj
 0001:000052f0       _MC_Compress               004062f0 f   MatComp.obj
 0001:00005480       _MC_UnCompress             00406480 f   MatComp.obj
 0001:000055b0       _fabsf                     004065b0 f i matrix4.obj
 0001:000055c0       _cosf                      004065c0 f i matrix4.obj
 0001:000055e0       _floorf                    004065e0 f i matrix4.obj
 0001:00005600       _powf                      00406600 f i matrix4.obj
 0001:00005620       _sinf                      00406620 f i matrix4.obj
 0001:00005640       _sqrtf                     00406640 f i matrix4.obj
 0001:00005660       ?cos@@YAMM@Z               00406660 f i matrix4.obj
 0001:00005680       ?fabs@@YAMM@Z              00406680 f i matrix4.obj
 0001:00005690       ?floor@@YAMM@Z             00406690 f i matrix4.obj
 0001:000056b0       ?pow@@YAMMM@Z              004066b0 f i matrix4.obj
 0001:000056d0       ?sin@@YAMM@Z               004066d0 f i matrix4.obj
 0001:000056f0       ?sqrt@@YAMM@Z              004066f0 f i matrix4.obj
 0001:00005710       ??0Vect3@@QAE@XZ           00406710 f i matrix4.obj
 0001:00005720       ??AVect3@@QAEAAMH@Z        00406720 f i matrix4.obj
 0001:00005730       ?x@Vect3@@QAEAAMXZ         00406730 f i matrix4.obj
 0001:00005740       ?y@Vect3@@QAEAAMXZ         00406740 f i matrix4.obj
 0001:00005750       ?z@Vect3@@QAEAAMXZ         00406750 f i matrix4.obj
 0001:00005760       ??AVect3@@QBEABMH@Z        00406760 f i matrix4.obj
 0001:00005770       ?x@Vect3@@QBEABMXZ         00406770 f i matrix4.obj
 0001:00005780       ??4Vect3@@QAEABV0@M@Z      00406780 f i matrix4.obj
 0001:000057a0       ??4Vect3@@QAEABV0@ABV0@@Z  004067a0 f i matrix4.obj
 0001:000057c0       ??XVect3@@QAEABV0@M@Z      004067c0 f i matrix4.obj
 0001:000057f0       ??0Matrix4@@QAE@XZ         004067f0 f i matrix4.obj
 0001:00005800       ?GetRow@Matrix4@@QBEXHAAVVect3@@@Z 00406800 f i matrix4.obj
 0001:00005830       ?BackSub@@YAXQAY0M@MPAHPAMH@Z 00406830 f   matrix4.obj
 0001:00005a90       ?LUDecomposition@@YAHQAY0M@MQAHHPAM@Z 00406a90 f   matrix4.obj
 0001:000060b0       ?BackSub4@@YAXQAY03MPAHPAM@Z 004070b0 f   matrix4.obj
 0001:000062b0       ?LUDecomposition4@@YAHQAY03MQAHPAM@Z 004072b0 f   matrix4.obj
 0001:00006700       ?GetTextureSystem@@YAHABVVect3@@000000AAV1@11@Z 00407700 f   matrix4.obj
 0001:000069e0       ??0Matrix4@@QAE@ABV0@@Z    004079e0 f   matrix4.obj
 0001:00006a00       ?IntegrityCheck@Matrix4@@QBE_NXZ 00407a00 f   matrix4.obj
 0001:00006a10       ?CalcFlags@Matrix4@@QAEHXZ 00407a10 f   matrix4.obj
 0001:00006a70       ?IsRotationIdentity@Matrix4@@QBE_NXZ 00407a70 f   matrix4.obj
 0001:00006ac0       ?IsRotationIdentityMoreTolerance@Matrix4@@QBE_NXZ 00407ac0 f   matrix4.obj
 0001:00006b20       ?Identity@Matrix4@@QAEXXZ  00407b20 f   matrix4.obj
 0001:00006b60       ?MaxAbsElement@Matrix4@@QAEMXZ 00407b60 f   matrix4.obj
 0001:00006c20       ?Zero@Matrix4@@QAEXXZ      00407c20 f   matrix4.obj
 0001:00006c60       ?Det@Matrix4@@QAEMXZ       00407c60 f   matrix4.obj
 0001:00006cc0       ?Translate@Matrix4@@QAEXMMM@Z 00407cc0 f   matrix4.obj
 0001:00006d10       ?Translate@Matrix4@@QAEXABVVect3@@@Z 00407d10 f   matrix4.obj
 0001:00006d60       ?Rotate@Matrix4@@QAEXHM@Z  00407d60 f   matrix4.obj
 0001:00006e40       ?Scale@Matrix4@@QAEXMMM@Z  00407e40 f   matrix4.obj
 0001:00006e90       ?Scale@Matrix4@@QAEXM@Z    00407e90 f   matrix4.obj
 0001:00006ed0       ?Interp@Matrix4@@QAEXABV1@M0M@Z 00407ed0 f   matrix4.obj
 0001:00006fc0       ?Interp@Matrix4@@QAEXABV1@0M@Z 00407fc0 f   matrix4.obj
 0001:000070b0       ??8Matrix4@@QBE_NABV0@@Z   004080b0 f   matrix4.obj
 0001:00007120       ?XFormPoint@Matrix4@@QBEXAAVVect3@@ABV2@@Z 00408120 f   matrix4.obj
 0001:000071d0       ?XFormVect@Matrix4@@QBEXAAVVect3@@ABV2@@Z 004081d0 f   matrix4.obj
 0001:00007260       ?XFormVectTranspose@Matrix4@@QBEXAAVVect3@@ABV2@@Z 00408260 f   matrix4.obj
 0001:00007300       ?HXFormPoint@Matrix4@@QBEMAAVVect3@@ABV2@@Z 00408300 f   matrix4.obj
 0001:000073d0       ?HXFormPointND@Matrix4@@QBEXPAMPBM@Z 004083d0 f   matrix4.obj
 0001:00007480       ?From3x4@Matrix4@@QAEXQAY03$$CBM@Z 00408480 f   matrix4.obj
 0001:000074d0       ?To3x4@Matrix4@@QBEXQAY03M@Z 004084d0 f   matrix4.obj
 0001:00007500       ?SetRow@Matrix4@@QAEXHABVVect3@@@Z 00408500 f   matrix4.obj
 0001:00007530       ?SetColumn@Matrix4@@QAEXHABVVect3@@@Z 00408530 f   matrix4.obj
 0001:00007560       ?SetRow@Matrix4@@QAEXH@Z   00408560 f   matrix4.obj
 0001:00007580       ?SetColumn@Matrix4@@QAEXH@Z 00408580 f   matrix4.obj
 0001:000075a0       ?SetFromDouble@Matrix4@@QAEXPAN@Z 004085a0 f   matrix4.obj
 0001:00007600       ?MultiplyColumn@Matrix4@@QAEXHM@Z 00408600 f   matrix4.obj
 0001:00007630       ?GetColumnLen@Matrix4@@QAEMH@Z 00408630 f   matrix4.obj
 0001:00007670       ?Transpose@Matrix4@@QAEXXZ 00408670 f   matrix4.obj
 0001:00007770       ?ClampPrecision@Matrix4@@QAEXM@Z 00408770 f   matrix4.obj
 0001:00007800       ?Inverse@Matrix4@@QAEXABV1@@Z 00408800 f   matrix4.obj
 0001:00007960       ?OrthoNormalInverse@Matrix4@@QAEXABV1@@Z 00408960 f   matrix4.obj
 0001:00007a10       ?FindFromPoints@Matrix4@@QAEXQBVVect3@@0@Z 00408a10 f   matrix4.obj
 0001:00007b80       ?MakeEquiscalar@Matrix4@@QAEXXZ 00408b80 f   matrix4.obj
 0001:00007c70       ?Concat@Matrix4@@QAEXABV1@0@Z 00408c70 f   matrix4.obj
 0001:00007cf0       ?Rotate@Matrix4@@QAEXMMM@Z 00408cf0 f   matrix4.obj
 0001:00007d90       ?Rotate@Matrix4@@QAEXVVect3@@@Z 00408d90 f   matrix4.obj
 0001:00007e30       ?strchr@@YAPADPADH@Z       00408e30 f i md3gl.obj
 0001:00007e40       ?strrchr@@YAPADPADH@Z      00408e40 f i md3gl.obj
 0001:00007e50       _acosf                     00408e50 f i md3gl.obj
 0001:00007e70       ?acos@@YAMM@Z              00408e70 f i md3gl.obj
 0001:00007e90       ?set_windowSize@@YAXHH@Z   00408e90 f   md3gl.obj
 0001:00007f00       ?bIsWireFrame@@YA_NXZ      00408f00 f   md3gl.obj
 0001:00007f10       ?bIsTextured@@YA_NXZ       00408f10 f   md3gl.obj
 0001:00007f20       ?oglStateFlatTextured@@YAXXZ 00408f20 f   md3gl.obj
 0001:00007f60       ?oglStateShadedTexturedAndWireFrame@@YAXXZ 00408f60 f   md3gl.obj
 0001:00007f70       ?oglStateShadedTextured@@YAXXZ 00408f70 f   md3gl.obj
 0001:00007fb0       ?oglStateShadedFlat@@YAXXZ 00408fb0 f   md3gl.obj
 0001:00007ff0       ?oglStateWireframe@@YAXXZ  00408ff0 f   md3gl.obj
 0001:00008030       ?cross@@YAXQAM00@Z         00409030 f   md3gl.obj
 0001:00008070       ?normalize@@YAXQAM@Z       00409070 f   md3gl.obj
 0001:000080f0       ?vtos@@YAPBDQAM@Z          004090f0 f   md3gl.obj
 0001:00008120       ?v2tos@@YAPBDQAM@Z         00409120 f   md3gl.obj
 0001:00008150       ?RB_SurfaceAnim@@YAXPAUmd4Surface_t@@PAUgl_model@@@Z 00409150 f   md3gl.obj
 0001:00008d90       ?Freeze_Surface@@YAPAUshaderCommands_s@@PAUmd4Surface_t@@H@Z 00409d90 f   md3gl.obj
 0001:00009050       ?matrix_from_quat@@YAXPAM0@Z 0040a050 f   md3gl.obj
 0001:00009160       ?quat_from_matrix@@YAXPAM0@Z 0040a160 f   md3gl.obj
 0001:00009300       ?quat_slerp@@YAXPAM0M0@Z   0040a300 f   md3gl.obj
 0001:00009470       ?R_ViewModelInfo@@YAXPAUgl_model@@PAD@Z 0040a470 f   md3gl.obj
 0001:00009740       ?GetLoadedModelInfo@@YAPADXZ 0040a740 f   md3gl.obj
 0001:000097b0       ?SkinName_FromPathedModelName@@YAPBDPBD@Z 0040a7b0 f   md3gl.obj
 0001:00009840       ?Model_BaseNameFromFilename@@YAPBDPBD@Z 0040a840 f   md3gl.obj
 0001:00009940       ?R_FindModel@@YAPAUgl_model@@PAU1@PBD@Z 0040a940 f   md3gl.obj
 0001:00009a00       ?Model_FromPathedSkinName@@YAPAUgl_model@@PBD@Z 0040aa00 f   md3gl.obj
 0001:00009aa0       ?Model_ApplyTextureToSurface@@YA_NPAUgl_model@@PBD1@Z 0040aaa0 f   md3gl.obj
 0001:00009e30       ?Model_ApplySkin@@YA_NPAUgl_model@@PBD@Z 0040ae30 f   md3gl.obj
 0001:0000a0b0       ?ApplyNewSkin@@YA_NPBD@Z   0040b0b0 f   md3gl.obj
 0001:0000a1c0       ?SetFaceSkin@@YAXH@Z       0040b1c0 f   md3gl.obj
 0001:0000a340       ?size@?$vector@UNormal@@V?$allocator@UNormal@@@std@@@std@@QBEIXZ 0040b340 f i md3gl.obj
 0001:0000a360       ??0?$allocator@UNormal@@@std@@QAE@XZ 0040b360 f i md3gl.obj
 0001:0000a370       ??0?$allocator@UNormal@@@std@@QAE@ABV01@@Z 0040b370 f i md3gl.obj
 0001:0000a380       ?deallocate@?$allocator@UNormal@@@std@@QAEXPAUNormal@@I@Z 0040b380 f i md3gl.obj
 0001:0000a390       ?capacity@?$vector@UNormal@@V?$allocator@UNormal@@@std@@@std@@QBEIXZ 0040b390 f i md3gl.obj
 0001:0000a3b0       ?max_size@?$allocator@UNormal@@@std@@QBEIXZ 0040b3b0 f i md3gl.obj
 0001:0000a3c0       ??Y?$_Vector_const_iterator@UNormal@@V?$allocator@UNormal@@@std@@@std@@QAEAAV01@H@Z 0040b3c0 f i md3gl.obj
 0001:0000a410       ??8?$_Vector_const_iterator@UNormal@@V?$allocator@UNormal@@@std@@@std@@QBE_NABV01@@Z 0040b410 f i md3gl.obj
 0001:0000a440       ??0?$_Iterator_with_base@Urandom_access_iterator_tag@std@@UNormal@@HPBU3@ABU3@V_Iterator_base_aux@2@@std@@QAE@XZ 0040b440 f i md3gl.obj
 0001:0000a450       ??$?0UNormal@@@?$allocator@V_Aux_cont@std@@@std@@QAE@ABV?$allocator@UNormal@@@1@@Z 0040b450 f i md3gl.obj
 0001:0000a460       ??$_Allocate@UNormal@@@std@@YAPAUNormal@@IPAU1@@Z 0040b460 f i md3gl.obj
 0001:0000a4c0       ??$_Iter_random@PAUNormal@@PAU1@@std@@YA?AUrandom_access_iterator_tag@0@ABQAUNormal@@0@Z 0040b4c0 f i md3gl.obj
 0001:0000a4d0       ??$_Ptr_cat@PAUNormal@@PAU1@@std@@YA?AU_Nonscalar_ptr_iterator_tag@0@AAPAUNormal@@0@Z 0040b4d0 f i md3gl.obj
 0001:0000a4e0       ??$_Fill@PAUNormal@@U1@@std@@YAXPAUNormal@@0ABU1@@Z 0040b4e0 f i md3gl.obj
 0001:0000a510       ??$_Move_cat@PAUNormal@@@std@@YA?AU_Undefined_move_tag@0@ABQAUNormal@@@Z 0040b510 f i md3gl.obj
 0001:0000a520       ??$_Checked_base@PAUNormal@@@std@@YAPAUNormal@@AAPAU1@U_Unchanged_checked_iterator_base_type_tag@0@@Z 0040b520 f i md3gl.obj
 0001:0000a530       ??$_Copy_opt@PAUNormal@@PAU1@Uforward_iterator_tag@std@@@std@@YAPAUNormal@@PAU1@00Uforward_iterator_tag@0@U_Nonscalar_ptr_iterator_tag@0@U_Range_checked_iterator_tag@0@@Z 0040b530 f i md3gl.obj
 0001:0000a560       ??$_Construct@UNormal@@U1@@std@@YAXPAUNormal@@ABU1@@Z 0040b560 f i md3gl.obj
 0001:0000a580       ??$_Destroy@UNormal@@@std@@YAXPAUNormal@@@Z 0040b580 f i md3gl.obj
 0001:0000a590       ??$_Copy_backward_opt@PAUNormal@@PAU1@Uforward_iterator_tag@std@@@std@@YAPAUNormal@@PAU1@00Uforward_iterator_tag@0@U_Nonscalar_ptr_iterator_tag@0@U_Range_checked_iterator_tag@0@@Z 0040b590 f i md3gl.obj
 0001:0000a5c0       ?initialize_glstate@@YAXXZ 0040b5c0 f   md3gl.obj
 0001:0000a7d0       ??A?$vector@UNormal@@V?$allocator@UNormal@@@std@@@std@@QAEAAUNormal@@I@Z 0040b7d0 f i md3gl.obj
 0001:0000a810       ??1?$_Container_base_aux_alloc_real@V?$allocator@UNormal@@@std@@@std@@IAE@XZ 0040b810 f i md3gl.obj
 0001:0000a820       ?max_size@?$vector@UNormal@@V?$allocator@UNormal@@@std@@@std@@QBEIXZ 0040b820 f i md3gl.obj
 0001:0000a830       ?allocate@?$allocator@UNormal@@@std@@QAEPAUNormal@@I@Z 0040b830 f i md3gl.obj
 0001:0000a850       ??Y?$_Vector_iterator@UNormal@@V?$allocator@UNormal@@@std@@@std@@QAEAAV01@H@Z 0040b850 f i md3gl.obj
 0001:0000a8a0       ??9?$_Vector_const_iterator@UNormal@@V?$allocator@UNormal@@@std@@@std@@QBE_NABV01@@Z 0040b8a0 f i md3gl.obj
 0001:0000a8d0       ??0?$_Ranit@UNormal@@HPBU1@ABU1@@std@@QAE@XZ 0040b8d0 f i md3gl.obj
 0001:0000a8e0       ??$_Checked_base@PAUNormal@@@std@@YAPAUNormal@@AAPAU1@@Z 0040b8e0 f i md3gl.obj
 0001:0000a8f0       ??$_Copy_opt@PAUNormal@@PAU1@@std@@YAPAUNormal@@PAU1@00Urandom_access_iterator_tag@0@U_Nonscalar_ptr_iterator_tag@0@U_Range_checked_iterator_tag@0@@Z 0040b8f0 f i md3gl.obj
 0001:0000a940       ?construct@?$allocator@UNormal@@@std@@QAEXPAUNormal@@ABU3@@Z 0040b940 f i md3gl.obj
 0001:0000a960       ?destroy@?$allocator@UNormal@@@std@@QAEXPAUNormal@@@Z 0040b960 f i md3gl.obj
 0001:0000a970       ??$_Copy_backward_opt@PAUNormal@@PAU1@@std@@YAPAUNormal@@PAU1@00Urandom_access_iterator_tag@0@U_Nonscalar_ptr_iterator_tag@0@U_Range_checked_iterator_tag@0@@Z 0040b970 f i md3gl.obj
 0001:0000a9d0       ??$_Uninit_copy@PAUNormal@@PAU1@V?$allocator@UNormal@@@std@@@std@@YAPAUNormal@@PAU1@00AAV?$allocator@UNormal@@@0@U_Nonscalar_ptr_iterator_tag@0@U_Range_checked_iterator_tag@0@@Z 0040b9d0 f i md3gl.obj
 0001:0000aa10       ??1?$_Vector_val@UNormal@@V?$allocator@UNormal@@@std@@@std@@QAE@XZ 0040ba10 f i md3gl.obj
 0001:0000aa20       ??0?$_Container_base_aux_alloc_real@V?$allocator@UNormal@@@std@@@std@@IAE@V?$allocator@UNormal@@@1@@Z 0040ba20 f i md3gl.obj
 0001:0000aa50       ??H?$_Vector_iterator@UNormal@@V?$allocator@UNormal@@@std@@@std@@QBE?AV01@H@Z 0040ba50 f i md3gl.obj
 0001:0000aaa0       ??0?$_Vector_const_iterator@UNormal@@V?$allocator@UNormal@@@std@@@std@@QAE@PAUNormal@@PBV_Container_base_aux@1@@Z 0040baa0 f i md3gl.obj
 0001:0000aae0       ??$unchecked_copy@PAUNormal@@PAU1@@stdext@@YAPAUNormal@@PAU1@00@Z 0040bae0 f i md3gl.obj
 0001:0000ab10       ??$fill@PAUNormal@@U1@@std@@YAXPAUNormal@@0ABU1@@Z 0040bb10 f i md3gl.obj
 0001:0000ab40       ??$_Destroy_range@V?$allocator@UNormal@@@std@@@std@@YAXPAUNormal@@0AAV?$allocator@UNormal@@@0@U_Nonscalar_ptr_iterator_tag@0@@Z 0040bb40 f i md3gl.obj
 0001:0000ab50       ??$_Move_backward_opt@PAUNormal@@PAU1@Urandom_access_iterator_tag@std@@U_Undefined_move_tag@3@@std@@YAPAUNormal@@PAU1@00Urandom_access_iterator_tag@0@U_Undefined_move_tag@0@U_Range_checked_iterator_tag@0@@Z 0040bb50 f i md3gl.obj
 0001:0000ab80       ??$_Uninit_fill_n@PAUNormal@@IU1@V?$allocator@UNormal@@@std@@@std@@YAXPAUNormal@@IABU1@AAV?$allocator@UNormal@@@0@U_Nonscalar_ptr_iterator_tag@0@U_Range_checked_iterator_tag@0@@Z 0040bb80 f i md3gl.obj
 0001:0000abb0       ??$unchecked_uninitialized_copy@PAUNormal@@PAU1@V?$allocator@UNormal@@@std@@@stdext@@YAPAUNormal@@PAU1@00AAV?$allocator@UNormal@@@std@@@Z 0040bbb0 f i md3gl.obj
 0001:0000abe0       ??0?$_Vector_val@UNormal@@V?$allocator@UNormal@@@std@@@std@@IAE@V?$allocator@UNormal@@@1@@Z 0040bbe0 f i md3gl.obj
 0001:0000ac10       ??0?$_Vector_iterator@UNormal@@V?$allocator@UNormal@@@std@@@std@@QAE@PAUNormal@@PBV_Container_base_aux@1@@Z 0040bc10 f i md3gl.obj
 0001:0000ac50       ??$_Destroy_range@V?$allocator@UNormal@@@std@@@std@@YAXPAUNormal@@0AAV?$allocator@UNormal@@@0@@Z 0040bc50 f i md3gl.obj
 0001:0000ac60       ??$_Unchecked_move_backward@PAUNormal@@PAU1@@stdext@@YAPAUNormal@@PAU1@00@Z 0040bc60 f i md3gl.obj
 0001:0000ac90       ??$unchecked_uninitialized_fill_n@PAUNormal@@IU1@V?$allocator@UNormal@@@std@@@stdext@@YAXPAUNormal@@IABU1@AAV?$allocator@UNormal@@@std@@@Z 0040bc90 f i md3gl.obj
 0001:0000acc0       ??$_Uninit_move@PAUNormal@@PAU1@V?$allocator@UNormal@@@std@@U_Undefined_move_tag@3@@std@@YAPAUNormal@@PAU1@00AAV?$allocator@UNormal@@@0@U_Undefined_move_tag@0@U_Range_checked_iterator_tag@0@@Z 0040bcc0 f i md3gl.obj
 0001:0000acf0       ?begin@?$vector@UNormal@@V?$allocator@UNormal@@@std@@@std@@QAE?AV?$_Vector_iterator@UNormal@@V?$allocator@UNormal@@@std@@@2@XZ 0040bcf0 f i md3gl.obj
 0001:0000ad20       ?end@?$vector@UNormal@@V?$allocator@UNormal@@@std@@@std@@QAE?AV?$_Vector_iterator@UNormal@@V?$allocator@UNormal@@@std@@@2@XZ 0040bd20 f i md3gl.obj
 0001:0000ad50       ?_Destroy@?$vector@UNormal@@V?$allocator@UNormal@@@std@@@std@@IAEXPAUNormal@@0@Z 0040bd50 f i md3gl.obj
 0001:0000ad60       ?_Make_iter@?$vector@UNormal@@V?$allocator@UNormal@@@std@@@std@@QBE?AV?$_Vector_iterator@UNormal@@V?$allocator@UNormal@@@std@@@2@V?$_Vector_const_iterator@UNormal@@V?$allocator@UNormal@@@std@@@2@@Z 0040bd60 f i md3gl.obj
 0001:0000ada0       ?_Ufill@?$vector@UNormal@@V?$allocator@UNormal@@@std@@@std@@IAEPAUNormal@@PAU3@IABU3@@Z 0040bda0 f i md3gl.obj
 0001:0000ade0       ??$_Unchecked_uninitialized_move@PAUNormal@@PAU1@V?$allocator@UNormal@@@std@@@stdext@@YAPAUNormal@@PAU1@00AAV?$allocator@UNormal@@@std@@@Z 0040bde0 f i md3gl.obj
 0001:0000ae10       ?_Tidy@?$vector@UNormal@@V?$allocator@UNormal@@@std@@@std@@IAEXXZ 0040be10 f i md3gl.obj
 0001:0000ae40       ?erase@?$vector@UNormal@@V?$allocator@UNormal@@@std@@@std@@QAE?AV?$_Vector_iterator@UNormal@@V?$allocator@UNormal@@@std@@@2@V?$_Vector_const_iterator@UNormal@@V?$allocator@UNormal@@@std@@@2@0@Z 0040be40 f i md3gl.obj
 0001:0000aed0       ??$_Umove@PAUNormal@@@?$vector@UNormal@@V?$allocator@UNormal@@@std@@@std@@IAEPAUNormal@@PAU2@00@Z 0040bed0 f i md3gl.obj
 0001:0000af00       ??1?$vector@UNormal@@V?$allocator@UNormal@@@std@@@std@@QAE@XZ 0040bf00 f i md3gl.obj
 0001:0000af40       ?_Xlen@?$vector@UNormal@@V?$allocator@UNormal@@@std@@@std@@KAXXZ 0040bf40 f i md3gl.obj
 0001:0000afc0       ?_Buy@?$vector@UNormal@@V?$allocator@UNormal@@@std@@@std@@IAE_NI@Z 0040bfc0 f i md3gl.obj
 0001:0000b010       ?_Insert_n@?$vector@UNormal@@V?$allocator@UNormal@@@std@@@std@@IAEXV?$_Vector_const_iterator@UNormal@@V?$allocator@UNormal@@@std@@@2@IABUNormal@@@Z 0040c010 f i md3gl.obj
 0001:0000b2d0       ??0?$vector@UNormal@@V?$allocator@UNormal@@@std@@@std@@QAE@XZ 0040c2d0 f i md3gl.obj
 0001:0000b330       ?resize@?$vector@UNormal@@V?$allocator@UNormal@@@std@@@std@@QAEXIUNormal@@@Z 0040c330 f i md3gl.obj
 0001:0000b400       ?resize@?$vector@UNormal@@V?$allocator@UNormal@@@std@@@std@@QAEXI@Z 0040c400 f i md3gl.obj
 0001:0000b420       ?draw_gl_mesh@@YAXPAUgl_mesh@@PAY02MPAUgl_model@@@Z 0040c420 f   md3gl.obj
 0001:0000bdf0       ?draw_interpolated_gl_mesh@@YAXPAUgl_mesh@@HPAUgl_model@@@Z 0040cdf0 f   md3gl.obj
 0001:0000bef0       ?draw_gl_model@@YAXPAUgl_model@@@Z 0040cef0 f   md3gl.obj
 0001:0000c050       ?draw_view@@YAXXZ          0040d050 f   md3gl.obj
 0001:0000c130       ?draw_skeleton@@YAXPAUgl_model@@@Z 0040d130 f   md3gl.obj
 0001:0000c580       ?draw_viewSkeleton@@YAXXZ  0040d580 f   md3gl.obj
 0001:0000c830       _atan2f                    0040d830 f i md3IO.obj
 0001:0000c850       ?atan2@@YAMMM@Z            0040d850 f i md3IO.obj
 0001:0000c870       ??0Vect3@@QAE@MMM@Z        0040d870 f i md3IO.obj
 0001:0000c890       ??0Vect3@@QAE@PBM@Z        0040d890 f i md3IO.obj
 0001:0000c8b0       ?NormalToLatLong@@YAXQBMQAE@Z 0040d8b0 f   md3IO.obj
 0001:0000c9a0       ?LatLongToNormal@@YAXPAFQAM@Z 0040d9a0 f   md3IO.obj
 0001:0000ca80       ?VectorLength@@YANQBM@Z    0040da80 f   md3IO.obj
 0001:0000cac0       ?ClearBounds@@YAXQAM0@Z    0040dac0 f   md3IO.obj
 0001:0000caf0       ?AddPointToBounds@@YAXQBMQAM1@Z 0040daf0 f   md3IO.obj
 0001:0000cb90       ?G2Exporter_Surface_GetName@@YAPBDH@Z 0040db90 f   md3IO.obj
 0001:0000cc50       ?G2Exporter_Surface_GetShaderName@@YAPBDH@Z 0040dc50 f   md3IO.obj
 0001:0000ccd0       ?G2Exporter_Surface_GetNumVerts@@YAHHH@Z 0040dcd0 f   md3IO.obj
 0001:0000cd40       ?G2Exporter_Surface_GetNumTris@@YAHHH@Z 0040dd40 f   md3IO.obj
 0001:0000cdb0       ?G2Exporter_Surface_GetTriIndex@@YAHHHHH@Z 0040ddb0 f   md3IO.obj
 0001:0000ce90       ?G2Exporter_Surface_GetVertNormal@@YAPAY02MHHH@Z 0040de90 f   md3IO.obj
 0001:0000d050       ?G2Exporter_Surface_GetVertCoords@@YAPAY02MHHH@Z 0040e050 f   md3IO.obj
 0001:0000d3d0       ?G2Exporter_Surface_GetTexCoords@@YAPAY01MHHH@Z 0040e3d0 f   md3IO.obj
 0001:0000d450       ?loadmesh@@YAPBDAAUgl_mesh@@PAU_iobuf@@@Z 0040e450 f   md3IO.obj
 0001:0000dba0       ?AxisClear@@YAXQAY02M@Z    0040eba0 f   md3IO.obj
 0001:0000dbd0       ?R_GetAnimTag@@YAXPAUmd4Header_t@@HHPAUTag@@@Z 0040ebd0 f   md3IO.obj
 0001:0000ddb0       ?loadmodel@@YA_NAAUgl_model@@PAU_iobuf@@PAD@Z 0040edb0 f   md3IO.obj
 0001:0000e4b0       ?delete_gl_model@@YAXPAUgl_model@@@Z 0040f4b0 f   md3IO.obj
 0001:0000e710       ?loadmdx@@YA_NAAUgl_model@@PAD@Z 0040f710 f   md3IO.obj
 0001:0000e750       ?write_baseModelToRaw@@YAXPAD@Z 0040f750 f   md3IO.obj
 0001:0000e860       ?_Nextnode@?$list@V?$basic_string@DU?$char_traits@D@std@@V?$allocator@D@2@@std@@V?$allocator@V?$basic_string@DU?$char_traits@D@std@@V?$allocator@D@2@@std@@@2@@std@@KAAAPAU_Node@?$_List_nod@V?$basic_string@DU?$char_traits@D@std@@V?$allocator@D@2@@std@@V?$allocator@V?$basic_string@DU?$char_traits@D@std@@V?$allocator@D@2@@std@@@2@@2@PAU342@@Z 0040f860 f i md3IO.obj
 0001:0000e870       ?_Prevnode@?$list@V?$basic_string@DU?$char_traits@D@std@@V?$allocator@D@2@@std@@V?$allocator@V?$basic_string@DU?$char_traits@D@std@@V?$allocator@D@2@@std@@@2@@std@@KAAAPAU_Node@?$_List_nod@V?$basic_string@DU?$char_traits@D@std@@V?$allocator@D@2@@std@@V?$allocator@V?$basic_string@DU?$char_traits@D@std@@V?$allocator@D@2@@std@@@2@@2@PAU342@@Z 0040f870 f i md3IO.obj
 0001:0000e880       ??0?$allocator@V?$basic_string@DU?$char_traits@D@std@@V?$allocator@D@2@@std@@@std@@QAE@XZ 0040f880 f i md3IO.obj
 0001:0000e890       ?deallocate@?$allocator@U_Node@?$_List_nod@V?$basic_string@DU?$char_traits@D@std@@V?$allocator@D@2@@std@@V?$allocator@V?$basic_string@DU?$char_traits@D@std@@V?$allocator@D@2@@std@@@2@@std@@@std@@QAEXPAU_Node@?$_List_nod@V?$basic_string@DU?$char_traits@D@std@@V?$allocator@D@2@@std@@V?$allocator@V?$basic_string@DU?$char_traits@D@std@@V?$allocator@D@2@@std@@@2@@2@I@Z 0040f890 f i md3IO.obj
 0001:0000e8a0       ??E?$_Const_iterator@$00@?$list@V?$basic_string@DU?$char_traits@D@std@@V?$allocator@D@2@@std@@V?$allocator@V?$basic_string@DU?$char_traits@D@std@@V?$allocator@D@2@@std@@@2@@std@@QAEAAV012@XZ 0040f8a0 f i md3IO.obj
 0001:0000e8e0       ??8?$_Const_iterator@$00@?$list@V?$basic_string@DU?$char_traits@D@std@@V?$allocator@D@2@@std@@V?$allocator@V?$basic_string@DU?$char_traits@D@std@@V?$allocator@D@2@@std@@@2@@std@@QBE_NABV012@@Z 0040f8e0 f i md3IO.obj
 0001:0000e910       ??0?$_Iterator_with_base@Ubidirectional_iterator_tag@std@@V?$basic_string@DU?$char_traits@D@std@@V?$allocator@D@2@@2@HPBV32@ABV32@V_Iterator_base_aux@2@@std@@QAE@XZ 0040f910 f i md3IO.obj
 0001:0000e920       ?_Myval@?$list@V?$basic_string@DU?$char_traits@D@std@@V?$allocator@D@2@@std@@V?$allocator@V?$basic_string@DU?$char_traits@D@std@@V?$allocator@D@2@@std@@@2@@std@@KAAAV?$basic_string@DU?$char_traits@D@std@@V?$allocator@D@2@@2@PAU_Node@?$_List_nod@V?$basic_string@DU?$char_traits@D@std@@V?$allocator@D@2@@std@@V?$allocator@V?$basic_string@DU?$char_traits@D@std@@V?$allocator@D@2@@std@@@2@@2@@Z 0040f920 f i md3IO.obj
 0001:0000e930       ??0?$allocator@V?$basic_string@DU?$char_traits@D@std@@V?$allocator@D@2@@std@@@std@@QAE@ABV01@@Z 0040f930 f i md3IO.obj
 0001:0000e940       ?_Mynode@?$_Const_iterator@$00@?$list@V?$basic_string@DU?$char_traits@D@std@@V?$allocator@D@2@@std@@V?$allocator@V?$basic_string@DU?$char_traits@D@std@@V?$allocator@D@2@@std@@@2@@std@@QBEPAU_Node@?$_List_nod@V?$basic_string@DU?$char_traits@D@std@@V?$allocator@D@2@@std@@V?$allocator@V?$basic_string@DU?$char_traits@D@std@@V?$allocator@D@2@@std@@@2@@3@XZ 0040f940 f i md3IO.obj
 0001:0000e950       ?max_size@?$allocator@V?$basic_string@DU?$char_traits@D@std@@V?$allocator@D@2@@std@@@std@@QBEIXZ 0040f950 f i md3IO.obj
 0001:0000e960       ??$?0V?$basic_string@DU?$char_traits@D@std@@V?$allocator@D@2@@std@@@?$allocator@PAU_Node@?$_List_nod@V?$basic_string@DU?$char_traits@D@std@@V?$allocator@D@2@@std@@V?$allocator@V?$basic_string@DU?$char_traits@D@std@@V?$allocator@D@2@@std@@@2@@std@@@std@@QAE@ABV?$allocator@V?$basic_string@DU?$char_traits@D@std@@V?$allocator@D@2@@std@@@1@@Z 0040f960 f i md3IO.obj
 0001:0000e970       ??$_Allocate@U_Node@?$_List_nod@V?$basic_string@DU?$char_traits@D@std@@V?$allocator@D@2@@std@@V?$allocator@V?$basic_string@DU?$char_traits@D@std@@V?$allocator@D@2@@std@@@2@@std@@@std@@YAPAU_Node@?$_List_nod@V?$basic_string@DU?$char_traits@D@std@@V?$allocator@D@2@@std@@V?$allocator@V?$basic_string@DU?$char_traits@D@std@@V?$allocator@D@2@@std@@@2@@0@IPAU120@@Z 0040f970 f i md3IO.obj
 0001:0000e9d0       ??$_Construct@PAU_Node@?$_List_nod@V?$basic_string@DU?$char_traits@D@std@@V?$allocator@D@2@@std@@V?$allocator@V?$basic_string@DU?$char_traits@D@std@@V?$allocator@D@2@@std@@@2@@std@@PAU123@@std@@YAXPAPAU_Node@?$_List_nod@V?$basic_string@DU?$char_traits@D@std@@V?$allocator@D@2@@std@@V?$allocator@V?$basic_string@DU?$char_traits@D@std@@V?$allocator@D@2@@std@@@2@@0@ABQAU120@@Z 0040f9d0 f i md3IO.obj
 0001:0000e9f0       ??$_Destroy@PAU_Node@?$_List_nod@V?$basic_string@DU?$char_traits@D@std@@V?$allocator@D@2@@std@@V?$allocator@V?$basic_string@DU?$char_traits@D@std@@V?$allocator@D@2@@std@@@2@@std@@@std@@YAXPAPAU_Node@?$_List_nod@V?$basic_string@DU?$char_traits@D@std@@V?$allocator@D@2@@std@@V?$allocator@V?$basic_string@DU?$char_traits@D@std@@V?$allocator@D@2@@std@@@2@@0@@Z 0040f9f0 f i md3IO.obj
 0001:0000ea00       ??$?0V?$basic_string@DU?$char_traits@D@std@@V?$allocator@D@2@@std@@@?$allocator@U_Node@?$_List_nod@V?$basic_string@DU?$char_traits@D@std@@V?$allocator@D@2@@std@@V?$allocator@V?$basic_string@DU?$char_traits@D@std@@V?$allocator@D@2@@std@@@2@@std@@@std@@QAE@ABV?$allocator@V?$basic_string@DU?$char_traits@D@std@@V?$allocator@D@2@@std@@@1@@Z 0040fa00 f i md3IO.obj
 0001:0000ea10       ??$?0V?$basic_string@DU?$char_traits@D@std@@V?$allocator@D@2@@std@@@?$allocator@V_Aux_cont@std@@@std@@QAE@ABV?$allocator@V?$basic_string@DU?$char_traits@D@std@@V?$allocator@D@2@@std@@@1@@Z 0040fa10 f i md3IO.obj
 0001:0000ea20       ??E?$_Iterator@$00@?$list@V?$basic_string@DU?$char_traits@D@std@@V?$allocator@D@2@@std@@V?$allocator@V?$basic_string@DU?$char_traits@D@std@@V?$allocator@D@2@@std@@@2@@std@@QAEAAV012@XZ 0040fa20 f i md3IO.obj
 0001:0000ea60       ??9?$_Const_iterator@$00@?$list@V?$basic_string@DU?$char_traits@D@std@@V?$allocator@D@2@@std@@V?$allocator@V?$basic_string@DU?$char_traits@D@std@@V?$allocator@D@2@@std@@@2@@std@@QBE_NABV012@@Z 0040fa60 f i md3IO.obj
 0001:0000ea90       ??1?$_Container_base_aux_alloc_real@V?$allocator@V?$basic_string@DU?$char_traits@D@std@@V?$allocator@D@2@@std@@@std@@@std@@IAE@XZ 0040fa90 f i md3IO.obj
 0001:0000eaa0       ??D?$_Const_iterator@$00@?$list@V?$basic_string@DU?$char_traits@D@std@@V?$allocator@D@2@@std@@V?$allocator@V?$basic_string@DU?$char_traits@D@std@@V?$allocator@D@2@@std@@@2@@std@@QBEABV?$basic_string@DU?$char_traits@D@std@@V?$allocator@D@2@@2@XZ 0040faa0 f i md3IO.obj
 0001:0000ead0       ??0?$_Bidit@V?$basic_string@DU?$char_traits@D@std@@V?$allocator@D@2@@std@@HPBV12@ABV12@@std@@QAE@XZ 0040fad0 f i md3IO.obj
 0001:0000eae0       ?allocate@?$allocator@U_Node@?$_List_nod@V?$basic_string@DU?$char_traits@D@std@@V?$allocator@D@2@@std@@V?$allocator@V?$basic_string@DU?$char_traits@D@std@@V?$allocator@D@2@@std@@@2@@std@@@std@@QAEPAU_Node@?$_List_nod@V?$basic_string@DU?$char_traits@D@std@@V?$allocator@D@2@@std@@V?$allocator@V?$basic_string@DU?$char_traits@D@std@@V?$allocator@D@2@@std@@@2@@2@I@Z 0040fae0 f i md3IO.obj
 0001:0000eb00       ?construct@?$allocator@PAU_Node@?$_List_nod@V?$basic_string@DU?$char_traits@D@std@@V?$allocator@D@2@@std@@V?$allocator@V?$basic_string@DU?$char_traits@D@std@@V?$allocator@D@2@@std@@@2@@std@@@std@@QAEXPAPAU_Node@?$_List_nod@V?$basic_string@DU?$char_traits@D@std@@V?$allocator@D@2@@std@@V?$allocator@V?$basic_string@DU?$char_traits@D@std@@V?$allocator@D@2@@std@@@2@@2@ABQAU342@@Z 0040fb00 f i md3IO.obj
 0001:0000eb20       ?destroy@?$allocator@PAU_Node@?$_List_nod@V?$basic_string@DU?$char_traits@D@std@@V?$allocator@D@2@@std@@V?$allocator@V?$basic_string@DU?$char_traits@D@std@@V?$allocator@D@2@@std@@@2@@std@@@std@@QAEXPAPAU_Node@?$_List_nod@V?$basic_string@DU?$char_traits@D@std@@V?$allocator@D@2@@std@@V?$allocator@V?$basic_string@DU?$char_traits@D@std@@V?$allocator@D@2@@std@@@2@@2@@Z 0040fb20 f i md3IO.obj
 0001:0000eb30       ??0?$_Const_iterator@$00@?$list@V?$basic_string@DU?$char_traits@D@std@@V?$allocator@D@2@@std@@V?$allocator@V?$basic_string@DU?$char_traits@D@std@@V?$allocator@D@2@@std@@@2@@std@@QAE@PAU_Node@?$_List_nod@V?$basic_string@DU?$char_traits@D@std@@V?$allocator@D@2@@std@@V?$allocator@V?$basic_string@DU?$char_traits@D@std@@V?$allocator@D@2@@std@@@2@@2@PBV12@@Z 0040fb30 f i md3IO.obj
 0001:0000eb60       ?max_size@?$list@V?$basic_string@DU?$char_traits@D@std@@V?$allocator@D@2@@std@@V?$allocator@V?$basic_string@DU?$char_traits@D@std@@V?$allocator@D@2@@std@@@2@@std@@QBEIXZ 0040fb60 f i md3IO.obj
 0001:0000eb70       ??D?$_Iterator@$00@?$list@V?$basic_string@DU?$char_traits@D@std@@V?$allocator@D@2@@std@@V?$allocator@V?$basic_string@DU?$char_traits@D@std@@V?$allocator@D@2@@std@@@2@@std@@QBEAAV?$basic_string@DU?$char_traits@D@std@@V?$allocator@D@2@@2@XZ 0040fb70 f i md3IO.obj
 0001:0000eba0       ??1?$_List_nod@V?$basic_string@DU?$char_traits@D@std@@V?$allocator@D@2@@std@@V?$allocator@V?$basic_string@DU?$char_traits@D@std@@V?$allocator@D@2@@std@@@2@@std@@QAE@XZ 0040fba0 f i md3IO.obj
 0001:0000ebb0       ?_Buynode@?$list@V?$basic_string@DU?$char_traits@D@std@@V?$allocator@D@2@@std@@V?$allocator@V?$basic_string@DU?$char_traits@D@std@@V?$allocator@D@2@@std@@@2@@std@@IAEPAU_Node@?$_List_nod@V?$basic_string@DU?$char_traits@D@std@@V?$allocator@D@2@@std@@V?$allocator@V?$basic_string@DU?$char_traits@D@std@@V?$allocator@D@2@@std@@@2@@2@XZ 0040fbb0 f i md3IO.obj
 0001:0000ebd0       ??0?$_Iterator@$00@?$list@V?$basic_string@DU?$char_traits@D@std@@V?$allocator@D@2@@std@@V?$allocator@V?$basic_string@DU?$char_traits@D@std@@V?$allocator@D@2@@std@@@2@@std@@QAE@PAU_Node@?$_List_nod@V?$basic_string@DU?$char_traits@D@std@@V?$allocator@D@2@@std@@V?$allocator@V?$basic_string@DU?$char_traits@D@std@@V?$allocator@D@2@@std@@@2@@2@PBV12@@Z 0040fbd0 f i md3IO.obj
 0001:0000ec00       ??0?$_Const_iterator@$00@?$list@V?$basic_string@DU?$char_traits@D@std@@V?$allocator@D@2@@std@@V?$allocator@V?$basic_string@DU?$char_traits@D@std@@V?$allocator@D@2@@std@@@2@@std@@QAE@XZ 0040fc00 f i md3IO.obj
 0001:0000ec10       ??0?$_Container_base_aux_alloc_real@V?$allocator@V?$basic_string@DU?$char_traits@D@std@@V?$allocator@D@2@@std@@@std@@@std@@IAE@V?$allocator@V?$basic_string@DU?$char_traits@D@std@@V?$allocator@D@2@@std@@@1@@Z 0040fc10 f i md3IO.obj
 0001:0000ec40       ?begin@?$list@V?$basic_string@DU?$char_traits@D@std@@V?$allocator@D@2@@std@@V?$allocator@V?$basic_string@DU?$char_traits@D@std@@V?$allocator@D@2@@std@@@2@@std@@QAE?AV?$_Iterator@$00@12@XZ 0040fc40 f i md3IO.obj
 0001:0000ec60       ?end@?$list@V?$basic_string@DU?$char_traits@D@std@@V?$allocator@D@2@@std@@V?$allocator@V?$basic_string@DU?$char_traits@D@std@@V?$allocator@D@2@@std@@@2@@std@@QAE?AV?$_Iterator@$00@12@XZ 0040fc60 f i md3IO.obj
 0001:0000ec80       ??0?$_Iterator@$00@?$list@V?$basic_string@DU?$char_traits@D@std@@V?$allocator@D@2@@std@@V?$allocator@V?$basic_string@DU?$char_traits@D@std@@V?$allocator@D@2@@std@@@2@@std@@QAE@XZ 0040fc80 f i md3IO.obj
 0001:0000ec90       ??1?$_List_ptr@V?$basic_string@DU?$char_traits@D@std@@V?$allocator@D@2@@std@@V?$allocator@V?$basic_string@DU?$char_traits@D@std@@V?$allocator@D@2@@std@@@2@@std@@QAE@XZ 0040fc90 f i md3IO.obj
 0001:0000eca0       ?append@?$basic_string@DU?$char_traits@D@std@@V?$allocator@D@2@@std@@QAEAAV12@ABV12@II@Z 0040fca0 f i md3IO.obj
 0001:0000eda0       ??0?$_List_nod@V?$basic_string@DU?$char_traits@D@std@@V?$allocator@D@2@@std@@V?$allocator@V?$basic_string@DU?$char_traits@D@std@@V?$allocator@D@2@@std@@@2@@std@@IAE@V?$allocator@V?$basic_string@DU?$char_traits@D@std@@V?$allocator@D@2@@std@@@1@@Z 0040fda0 f i md3IO.obj
 0001:0000edd0       ??1_Node@?$_List_nod@V?$basic_string@DU?$char_traits@D@std@@V?$allocator@D@2@@std@@V?$allocator@V?$basic_string@DU?$char_traits@D@std@@V?$allocator@D@2@@std@@@2@@std@@QAE@XZ 0040fdd0 f i md3IO.obj
 0001:0000ee00       ??1?$_List_val@V?$basic_string@DU?$char_traits@D@std@@V?$allocator@D@2@@std@@V?$allocator@V?$basic_string@DU?$char_traits@D@std@@V?$allocator@D@2@@std@@@2@@std@@QAE@XZ 0040fe00 f i md3IO.obj
 0001:0000ee10       ?append@?$basic_string@DU?$char_traits@D@std@@V?$allocator@D@2@@std@@QAEAAV12@PBDI@Z 0040fe10 f i md3IO.obj
 0001:0000ef20       ??0?$_List_ptr@V?$basic_string@DU?$char_traits@D@std@@V?$allocator@D@2@@std@@V?$allocator@V?$basic_string@DU?$char_traits@D@std@@V?$allocator@D@2@@std@@@2@@std@@IAE@V?$allocator@V?$basic_string@DU?$char_traits@D@std@@V?$allocator@D@2@@std@@@1@@Z 0040ff20 f i md3IO.obj
 0001:0000ef50       ??_G_Node@?$_List_nod@V?$basic_string@DU?$char_traits@D@std@@V?$allocator@D@2@@std@@V?$allocator@V?$basic_string@DU?$char_traits@D@std@@V?$allocator@D@2@@std@@@2@@std@@QAEPAXI@Z 0040ff50 f i md3IO.obj
 0001:0000ef90       ?append@?$basic_string@DU?$char_traits@D@std@@V?$allocator@D@2@@std@@QAEAAV12@PBD@Z 0040ff90 f i md3IO.obj
 0001:0000efc0       ??0?$_List_val@V?$basic_string@DU?$char_traits@D@std@@V?$allocator@D@2@@std@@V?$allocator@V?$basic_string@DU?$char_traits@D@std@@V?$allocator@D@2@@std@@@2@@std@@QAE@V?$allocator@V?$basic_string@DU?$char_traits@D@std@@V?$allocator@D@2@@std@@@1@@Z 0040ffc0 f i md3IO.obj
 0001:0000eff0       ??$_Destroy@U_Node@?$_List_nod@V?$basic_string@DU?$char_traits@D@std@@V?$allocator@D@2@@std@@V?$allocator@V?$basic_string@DU?$char_traits@D@std@@V?$allocator@D@2@@std@@@2@@std@@@std@@YAXPAU_Node@?$_List_nod@V?$basic_string@DU?$char_traits@D@std@@V?$allocator@D@2@@std@@V?$allocator@V?$basic_string@DU?$char_traits@D@std@@V?$allocator@D@2@@std@@@2@@0@@Z 0040fff0 f i md3IO.obj
 0001:0000f020       ??$_Construct@V?$basic_string@DU?$char_traits@D@std@@V?$allocator@D@2@@std@@V12@@std@@YAXPAV?$basic_string@DU?$char_traits@D@std@@V?$allocator@D@2@@0@ABV10@@Z 00410020 f i md3IO.obj
 0001:0000f090       ??Y?$basic_string@DU?$char_traits@D@std@@V?$allocator@D@2@@std@@QAEAAV01@PBD@Z 00410090 f i md3IO.obj
 0001:0000f0c0       ??0?$list@V?$basic_string@DU?$char_traits@D@std@@V?$allocator@D@2@@std@@V?$allocator@V?$basic_string@DU?$char_traits@D@std@@V?$allocator@D@2@@std@@@2@@std@@QAE@XZ 004100c0 f i md3IO.obj
 0001:0000f130       ?destroy@?$allocator@U_Node@?$_List_nod@V?$basic_string@DU?$char_traits@D@std@@V?$allocator@D@2@@std@@V?$allocator@V?$basic_string@DU?$char_traits@D@std@@V?$allocator@D@2@@std@@@2@@std@@@std@@QAEXPAU_Node@?$_List_nod@V?$basic_string@DU?$char_traits@D@std@@V?$allocator@D@2@@std@@V?$allocator@V?$basic_string@DU?$char_traits@D@std@@V?$allocator@D@2@@std@@@2@@2@@Z 00410130 f i md3IO.obj
 0001:0000f160       ?_Incsize@?$list@V?$basic_string@DU?$char_traits@D@std@@V?$allocator@D@2@@std@@V?$allocator@V?$basic_string@DU?$char_traits@D@std@@V?$allocator@D@2@@std@@@2@@std@@IAEXI@Z 00410160 f i md3IO.obj
 0001:0000f200       ?construct@?$allocator@V?$basic_string@DU?$char_traits@D@std@@V?$allocator@D@2@@std@@@std@@QAEXPAV?$basic_string@DU?$char_traits@D@std@@V?$allocator@D@2@@2@ABV32@@Z 00410200 f i md3IO.obj
 0001:0000f220       ?clear@?$list@V?$basic_string@DU?$char_traits@D@std@@V?$allocator@D@2@@std@@V?$allocator@V?$basic_string@DU?$char_traits@D@std@@V?$allocator@D@2@@std@@@2@@std@@QAEXXZ 00410220 f i md3IO.obj
 0001:0000f280       ?_Tidy@?$list@V?$basic_string@DU?$char_traits@D@std@@V?$allocator@D@2@@std@@V?$allocator@V?$basic_string@DU?$char_traits@D@std@@V?$allocator@D@2@@std@@@2@@std@@IAEXXZ 00410280 f i md3IO.obj
 0001:0000f2a0       ?_Buynode@?$list@V?$basic_string@DU?$char_traits@D@std@@V?$allocator@D@2@@std@@V?$allocator@V?$basic_string@DU?$char_traits@D@std@@V?$allocator@D@2@@std@@@2@@std@@IAEPAU_Node@?$_List_nod@V?$basic_string@DU?$char_traits@D@std@@V?$allocator@D@2@@std@@V?$allocator@V?$basic_string@DU?$char_traits@D@std@@V?$allocator@D@2@@std@@@2@@2@PAU342@0ABV?$basic_string@DU?$char_traits@D@std@@V?$allocator@D@2@@2@@Z 004102a0 f i md3IO.obj
 0001:0000f340       ??1?$list@V?$basic_string@DU?$char_traits@D@std@@V?$allocator@D@2@@std@@V?$allocator@V?$basic_string@DU?$char_traits@D@std@@V?$allocator@D@2@@std@@@2@@std@@QAE@XZ 00410340 f i md3IO.obj
 0001:0000f370       ?_Insert@?$list@V?$basic_string@DU?$char_traits@D@std@@V?$allocator@D@2@@std@@V?$allocator@V?$basic_string@DU?$char_traits@D@std@@V?$allocator@D@2@@std@@@2@@std@@QAEXV?$_Const_iterator@$00@12@ABV?$basic_string@DU?$char_traits@D@std@@V?$allocator@D@2@@2@@Z 00410370 f i md3IO.obj
 0001:0000f3b0       ?push_back@?$list@V?$basic_string@DU?$char_traits@D@std@@V?$allocator@D@2@@std@@V?$allocator@V?$basic_string@DU?$char_traits@D@std@@V?$allocator@D@2@@std@@@2@@std@@QAEXABV?$basic_string@DU?$char_traits@D@std@@V?$allocator@D@2@@2@@Z 004103b0 f i md3IO.obj
 0001:0000f3f0       ?ExportThisModel@@YA_NPBDPAUgl_model@@_N@Z 004103f0 f   md3IO.obj
 0001:00010510       ??0NodeSequenceInfo@@QAE@XZ 00411510 f i md3view.obj
 0001:00010520       ?last@NodeSequenceInfo@@QAEPAVNodePositionInfo@@XZ 00411520 f i md3view.obj
 0001:00010530       ??0NodeDictionaryInfo@@QAE@PAVKeyComparatorInfo@@@Z 00411530 f i md3view.obj
 0001:00010550       ?reset_viewpos@@YAXXZ      00411550 f   md3view.obj
 0001:00010590       ??0KeyComparatorInfo@@QAE@XZ 00411590 f i md3view.obj
 0001:000105a0       ?loadmdl_original@@YA_NPADPBDPAUgl_model@@2@Z 004115a0 f   md3view.obj
 0001:000108d0       ?loadmdl@@YA_NPAD@Z        004118d0 f   md3view.obj
 0001:00010a00       ?loadmdl_totag@@YAXPADH@Z  00411a00 f   md3view.obj
 0001:00010a30       ?importNewSkin@@YAXPAD@Z   00411a30 f   md3view.obj
 0001:00010a40       ?free_mdviewdata@@YAXXZ    00411a40 f   md3view.obj
 0001:00010a80       ?freemdl_fromtag@@YAXH@Z   00411a80 f   md3view.obj
 0001:00010aa0       ??_GNodeSequenceInfo@@QAEPAXI@Z 00411aa0 f i md3view.obj
 0001:00010ac0       ??1NodeDictionaryInfo@@QAE@XZ 00411ac0 f i md3view.obj
 0001:00010ad0       ?capacity@?$vector@HV?$allocator@H@std@@@std@@QBEIXZ 00411ad0 f i md3view.obj
 0001:00010af0       ??G?$_Vector_const_iterator@HV?$allocator@H@std@@@std@@QBEHABV01@@Z 00411af0 f i md3view.obj
 0001:00010b20       ??$_Iter_random@PAHPAH@std@@YA?AUrandom_access_iterator_tag@0@ABQAH0@Z 00411b20 f i md3view.obj
 0001:00010b30       ??$_Copy_opt@PAHPAHUrandom_access_iterator_tag@std@@@std@@YAPAHPAH00Urandom_access_iterator_tag@0@U_Scalar_ptr_iterator_tag@0@U_Range_checked_iterator_tag@0@@Z 00411b30 f i md3view.obj
 0001:00010b70       ??$_Fill@PAHH@std@@YAXPAH0ABH@Z 00411b70 f i md3view.obj
 0001:00010b90       ??$_Move_cat@PAH@std@@YA?AU_Undefined_move_tag@0@ABQAH@Z 00411b90 f i md3view.obj
 0001:00010ba0       ??$_Checked_base@PAH@std@@YAPAHAAPAHU_Unchanged_checked_iterator_base_type_tag@0@@Z 00411ba0 f i md3view.obj
 0001:00010bb0       ??$_Uninit_copy@PAHPAHV?$allocator@H@std@@@std@@YAPAHPAH00AAV?$allocator@H@0@U_Scalar_ptr_iterator_tag@0@U_Range_checked_iterator_tag@0@@Z 00411bb0 f i md3view.obj
 0001:00010bf0       ??$_Copy_backward_opt@PAHPAHUrandom_access_iterator_tag@std@@@std@@YAPAHPAH00Urandom_access_iterator_tag@0@U_Scalar_ptr_iterator_tag@0@U_Range_checked_iterator_tag@0@@Z 00411bf0 f i md3view.obj
 0001:00010c20       ??$_Iter_cat@PAH@std@@YA?AUrandom_access_iterator_tag@0@ABQAH@Z 00411c20 f i md3view.obj
 0001:00010c30       ??$_Fill_n@PAHIH@std@@YAXPAHIABHU_Range_checked_iterator_tag@0@@Z 00411c30 f i md3view.obj
 0001:00010c50       ??0StrKeyComparatorInfo@@QAE@XZ 00411c50 f i md3view.obj
 0001:00010c60       ?printKey@StrKeyComparatorInfo@@UAEPADPAX@Z 00411c60 f i md3view.obj
 0001:00010c70       ??_GNodeDictionaryInfo@@QAEPAXI@Z 00411c70 f i md3view.obj
 0001:00010c90       ??$_Checked_base@PAH@std@@YAPAHAAPAH@Z 00411c90 f i md3view.obj
 0001:00010ca0       ??$unchecked_uninitialized_copy@PAHPAHV?$allocator@H@std@@@stdext@@YAPAHPAH00AAV?$allocator@H@std@@@Z 00411ca0 f i md3view.obj
 0001:00010ce0       ??$_Move_backward_opt@PAHPAHUrandom_access_iterator_tag@std@@U_Undefined_move_tag@2@@std@@YAPAHPAH00Urandom_access_iterator_tag@0@U_Undefined_move_tag@0@U_Range_checked_iterator_tag@0@@Z 00411ce0 f i md3view.obj
 0001:00010d10       ??$_Uninit_move@PAHPAHV?$allocator@H@std@@U_Undefined_move_tag@2@@std@@YAPAHPAH00AAV?$allocator@H@0@U_Undefined_move_tag@0@U_Range_checked_iterator_tag@0@@Z 00411d10 f i md3view.obj
 0001:00010d50       ??$_Fill_n@PAHIH@std@@YAXPAHIABHUrandom_access_iterator_tag@0@U_Range_checked_iterator_tag@0@@Z 00411d50 f i md3view.obj
 0001:00010d70       ?init_mdview@@YAXPBD@Z     00411d70 f   md3view.obj
 0001:00010fa0       ?shutdown_mdviewdata@@YAXXZ 00411fa0 f   md3view.obj
 0001:00010ff0       ?stat_gl_model@@YAXPAUgl_model@@PAD@Z 00411ff0 f   md3view.obj
 0001:00011410       ?stat_skeleton@@YAXPAUgl_model@@PAD@Z 00412410 f   md3view.obj
 0001:00011490       ?_Make_iter@?$vector@HV?$allocator@H@std@@@std@@QBE?AV?$_Vector_iterator@HV?$allocator@H@std@@@2@V?$_Vector_const_iterator@HV?$allocator@H@std@@@2@@Z 00412490 f i md3view.obj
 0001:000114d0       ??$unchecked_copy@PAHPAH@stdext@@YAPAHPAH00@Z 004124d0 f i md3view.obj
 0001:00011510       ??$_Ucopy@PAH@?$vector@HV?$allocator@H@std@@@std@@IAEPAHPAH00@Z 00412510 f i md3view.obj
 0001:00011550       ??$fill@PAHH@std@@YAXPAH0ABH@Z 00412550 f i md3view.obj
 0001:00011570       ??$_Unchecked_move_backward@PAHPAH@stdext@@YAPAHPAH00@Z 00412570 f i md3view.obj
 0001:000115a0       ??$_Unchecked_uninitialized_move@PAHPAHV?$allocator@H@std@@@stdext@@YAPAHPAH00AAV?$allocator@H@std@@@Z 004125a0 f i md3view.obj
 0001:000115e0       ??$unchecked_fill_n@PAHIH@stdext@@YAXPAHIABH@Z 004125e0 f i md3view.obj
 0001:00011600       ?erase@?$vector@HV?$allocator@H@std@@@std@@QAE?AV?$_Vector_iterator@HV?$allocator@H@std@@@2@V?$_Vector_const_iterator@HV?$allocator@H@std@@@2@0@Z 00412600 f i md3view.obj
 0001:00011690       ??$_Umove@PAH@?$vector@HV?$allocator@H@std@@@std@@IAEPAHPAH00@Z 00412690 f i md3view.obj
 0001:000116d0       ??$_Uninit_fill_n@PAHIHV?$allocator@H@std@@@std@@YAXPAHIABHAAV?$allocator@H@0@U_Scalar_ptr_iterator_tag@0@U_Range_checked_iterator_tag@0@@Z 004126d0 f i md3view.obj
 0001:000116f0       ?draw_stats@@YAXXZ         004126f0 f   md3view.obj
 0001:00011ea0       ?clear@?$vector@HV?$allocator@H@std@@@std@@QAEXXZ 00412ea0 f i md3view.obj
 0001:00011ee0       ??$unchecked_uninitialized_fill_n@PAHIHV?$allocator@H@std@@@stdext@@YAXPAHIABHAAV?$allocator@H@std@@@Z 00412ee0 f i md3view.obj
 0001:00011f00       ?render_mdview@@YAXXZ      00412f00 f   md3view.obj
 0001:00011f10       ?_Ufill@?$vector@HV?$allocator@H@std@@@std@@IAEPAHPAHIABH@Z 00412f10 f i md3view.obj
 0001:00011f40       ?_Insert_n@?$vector@HV?$allocator@H@std@@@std@@IAEXV?$_Vector_const_iterator@HV?$allocator@H@std@@@2@IABH@Z 00412f40 f i md3view.obj
 0001:000120f0       ??4?$vector@HV?$allocator@H@std@@@std@@QAEAAV01@ABV01@@Z 004130f0 f i md3view.obj
 0001:000121e0       ?insert@?$vector@HV?$allocator@H@std@@@std@@QAE?AV?$_Vector_iterator@HV?$allocator@H@std@@@2@V?$_Vector_const_iterator@HV?$allocator@H@std@@@2@ABH@Z 004131e0 f i md3view.obj
 0001:00012290       ?push_back@?$vector@HV?$allocator@H@std@@@std@@QAEXABH@Z 00413290 f i md3view.obj
 0001:00012300       ?ParseSequenceLockFile@@YA_NPBD@Z 00413300 f   md3view.obj
 0001:00012700       ??0NodePositionInfo@@QAE@PAVNodeSequenceInfo@@PAX@Z 00413700 f i nodedictionary.obj
 0001:00012720       ?getNextNode@NodePositionInfo@@QAEPAV1@XZ 00413720 f i nodedictionary.obj
 0001:00012730       ?getPrevNode@NodePositionInfo@@QAEPAV1@XZ 00413730 f i nodedictionary.obj
 0001:00012740       ?setElement@NodePositionInfo@@QAEXPAX@Z 00413740 f i nodedictionary.obj
 0001:00012750       ?size@NodeSequenceInfo@@QAEHXZ 00413750 f i nodedictionary.obj
 0001:00012760       ??0NodeLocatorInfo@@QAE@PAVNodeSequenceInfo@@PAX1@Z 00413760 f i nodedictionary.obj
 0001:00012780       ?key@NodeLocatorInfo@@QAEPAXXZ 00413780 f i nodedictionary.obj
 0001:00012790       ?to_int_type@?$char_traits@D@std@@SAHABD@Z 00413790 f i nodedictionary.obj
 0001:000127a0       ?eq_int_type@?$char_traits@D@std@@SA_NABH0@Z 004137a0 f i nodedictionary.obj
 0001:000127c0       ?eof@?$char_traits@D@std@@SAHXZ 004137c0 f i nodedictionary.obj
 0001:000127d0       ?_Getcvt@_Locinfo@std@@QBE?AU_Cvtvec@@XZ 004137d0 f i nodedictionary.obj
 0001:000127f0       ??0id@locale@std@@QAE@I@Z  004137f0 f i nodedictionary.obj
 0001:00012800       ??Bid@locale@std@@QAEIXZ   00413800 f i nodedictionary.obj
 0001:00012840       ?_Incref@facet@locale@std@@QAEXXZ 00413840 f i nodedictionary.obj
 0001:00012870       ?_Decref@facet@locale@std@@QAEPAV123@XZ 00413870 f i nodedictionary.obj
 0001:000128b0       ?_Register@facet@locale@std@@QAEXXZ 004138b0 f i nodedictionary.obj
 0001:000128c0       ??1facet@locale@std@@UAE@XZ 004138c0 f i nodedictionary.obj
 0001:000128d0       ??0facet@locale@std@@IAE@I@Z 004138d0 f i nodedictionary.obj
 0001:000128f0       ??0locale@std@@QAE@ABV01@@Z 004138f0 f i nodedictionary.obj
 0001:00012930       ??1locale@std@@QAE@XZ      00413930 f i nodedictionary.obj
 0001:00012980       ?_Getfacet@locale@std@@QBEPBVfacet@12@I@Z 00413980 f i nodedictionary.obj
 0001:000129c0       ??_Gfacet@locale@std@@UAEPAXI@Z 004139c0 f i nodedictionary.obj
 0001:000129c0       ??_Efacet@locale@std@@UAEPAXI@Z 004139c0 f i nodedictionary.obj
 0001:000129e0       ?rdstate@ios_base@std@@QBEHXZ 004139e0 f i nodedictionary.obj
 0001:000129f0       ?good@ios_base@std@@QBE_NXZ 004139f0 f i nodedictionary.obj
 0001:00012a00       ?fail@ios_base@std@@QBE_NXZ 00413a00 f i nodedictionary.obj
 0001:00012a10       ?flags@ios_base@std@@QBEHXZ 00413a10 f i nodedictionary.obj
 0001:00012a20       ?width@ios_base@std@@QBEHXZ 00413a20 f i nodedictionary.obj
 0001:00012a30       ?width@ios_base@std@@QAEHH@Z 00413a30 f i nodedictionary.obj
 0001:00012a40       ?getloc@ios_base@std@@QBE?AVlocale@2@XZ 00413a40 f i nodedictionary.obj
 0001:00012a80       ?insert@NodeDictionaryInfo@@QAEXPAX0@Z 00413a80 f   nodedictionary.obj
 0001:00012ac0       ?insertReplace@NodeDictionaryInfo@@QAEPAXPAX0@Z 00413ac0 f   nodedictionary.obj
 0001:00012b40       ?find@NodeDictionaryInfo@@QAEPAXPAX@Z 00413b40 f   nodedictionary.obj
 0001:00012b90       ?remove@NodeDictionaryInfo@@QAEPAXPAX@Z 00413b90 f   nodedictionary.obj
 0001:00012bd0       ?replace@NodeDictionaryInfo@@QAEPAXPAX0@Z 00413bd0 f   nodedictionary.obj
 0001:00012c20       ??6?$basic_ostream@DU?$char_traits@D@std@@@std@@QAEAAV01@P6AAAV01@AAV01@@Z@Z 00413c20 f i nodedictionary.obj
 0001:00012c30       ?rdbuf@?$basic_ios@DU?$char_traits@D@std@@@std@@QBEPAV?$basic_streambuf@DU?$char_traits@D@std@@@2@XZ 00413c30 f i nodedictionary.obj
 0001:00012c40       ?fill@?$basic_ios@DU?$char_traits@D@std@@@std@@QBEDXZ 00413c40 f i nodedictionary.obj
 0001:00012c50       ?pubsync@?$basic_streambuf@DU?$char_traits@D@std@@@std@@QAEHXZ 00413c50 f i nodedictionary.obj
 0001:00012c60       ?_Unlock@?$basic_streambuf@DU?$char_traits@D@std@@@std@@QAEXXZ 00413c60 f i nodedictionary.obj
 0001:00012c70       ?_Pnavail@?$basic_streambuf@DU?$char_traits@D@std@@@std@@IBEHXZ 00413c70 f i nodedictionary.obj
 0001:00012c90       ??Bsentry@?$basic_ostream@DU?$char_traits@D@std@@@std@@QBE_NXZ 00413c90 f i nodedictionary.obj
 0001:00012ca0       ?put@?$num_put@DV?$ostreambuf_iterator@DU?$char_traits@D@std@@@std@@@std@@QBE?AV?$ostreambuf_iterator@DU?$char_traits@D@std@@@2@V32@AAVios_base@2@DJ@Z 00413ca0 f i nodedictionary.obj
 0001:00012cd0       ?put@?$num_put@DV?$ostreambuf_iterator@DU?$char_traits@D@std@@@std@@@std@@QBE?AV?$ostreambuf_iterator@DU?$char_traits@D@std@@@2@V32@AAVios_base@2@DPBX@Z 00413cd0 f i nodedictionary.obj
 0001:00012d00       ??0?$ostreambuf_iterator@DU?$char_traits@D@std@@@std@@QAE@PAV?$basic_streambuf@DU?$char_traits@D@std@@@1@@Z 00413d00 f i nodedictionary.obj
 0001:00012d10       ?failed@?$ostreambuf_iterator@DU?$char_traits@D@std@@@std@@QBE_NXZ 00413d10 f i nodedictionary.obj
 0001:00012d20       ?tie@?$basic_ios@DU?$char_traits@D@std@@@std@@QBEPAV?$basic_ostream@DU?$char_traits@D@std@@@2@XZ 00413d20 f i nodedictionary.obj
 0001:00012d30       ?_Lock@?$basic_streambuf@DU?$char_traits@D@std@@@std@@QAEXXZ 00413d30 f i nodedictionary.obj
 0001:00012d40       ?_Pninc@?$basic_streambuf@DU?$char_traits@D@std@@@std@@IAEPADXZ 00413d40 f i nodedictionary.obj
 0001:00012d50       ??0_Sentry_base@?$basic_ostream@DU?$char_traits@D@std@@@std@@QAE@AAV12@@Z 00413d50 f i nodedictionary.obj
 0001:00012d80       ??1_Sentry_base@?$basic_ostream@DU?$char_traits@D@std@@@std@@QAE@XZ 00413d80 f i nodedictionary.obj
 0001:00012da0       ?sputn@?$basic_streambuf@DU?$char_traits@D@std@@@std@@QAEHPBDH@Z 00413da0 f i nodedictionary.obj
 0001:00012db0       ?_Init@?$num_put@DV?$ostreambuf_iterator@DU?$char_traits@D@std@@@std@@@std@@IAEXABV_Locinfo@2@@Z 00413db0 f i nodedictionary.obj
 0001:00012dd0       ?sputc@?$basic_streambuf@DU?$char_traits@D@std@@@std@@QAEHD@Z 00413dd0 f i nodedictionary.obj
 0001:00012e10       ??0?$num_put@DV?$ostreambuf_iterator@DU?$char_traits@D@std@@@std@@@std@@QAE@ABV_Locinfo@1@I@Z 00413e10 f i nodedictionary.obj
 0001:00012e40       ?assign@?$char_traits@D@std@@SAPADPADID@Z 00413e40 f i nodedictionary.obj
 0001:00012e60       ?_Getlconv@_Locinfo@std@@QBEPBUlconv@@XZ 00413e60 f i nodedictionary.obj
 0001:00012e70       ?_Getfalse@_Locinfo@std@@QBEPBDXZ 00413e70 f i nodedictionary.obj
 0001:00012e80       ?_Gettrue@_Locinfo@std@@QBEPBDXZ 00413e80 f i nodedictionary.obj
 0001:00012e90       ?precision@ios_base@std@@QBEHXZ 00413e90 f i nodedictionary.obj
 0001:00012ea0       ??1?$num_put@DV?$ostreambuf_iterator@DU?$char_traits@D@std@@@std@@@std@@MAE@XZ 00413ea0 f i nodedictionary.obj
 0001:00012eb0       ??_E?$num_put@DV?$ostreambuf_iterator@DU?$char_traits@D@std@@@std@@@std@@MAEPAXI@Z 00413eb0 f i nodedictionary.obj
 0001:00012eb0       ??_G?$num_put@DV?$ostreambuf_iterator@DU?$char_traits@D@std@@@std@@@std@@MAEPAXI@Z 00413eb0 f i nodedictionary.obj
 0001:00012ed0       ?_Ffmt@?$num_put@DV?$ostreambuf_iterator@DU?$char_traits@D@std@@@std@@@std@@ABAPADPADDH@Z 00413ed0 f i nodedictionary.obj
 0001:00012f50       ?_Ifmt@?$num_put@DV?$ostreambuf_iterator@DU?$char_traits@D@std@@@std@@@std@@ABAPADPADPBDH@Z 00413f50 f i nodedictionary.obj
 0001:00012fe0       ??A?$basic_string@DU?$char_traits@D@std@@V?$allocator@D@2@@std@@QAEAADI@Z 00413fe0 f i nodedictionary.obj
 0001:00013010       ??D?$ostreambuf_iterator@DU?$char_traits@D@std@@@std@@QAEAAV01@XZ 00414010 f i nodedictionary.obj
 0001:00013020       ??E?$ostreambuf_iterator@DU?$char_traits@D@std@@@std@@QAEAAV01@XZ 00414020 f i nodedictionary.obj
 0001:00013030       ?decimal_point@?$numpunct@D@std@@QBEDXZ 00414030 f i nodedictionary.obj
 0001:00013040       ?thousands_sep@?$numpunct@D@std@@QBEDXZ 00414040 f i nodedictionary.obj
 0001:00013050       ?_Tidy@?$numpunct@D@std@@AAEXXZ 00414050 f i nodedictionary.obj
 0001:00013080       ?_Chassign@?$basic_string@DU?$char_traits@D@std@@V?$allocator@D@2@@std@@IAEXIID@Z 00414080 f i nodedictionary.obj
 0001:000130e0       ??$_Maklocchr@D@std@@YADDPADABU_Cvtvec@@@Z 004140e0 f i nodedictionary.obj
 0001:000130f0       ??$_Maklocstr@D@std@@YAPADPBDPADABU_Cvtvec@@@Z 004140f0 f i nodedictionary.obj
 0001:00013130       ??4?$ostreambuf_iterator@DU?$char_traits@D@std@@@std@@QAEAAV01@D@Z 00414130 f i nodedictionary.obj
 0001:00013180       ?_Init@?$numpunct@D@std@@IAEXABV_Locinfo@2@_N@Z 00414180 f i nodedictionary.obj
 0001:000132f0       ?_Put@?$num_put@DV?$ostreambuf_iterator@DU?$char_traits@D@std@@@std@@@std@@ABA?AV?$ostreambuf_iterator@DU?$char_traits@D@std@@@2@V32@PBDI@Z 004142f0 f i nodedictionary.obj
 0001:00013360       ?_Rep@?$num_put@DV?$ostreambuf_iterator@DU?$char_traits@D@std@@@std@@@std@@ABA?AV?$ostreambuf_iterator@DU?$char_traits@D@std@@@2@V32@DI@Z 00414360 f i nodedictionary.obj
 0001:000133d0       ?_Putc@?$num_put@DV?$ostreambuf_iterator@DU?$char_traits@D@std@@@std@@@std@@ABA?AV?$ostreambuf_iterator@DU?$char_traits@D@std@@@2@V32@PBDI@Z 004143d0 f i nodedictionary.obj
 0001:00013440       ?_Putgrouped@?$num_put@DV?$ostreambuf_iterator@DU?$char_traits@D@std@@@std@@@std@@ABA?AV?$ostreambuf_iterator@DU?$char_traits@D@std@@@2@V32@PBDID@Z 00414440 f i nodedictionary.obj
 0001:000134e0       ??0?$numpunct@D@std@@QAE@ABV_Locinfo@1@I_N@Z 004144e0 f i nodedictionary.obj
 0001:00013550       ?do_decimal_point@?$numpunct@D@std@@MBEDXZ 00414550 f i nodedictionary.obj
 0001:00013560       ?do_thousands_sep@?$numpunct@D@std@@MBEDXZ 00414560 f i nodedictionary.obj
 0001:00013570       ??1?$numpunct@D@std@@MAE@XZ 00414570 f i nodedictionary.obj
 0001:000135a0       ??_E?$numpunct@D@std@@MAEPAXI@Z 004145a0 f i nodedictionary.obj
 0001:000135a0       ??_G?$numpunct@D@std@@MAEPAXI@Z 004145a0 f i nodedictionary.obj
 0001:000135f0       ?falsename@?$numpunct@D@std@@QBE?AV?$basic_string@DU?$char_traits@D@std@@V?$allocator@D@2@@2@XZ 004145f0 f i nodedictionary.obj
 0001:00013610       ?truename@?$numpunct@D@std@@QBE?AV?$basic_string@DU?$char_traits@D@std@@V?$allocator@D@2@@2@XZ 00414610 f i nodedictionary.obj
 0001:00013630       ?append@?$basic_string@DU?$char_traits@D@std@@V?$allocator@D@2@@std@@QAEAAV12@ID@Z 00414630 f i nodedictionary.obj
 0001:000136e0       ?insert@?$basic_string@DU?$char_traits@D@std@@V?$allocator@D@2@@std@@QAEAAV12@IID@Z 004146e0 f i nodedictionary.obj
 0001:000137e0       ?grouping@?$numpunct@D@std@@QBE?AV?$basic_string@DU?$char_traits@D@std@@V?$allocator@D@2@@2@XZ 004147e0 f i nodedictionary.obj
 0001:00013800       ??1runtime_error@std@@UAE@XZ 00414800 f i nodedictionary.obj
 0001:00013840       ?what@runtime_error@std@@UBEPBDXZ 00414840 f i nodedictionary.obj
 0001:00013850       ??_Gruntime_error@std@@UAEPAXI@Z 00414850 f i nodedictionary.obj
 0001:00013850       ??_Eruntime_error@std@@UAEPAXI@Z 00414850 f i nodedictionary.obj
 0001:000138a0       ??0_Locinfo@std@@QAE@ABV?$basic_string@DU?$char_traits@D@std@@V?$allocator@D@2@@1@@Z 004148a0 f i nodedictionary.obj
 0001:00013930       ??1_Locinfo@std@@QAE@XZ    00414930 f i nodedictionary.obj
 0001:00013a10       ??0runtime_error@std@@QAE@ABV?$basic_string@DU?$char_traits@D@std@@V?$allocator@D@2@@1@@Z 00414a10 f i nodedictionary.obj
 0001:00013a80       ?name@locale@std@@QBE?AV?$basic_string@DU?$char_traits@D@std@@V?$allocator@D@2@@2@XZ 00414a80 f i nodedictionary.obj
 0001:00013ab0       ??0failure@ios_base@std@@QAE@ABV?$basic_string@DU?$char_traits@D@std@@V?$allocator@D@2@@2@@Z 00414ab0 f i nodedictionary.obj
 0001:00013ad0       ??1failure@ios_base@std@@UAE@XZ 00414ad0 f i nodedictionary.obj
 0001:00013b10       ??_Efailure@ios_base@std@@UAEPAXI@Z 00414b10 f i nodedictionary.obj
 0001:00013b10       ??_Gfailure@ios_base@std@@UAEPAXI@Z 00414b10 f i nodedictionary.obj
 0001:00013b60       ?do_grouping@?$numpunct@D@std@@MBE?AV?$basic_string@DU?$char_traits@D@std@@V?$allocator@D@2@@2@XZ 00414b60 f i nodedictionary.obj
 0001:00013bb0       ?do_falsename@?$numpunct@D@std@@MBE?AV?$basic_string@DU?$char_traits@D@std@@V?$allocator@D@2@@2@XZ 00414bb0 f i nodedictionary.obj
 0001:00013c00       ?do_truename@?$numpunct@D@std@@MBE?AV?$basic_string@DU?$char_traits@D@std@@V?$allocator@D@2@@2@XZ 00414c00 f i nodedictionary.obj
 0001:00013c50       ?_Getcat@?$num_put@DV?$ostreambuf_iterator@DU?$char_traits@D@std@@@std@@@std@@SAIPAPBVfacet@locale@2@PBV42@@Z 00414c50 f i nodedictionary.obj
 0001:00013d60       ?_Getcat@?$numpunct@D@std@@SAIPAPBVfacet@locale@2@PBV42@@Z 00414d60 f i nodedictionary.obj
 0001:00013e70       ?clear@ios_base@std@@QAEXH_N@Z 00414e70 f i nodedictionary.obj
 0001:00013fa0       ??0runtime_error@std@@QAE@ABV01@@Z 00414fa0 f i nodedictionary.obj
 0001:00014020       ??0failure@ios_base@std@@QAE@ABV012@@Z 00415020 f i nodedictionary.obj
 0001:00014040       ?clear@?$basic_ios@DU?$char_traits@D@std@@@std@@QAEXH_N@Z 00415040 f i nodedictionary.obj
 0001:00014060       ??$use_facet@V?$num_put@DV?$ostreambuf_iterator@DU?$char_traits@D@std@@@std@@@std@@@std@@YAABV?$num_put@DV?$ostreambuf_iterator@DU?$char_traits@D@std@@@std@@@0@ABVlocale@0@@Z 00415060 f i nodedictionary.obj
 0001:000141b0       ??$use_facet@V?$numpunct@D@std@@@std@@YAABV?$numpunct@D@0@ABVlocale@0@@Z 004151b0 f i nodedictionary.obj
 0001:00014300       ?setstate@?$basic_ios@DU?$char_traits@D@std@@@std@@QAEXH_N@Z 00415300 f i nodedictionary.obj
 0001:00014330       ?do_put@?$num_put@DV?$ostreambuf_iterator@DU?$char_traits@D@std@@@std@@@std@@MBE?AV?$ostreambuf_iterator@DU?$char_traits@D@std@@@2@V32@AAVios_base@2@D_N@Z 00415330 f i nodedictionary.obj
 0001:00014550       ?_Fput@?$num_put@DV?$ostreambuf_iterator@DU?$char_traits@D@std@@@std@@@std@@ABA?AV?$ostreambuf_iterator@DU?$char_traits@D@std@@@2@V32@AAVios_base@2@DPBDIIII@Z 00415550 f i nodedictionary.obj
 0001:00014be0       ?_Iput@?$num_put@DV?$ostreambuf_iterator@DU?$char_traits@D@std@@@std@@@std@@ABA?AV?$ostreambuf_iterator@DU?$char_traits@D@std@@@2@V32@AAVios_base@2@DPADI@Z 00415be0 f i nodedictionary.obj
 0001:00014ed0       ?flush@?$basic_ostream@DU?$char_traits@D@std@@@std@@QAEAAV12@XZ 00415ed0 f i nodedictionary.obj
 0001:00014f20       ??0sentry@?$basic_ostream@DU?$char_traits@D@std@@@std@@QAE@AAV12@@Z 00415f20 f i nodedictionary.obj
 0001:00014fb0       ?do_put@?$num_put@DV?$ostreambuf_iterator@DU?$char_traits@D@std@@@std@@@std@@MBE?AV?$ostreambuf_iterator@DU?$char_traits@D@std@@@2@V32@AAVios_base@2@DJ@Z 00415fb0 f i nodedictionary.obj
 0001:00015030       ?do_put@?$num_put@DV?$ostreambuf_iterator@DU?$char_traits@D@std@@@std@@@std@@MBE?AV?$ostreambuf_iterator@DU?$char_traits@D@std@@@2@V32@AAVios_base@2@DK@Z 00416030 f i nodedictionary.obj
 0001:000150b0       ?do_put@?$num_put@DV?$ostreambuf_iterator@DU?$char_traits@D@std@@@std@@@std@@MBE?AV?$ostreambuf_iterator@DU?$char_traits@D@std@@@2@V32@AAVios_base@2@D_J@Z 004160b0 f i nodedictionary.obj
 0001:00015140       ?do_put@?$num_put@DV?$ostreambuf_iterator@DU?$char_traits@D@std@@@std@@@std@@MBE?AV?$ostreambuf_iterator@DU?$char_traits@D@std@@@2@V32@AAVios_base@2@D_K@Z 00416140 f i nodedictionary.obj
 0001:000151d0       ?do_put@?$num_put@DV?$ostreambuf_iterator@DU?$char_traits@D@std@@@std@@@std@@MBE?AV?$ostreambuf_iterator@DU?$char_traits@D@std@@@2@V32@AAVios_base@2@DN@Z 004161d0 f i nodedictionary.obj
 0001:000153c0       ?do_put@?$num_put@DV?$ostreambuf_iterator@DU?$char_traits@D@std@@@std@@@std@@MBE?AV?$ostreambuf_iterator@DU?$char_traits@D@std@@@2@V32@AAVios_base@2@DO@Z 004163c0 f i nodedictionary.obj
 0001:000155a0       ?do_put@?$num_put@DV?$ostreambuf_iterator@DU?$char_traits@D@std@@@std@@@std@@MBE?AV?$ostreambuf_iterator@DU?$char_traits@D@std@@@2@V32@AAVios_base@2@DPBX@Z 004165a0 f i nodedictionary.obj
 0001:00015610       ?_Osfx@?$basic_ostream@DU?$char_traits@D@std@@@std@@QAEXXZ 00416610 f i nodedictionary.obj
 0001:00015670       ??1sentry@?$basic_ostream@DU?$char_traits@D@std@@@std@@QAE@XZ 00416670 f i nodedictionary.obj
 0001:000156e0       ??$?6U?$char_traits@D@std@@@std@@YAAAV?$basic_ostream@DU?$char_traits@D@std@@@0@AAV10@PBD@Z 004166e0 f i nodedictionary.obj
 0001:000158f0       ??6?$basic_ostream@DU?$char_traits@D@std@@@std@@QAEAAV01@H@Z 004168f0 f i nodedictionary.obj
 0001:00015a40       ??6?$basic_ostream@DU?$char_traits@D@std@@@std@@QAEAAV01@PBX@Z 00416a40 f i nodedictionary.obj
 0001:00015b90       ?put@?$basic_ostream@DU?$char_traits@D@std@@@std@@QAEAAV12@D@Z 00416b90 f i nodedictionary.obj
 0001:00015cc0       ?endl@std@@YAAAV?$basic_ostream@DU?$char_traits@D@std@@@1@AAV21@@Z 00416cc0 f i nodedictionary.obj
 0001:00015ce0       ?dumpDictionary@NodeDictionaryInfo@@QAEXXZ 00416ce0 f   nodedictionary.obj
 0001:00015e20       ?setNextNode@NodePositionInfo@@QAEXPAV1@@Z 00416e20 f i nodesequence.obj
 0001:00015e30       ?setPrevNode@NodePositionInfo@@QAEXPAV1@@Z 00416e30 f i nodesequence.obj
 0001:00015e40       ?equal@StrKeyComparatorInfo@@UAEHPAX0@Z 00416e40 f   nodesequence.obj
 0001:00015e90       ?replace@NodeSequenceInfo@@QAEPAXPAVNodePositionInfo@@PAX@Z 00416e90 f   nodesequence.obj
 0001:00015eb0       ?swap@NodeSequenceInfo@@QAEXPAVNodePositionInfo@@0@Z 00416eb0 f   nodesequence.obj
 0001:00015ed0       ?before@NodeSequenceInfo@@QAEPAVNodePositionInfo@@PAV2@@Z 00416ed0 f   nodesequence.obj
 0001:00015ee0       ?after@NodeSequenceInfo@@QAEPAVNodePositionInfo@@PAV2@@Z 00416ee0 f   nodesequence.obj
 0001:00015ef0       ?insertFirst@NodeSequenceInfo@@QAEPAVNodePositionInfo@@PAV2@@Z 00416ef0 f   nodesequence.obj
 0001:00015f20       ?insertLast@NodeSequenceInfo@@QAEPAVNodePositionInfo@@PAV2@@Z 00416f20 f   nodesequence.obj
 0001:00015f50       ?removeFirst@NodeSequenceInfo@@QAEPAXXZ 00416f50 f   nodesequence.obj
 0001:00015f80       ?removeLast@NodeSequenceInfo@@QAEPAXXZ 00416f80 f   nodesequence.obj
 0001:00015fc0       ?insertFirst@NodeSequenceInfo@@QAEPAVNodePositionInfo@@PAX@Z 00416fc0 f   nodesequence.obj
 0001:00016000       ?insertLast@NodeSequenceInfo@@QAEPAVNodePositionInfo@@PAX@Z 00417000 f   nodesequence.obj
 0001:00016040       ?insertAfter@NodeSequenceInfo@@QAEPAVNodePositionInfo@@PAV2@PAX@Z 00417040 f   nodesequence.obj
 0001:000160a0       ?insertBefore@NodeSequenceInfo@@QAEPAVNodePositionInfo@@PAV2@PAX@Z 004170a0 f   nodesequence.obj
 0001:00016100       ?remove@NodeSequenceInfo@@QAEPAXPAVNodePositionInfo@@@Z 00417100 f   nodesequence.obj
 0001:00016150       ?removeAfter@NodeSequenceInfo@@QAEPAXPAVNodePositionInfo@@@Z 00417150 f   nodesequence.obj
 0001:000161a0       ?removeBefore@NodeSequenceInfo@@QAEPAXPAVNodePositionInfo@@@Z 004171a0 f   nodesequence.obj
 0001:000161f0       ??1NodeSequenceInfo@@QAE@XZ 004171f0 f   nodesequence.obj
 0001:00016220       ?dumpSequence@NodeSequenceInfo@@QAEXXZ 00417220 f   nodesequence.obj
 0001:00016340       ?va@@YAPADPADZZ            00417340 f   oddbits.obj
 0001:00016380       ?ErrorBox@@YAXPBD@Z        00417380 f   oddbits.obj
 0001:000163a0       ?InfoBox@@YAXPBD@Z         004173a0 f   oddbits.obj
 0001:000163c0       ?WarningBox@@YAXPBD@Z      004173c0 f   oddbits.obj
 0001:000163e0       ?FileExists@@YA_NPBD@Z     004173e0 f   oddbits.obj
 0001:00016410       ?scGetTempPath@@YAPADXZ    00417410 f   oddbits.obj
 0001:00016490       ?filesize@@YAJPAU_iobuf@@@Z 00417490 f   oddbits.obj
 0001:000164d0       ?LoadFile@@YAHPBDPAPAX@Z   004174d0 f   oddbits.obj
 0001:00016560       ?Filename_WithoutPath@@YAPADPBD@Z 00417560 f   oddbits.obj
 0001:000165a0       ?Filename_WithoutExt@@YAPADPBD@Z 004175a0 f   oddbits.obj
 0001:000165f0       ?Filename_PathOnly@@YAPADPBD@Z 004175f0 f   oddbits.obj
 0001:00016650       ?Filename_ExtOnly@@YAPADPBD@Z 00417650 f   oddbits.obj
 0001:00016680       ?String_ToLower@@YAPADPBD@Z 00417680 f   oddbits.obj
 0001:000166b0       ?String_ToUpper@@YAPADPBD@Z 004176b0 f   oddbits.obj
 0001:000166e0       ?String_Neaten@@YAPADPBD@Z 004176e0 f   oddbits.obj
 0001:00016770       ?String_NeatenEveryWord@@YAPADPBD@Z 00417770 f   oddbits.obj
 0001:00016820       ?String_Replace@@YAPADPAD00H@Z 00417820 f   oddbits.obj
 0001:00016990       ?String_LoseWhitespace@@YAPADPAD@Z 00417990 f   oddbits.obj
 0001:000169e0       ?String_LoseLeadingWhitespace@@YAPADPAD@Z 004179e0 f   oddbits.obj
 0001:00016a30       ?String_LoseTrailingWhitespace@@YAPADPAD@Z 00417a30 f   oddbits.obj
 0001:00016ab0       ?String_EnsureTrailingChar@@YAPADPADD@Z 00417ab0 f   oddbits.obj
 0001:00016b30       ?String_LoseTrailingChar@@YAPADPADD@Z 00417b30 f   oddbits.obj
 0001:00016b90       ?String_LoseComment@@YAPADPAD@Z 00417b90 f   oddbits.obj
 0001:00016bd0       ?String_LoseNewline@@YAPADPAD@Z 00417bd0 f   oddbits.obj
 0001:00016c10       ?String_EnsureMinLength@@YAPADPBDH@Z 00417c10 f   oddbits.obj
 0001:00016c90       ?RunningNT@@YAHXZ          00417c90 f   oddbits.obj
 0001:00016ca0       ?SystemErrorBox@@YAXK@Z    00417ca0 f   oddbits.obj
 0001:00016cf0       ?String_GetField@@YAPADPAD@Z 00417cf0 f   oddbits.obj
 0001:00016d50       ?String_LoseField@@YAPADPAD@Z 00417d50 f   oddbits.obj
 0001:00016db0       ?clean@@YAXAAPAD@Z         00417db0 f   Script.obj
 0001:00016ec0       ?getstring@@YAPADAAPAD@Z   00417ec0 f   Script.obj
 0001:00016f20       ?CreateSurface@@YAPAVSurface@@PAD@Z 00417f20 f   Script.obj
 0001:00016f30       ?AddParam@RenderPass@@QAEXPAD0@Z 00417f30 f   Script.obj
 0001:00017900       ?AddParam@Surface@@QAEXPAD0@Z 00418900 f   Script.obj
 0001:000181a0       ?AddPass@Surface@@QAEXAAPAVRenderPass@@@Z 004191a0 f   Script.obj
 0001:000181b0       ?getline@@YAPADAAPAU_iobuf@@@Z 004191b0 f   Script.obj
 0001:00018230       ?LoadScript@@YA_NPAD@Z     00419230 f   Script.obj
 0001:00018500       ?writeTGA@@YAXPADPAEHH@Z   00419500 f   targa.obj
 0001:000185f0       ?loadTGA@@YA_NPADPAPAEPAI22@Z 004195f0 f   targa.obj
 0001:00018b00       ?Text_EnsureCreated@@YAXXZ 00419b00 f   TEXT.obj
 0001:00018c20       ?Text_Destroy@@YAXXZ       00419c20 f   TEXT.obj
 0001:00018c50       ?Text_Display@@YAXPBDQAMEEE@Z 00419c50 f   TEXT.obj
 0001:00018d10       ?Text_DisplayFlat@@YAHPBDHHEEE_N@Z 00419d10 f   TEXT.obj
 0001:00018ed0       ?OnceOnly_GLVarsInit@@YAXXZ 00419ed0 f   texture_res.obj
 0001:000195d0       ?TextureList_GetMip@@YAHXZ 0041a5d0 f   texture_res.obj
 0001:000195e0       ?bindTextureFiltered@@YAXXZ 0041a5e0 f   texture_res.obj
 0001:00019640       ?bindTextureUnFiltered@@YAXXZ 0041a640 f   texture_res.obj
 0001:000196a0       ?bindTextureFast@@YAXXZ    0041a6a0 f   texture_res.obj
 0001:00019700       ?setTextureToFilter@@YAXXZ 0041a700 f   texture_res.obj
 0001:00019730       ?setTextureFilter@@YAXXZ   0041a730 f   texture_res.obj
 0001:00019770       ?searchForPath@@YA_NPBDPAD@Z 0041a770 f   texture_res.obj
 0001:00019b50       ?LoadTexture@@YAXPADPAUTextureGL@@@Z 0041ab50 f   texture_res.obj
 0001:00019bd0       ?freeTexture@@YAXI@Z       0041abd0 f   texture_res.obj
 0001:00019c50       ?freeTextureRes@@YAXXZ     0041ac50 f   texture_res.obj
 0001:00019cc0       ?_Nextnode@?$list@PAXV?$allocator@PAX@std@@@std@@KAAAPAU_Node@?$_List_nod@PAXV?$allocator@PAX@std@@@2@PAU342@@Z 0041acc0 f i texture_res.obj
 0001:00019cd0       ??0?$allocator@PAX@std@@QAE@XZ 0041acd0 f i texture_res.obj
 0001:00019ce0       ??E?$_Const_iterator@$00@?$list@PAXV?$allocator@PAX@std@@@std@@QAEAAV012@XZ 0041ace0 f i texture_res.obj
 0001:00019d20       ??8?$_Const_iterator@$00@?$list@PAXV?$allocator@PAX@std@@@std@@QBE_NABV012@@Z 0041ad20 f i texture_res.obj
 0001:00019d50       ?_Prevnode@?$list@PAXV?$allocator@PAX@std@@@std@@KAAAPAU_Node@?$_List_nod@PAXV?$allocator@PAX@std@@@2@PAU342@@Z 0041ad50 f i texture_res.obj
 0001:00019d60       ?_Myval@?$list@PAXV?$allocator@PAX@std@@@std@@KAAAPAXPAU_Node@?$_List_nod@PAXV?$allocator@PAX@std@@@2@@Z 0041ad60 f i texture_res.obj
 0001:00019d70       ??0?$allocator@PAX@std@@QAE@ABV01@@Z 0041ad70 f i texture_res.obj
 0001:00019d80       ?deallocate@?$allocator@U_Node@?$_List_nod@PAXV?$allocator@PAX@std@@@std@@@std@@QAEXPAU_Node@?$_List_nod@PAXV?$allocator@PAX@std@@@2@I@Z 0041ad80 f i texture_res.obj
 0001:00019d90       ?_Mynode@?$_Const_iterator@$00@?$list@PAXV?$allocator@PAX@std@@@std@@QBEPAU_Node@?$_List_nod@PAXV?$allocator@PAX@std@@@3@XZ 0041ad90 f i texture_res.obj
 0001:00019da0       ??0?$_Iterator_with_base@Ubidirectional_iterator_tag@std@@PAXHPBQAXABQAXV_Iterator_base_aux@2@@std@@QAE@XZ 0041ada0 f i texture_res.obj
 0001:00019db0       ?max_size@?$allocator@PAX@std@@QBEIXZ 0041adb0 f i texture_res.obj
 0001:00019dc0       ??$?0PAX@?$allocator@PAU_Node@?$_List_nod@PAXV?$allocator@PAX@std@@@std@@@std@@QAE@ABV?$allocator@PAX@1@@Z 0041adc0 f i texture_res.obj
 0001:00019dd0       ??$_Allocate@U_Node@?$_List_nod@PAXV?$allocator@PAX@std@@@std@@@std@@YAPAU_Node@?$_List_nod@PAXV?$allocator@PAX@std@@@0@IPAU120@@Z 0041add0 f i texture_res.obj
 0001:00019e30       ??$_Construct@PAU_Node@?$_List_nod@PAXV?$allocator@PAX@std@@@std@@PAU123@@std@@YAXPAPAU_Node@?$_List_nod@PAXV?$allocator@PAX@std@@@0@ABQAU120@@Z 0041ae30 f i texture_res.obj
 0001:00019e50       ??$_Destroy@PAU_Node@?$_List_nod@PAXV?$allocator@PAX@std@@@std@@@std@@YAXPAPAU_Node@?$_List_nod@PAXV?$allocator@PAX@std@@@0@@Z 0041ae50 f i texture_res.obj
 0001:00019e60       ??$?0PAX@?$allocator@U_Node@?$_List_nod@PAXV?$allocator@PAX@std@@@std@@@std@@QAE@ABV?$allocator@PAX@1@@Z 0041ae60 f i texture_res.obj
 0001:00019e70       ??$_Construct@PAXPAX@std@@YAXPAPAXABQAX@Z 0041ae70 f i texture_res.obj
 0001:00019e90       ??$_Destroy@U_Node@?$_List_nod@PAXV?$allocator@PAX@std@@@std@@@std@@YAXPAU_Node@?$_List_nod@PAXV?$allocator@PAX@std@@@0@@Z 0041ae90 f i texture_res.obj
 0001:00019ea0       ??$?0PAX@?$allocator@V_Aux_cont@std@@@std@@QAE@ABV?$allocator@PAX@1@@Z 0041aea0 f i texture_res.obj
 0001:0001a540       ?TextureList_ReMip@@YAXH@Z 0041b540 f   texture_res.obj
 0001:0001a610       ?loadTexture@@YAIPBD@Z     0041b610 f   texture_res.obj
 0001:0001a790       ?refreshTextureRes@@YAXXZ  0041b790 f   texture_res.obj
 0001:0001a870       ??E?$_Iterator@$00@?$list@PAXV?$allocator@PAX@std@@@std@@QAEAAV012@XZ 0041b870 f i texture_res.obj
 0001:0001a8b0       ??9?$_Const_iterator@$00@?$list@PAXV?$allocator@PAX@std@@@std@@QBE_NABV012@@Z 0041b8b0 f i texture_res.obj
 0001:0001a8e0       ??1?$_Container_base_aux_alloc_real@V?$allocator@PAX@std@@@std@@IAE@XZ 0041b8e0 f i texture_res.obj
 0001:0001a8f0       ??D?$_Const_iterator@$00@?$list@PAXV?$allocator@PAX@std@@@std@@QBEABQAXXZ 0041b8f0 f i texture_res.obj
 0001:0001a920       ?allocate@?$allocator@U_Node@?$_List_nod@PAXV?$allocator@PAX@std@@@std@@@std@@QAEPAU_Node@?$_List_nod@PAXV?$allocator@PAX@std@@@2@I@Z 0041b920 f i texture_res.obj
 0001:0001a940       ?construct@?$allocator@PAU_Node@?$_List_nod@PAXV?$allocator@PAX@std@@@std@@@std@@QAEXPAPAU_Node@?$_List_nod@PAXV?$allocator@PAX@std@@@2@ABQAU342@@Z 0041b940 f i texture_res.obj
 0001:0001a960       ?destroy@?$allocator@PAU_Node@?$_List_nod@PAXV?$allocator@PAX@std@@@std@@@std@@QAEXPAPAU_Node@?$_List_nod@PAXV?$allocator@PAX@std@@@2@@Z 0041b960 f i texture_res.obj
 0001:0001a970       ??0?$_Bidit@PAXHPBQAXABQAX@std@@QAE@XZ 0041b970 f i texture_res.obj
 0001:0001a980       ?max_size@?$list@PAXV?$allocator@PAX@std@@@std@@QBEIXZ 0041b980 f i texture_res.obj
 0001:0001a990       ?construct@?$allocator@PAX@std@@QAEXPAPAXABQAX@Z 0041b990 f i texture_res.obj
 0001:0001a9b0       ?destroy@?$allocator@U_Node@?$_List_nod@PAXV?$allocator@PAX@std@@@std@@@std@@QAEXPAU_Node@?$_List_nod@PAXV?$allocator@PAX@std@@@2@@Z 0041b9b0 f i texture_res.obj
 0001:0001a9c0       ??D?$_Iterator@$00@?$list@PAXV?$allocator@PAX@std@@@std@@QBEAAPAXXZ 0041b9c0 f i texture_res.obj
 0001:0001a9f0       ??1?$_List_nod@PAXV?$allocator@PAX@std@@@std@@QAE@XZ 0041b9f0 f i texture_res.obj
 0001:0001aa00       ?_Buynode@?$list@PAXV?$allocator@PAX@std@@@std@@IAEPAU_Node@?$_List_nod@PAXV?$allocator@PAX@std@@@2@XZ 0041ba00 f i texture_res.obj
 0001:0001aa20       ?clear@?$list@PAXV?$allocator@PAX@std@@@std@@QAEXXZ 0041ba20 f i texture_res.obj
 0001:0001aa60       ?_Buynode@?$list@PAXV?$allocator@PAX@std@@@std@@IAEPAU_Node@?$_List_nod@PAXV?$allocator@PAX@std@@@2@PAU342@0ABQAX@Z 0041ba60 f i texture_res.obj
 0001:0001aaa0       ??0?$_Const_iterator@$00@?$list@PAXV?$allocator@PAX@std@@@std@@QAE@PAU_Node@?$_List_nod@PAXV?$allocator@PAX@std@@@2@PBV12@@Z 0041baa0 f i texture_res.obj
 0001:0001aad0       ??0?$_Container_base_aux_alloc_real@V?$allocator@PAX@std@@@std@@IAE@V?$allocator@PAX@1@@Z 0041bad0 f i texture_res.obj
 0001:0001ab00       ??1?$_List_ptr@PAXV?$allocator@PAX@std@@@std@@QAE@XZ 0041bb00 f i texture_res.obj
 0001:0001ab10       ?_Tidy@?$list@PAXV?$allocator@PAX@std@@@std@@IAEXXZ 0041bb10 f i texture_res.obj
 0001:0001ab60       ??0?$_Iterator@$00@?$list@PAXV?$allocator@PAX@std@@@std@@QAE@PAU_Node@?$_List_nod@PAXV?$allocator@PAX@std@@@2@PBV12@@Z 0041bb60 f i texture_res.obj
 0001:0001ab90       ??0?$_List_nod@PAXV?$allocator@PAX@std@@@std@@IAE@V?$allocator@PAX@1@@Z 0041bb90 f i texture_res.obj
 0001:0001abc0       ?begin@?$list@PAXV?$allocator@PAX@std@@@std@@QAE?AV?$_Iterator@$00@12@XZ 0041bbc0 f i texture_res.obj
 0001:0001abe0       ?end@?$list@PAXV?$allocator@PAX@std@@@std@@QAE?AV?$_Iterator@$00@12@XZ 0041bbe0 f i texture_res.obj
 0001:0001ac00       ??1?$_List_val@PAXV?$allocator@PAX@std@@@std@@QAE@XZ 0041bc00 f i texture_res.obj
 0001:0001ac10       ??0?$_List_ptr@PAXV?$allocator@PAX@std@@@std@@IAE@V?$allocator@PAX@1@@Z 0041bc10 f i texture_res.obj
 0001:0001ac40       ?FakeCvars_Shutdown@@YAXXZ 0041bc40 f   texture_res.obj
 0001:0001ace0       ??1?$list@PAXV?$allocator@PAX@std@@@std@@QAE@XZ 0041bce0 f i texture_res.obj
 0001:0001ad00       ??0?$_List_val@PAXV?$allocator@PAX@std@@@std@@QAE@V?$allocator@PAX@1@@Z 0041bd00 f i texture_res.obj
 0001:0001ad30       ??0?$list@PAXV?$allocator@PAX@std@@@std@@QAE@XZ 0041bd30 f i texture_res.obj
 0001:0001ada0       ?_Incsize@?$list@PAXV?$allocator@PAX@std@@@std@@IAEXI@Z 0041bda0 f i texture_res.obj
 0001:0001ae40       ?_Insert@?$list@PAXV?$allocator@PAX@std@@@std@@QAEXV?$_Const_iterator@$00@12@ABQAX@Z 0041be40 f i texture_res.obj
 0001:0001ae80       ?push_back@?$list@PAXV?$allocator@PAX@std@@@std@@QAEXABQAX@Z 0041be80 f i texture_res.obj
 0001:0001af10       ?FakeCvars_OnceOnlyInit@@YAXXZ 0041bf10 f   texture_res.obj
 0001:0001af70       ??0Vect3@@QAE@ABV0@@Z      0041bf70 f i vect3.obj
 0001:0001af90       ?Len@Vect3@@QBEMXZ         0041bf90 f i vect3.obj
 0001:0001afc0       ??ZVect3@@QAEABV0@ABV0@@Z  0041bfc0 f i vect3.obj
 0001:0001aff0       ??TVect3@@QBEMABV0@@Z      0041bff0 f i vect3.obj
 0001:0001b020       ??_0Vect3@@QAEABV0@M@Z     0041c020 f   vect3.obj
 0001:0001b050       ?Cross@Vect3@@QAEXABV1@@Z  0041c050 f   vect3.obj
 0001:0001b0b0       ?NegCross@Vect3@@QAEXABV1@@Z 0041c0b0 f   vect3.obj
 0001:0001b110       ?Dist@Vect3@@QBEMABV1@@Z   0041c110 f   vect3.obj
 0001:0001b180       ?Dist2@Vect3@@QBEMABV1@@Z  0041c180 f   vect3.obj
 0001:0001b1f0       ?Perp@Vect3@@QAEXXZ        0041c1f0 f   vect3.obj
 0001:0001b370       ?Min@Vect3@@QAEXABV1@@Z    0041c370 f   vect3.obj
 0001:0001b3c0       ?Max@Vect3@@QAEXABV1@@Z    0041c3c0 f   vect3.obj
 0001:0001b410       ?MaxElementIndex@Vect3@@QBEHXZ 0041c410 f   vect3.obj
 0001:0001b480       ?MaxElement@Vect3@@QBEMXZ  0041c480 f   vect3.obj
 0001:0001b490       ?setVertex@@YAXQAMMMM@Z    0041c490 f   widgets.obj
 0001:0001b4b0       ?widget_AxisFaces@@YAXPAY02M@Z 0041c4b0 f   widgets.obj
 0001:0001b590       ?widget_Axis@@YAXXZ        0041c590 f   widgets.obj
 0001:0001b930       ?tagMenu_seperatorAppend@@YAXPAD@Z 0041c930 f   win32_driver.obj
 0001:0001ba10       ?tagMenu_remove@@YAXH@Z    0041ca10 f   win32_driver.obj
 0001:0001bad0       ?tagMenu_append@@YAXPADH@Z 0041cad0 f   win32_driver.obj
 0001:0001bb50       ?swap_buffers@@YAXXZ       0041cb50 f   win32_driver.obj
 0001:0001bb60       ?getCmdLine@@YAPADXZ       0041cb60 f   win32_driver.obj
 0001:0001bb70       ?FreeCmdLine@@YAXXZ        0041cb70 f   win32_driver.obj
 0001:0001bb90       ?file_exists@@YA_NPBD@Z    0041cb90 f   win32_driver.obj
 0001:0001bbc0       ?repaint_main@@YAXXZ       0041cbc0 f   win32_driver.obj
 0001:0001bbe0       ?set_cursor@@YAXHH@Z       0041cbe0 f   win32_driver.obj
 0001:0001bc00       ?getDoubleTime@@YANXZ      0041cc00 f   win32_driver.obj
 0001:0001bc20       ?WinProcInstance@@YGJPAUHWND__@@IIJ@Z 0041cc20 f   win32_driver.obj
 0001:0001be80       ?Menu_Clear@@YAXPAUHMENU__@@H@Z 0041ce80 f   win32_driver.obj
 0001:0001bf20       ?Menu_AddItem@@YAXPAUHMENU__@@HPBD@Z 0041cf20 f   win32_driver.obj
 0001:0001bf60       ?Menu_UpperAnims_Clear@@YAXXZ 0041cf60 f   win32_driver.obj
 0001:0001bf80       ?Menu_LowerAnims_Clear@@YAXXZ 0041cf80 f   win32_driver.obj
 0001:0001bfa0       ?Menu_UpperAnims_AddItem@@YAXPBD@Z 0041cfa0 f   win32_driver.obj
 0001:0001bfc0       ?Menu_LowerAnims_AddItem@@YAXPBD@Z 0041cfc0 f   win32_driver.obj
 0001:0001bfe0       ?WindowSystemInit@@YAXPAUHINSTANCE__@@@Z 0041cfe0 f   win32_driver.obj
 0001:0001c150       ?Init@@YAXPAUHINSTANCE__@@@Z 0041d150 f   win32_driver.obj
 0001:0001c160       _WinMain@16                0041d160 f   win32_driver.obj
 0001:0001c2e0       ?ScreenShot@@YA_NPBD0HH@Z  0041d2e0 f   win32_driver.obj
 0001:0001c430       ?SetPixelFormat@@YAXPAUHDC__@@@Z 0041d430 f   win32_msg.obj
 0001:0001c950       ?InitOpenGL@@YAXPAUHWND__@@@Z 0041d950 f   win32_msg.obj
 0001:0001c9c0       ?SysOnIdle@@YAXXZ          0041d9c0 f   win32_msg.obj
 0001:0001c9e0       ?SysOnPaint@@YAXPAUHWND__@@_N@Z 0041d9e0 f   win32_msg.obj
 0001:0001ca60       ?SysOnSize@@YAXPAUHWND__@@IHH@Z 0041da60 f   win32_msg.obj
 0001:0001cac0       ?SysOnDestroy@@YAHPAUHWND__@@@Z 0041dac0 f   win32_msg.obj
 0001:0001cb10       ?SysOnMouseMove@@YAXPAUHWND__@@HHI@Z 0041db10 f   win32_msg.obj
 0001:0001cb70       ?SysOnRButtonUp@@YAXPAUHWND__@@HHI@Z 0041db70 f   win32_msg.obj
 0001:0001cbb0       ?SysOnLButtonUp@@YAXPAUHWND__@@HHI@Z 0041dbb0 f   win32_msg.obj
 0001:0001cbf0       ?SysOnRButtonDown@@YAXPAUHWND__@@HHHI@Z 0041dbf0 f   win32_msg.obj
 0001:0001cc30       ?SysOnLButtonDown@@YAXPAUHWND__@@HHHI@Z 0041dc30 f   win32_msg.obj
 0001:0001cc70       ?SysOnAnimsCommand@@YAXPAUHWND__@@H0I@Z 0041dc70 f   win32_msg.obj
 0001:0001cce0       ?Filename_QUAKEBASEONLY@@YAPBDPBD@Z 0041dce0 f   win32_msg.obj
 0001:0001ce50       ?R_ExportModel@@YA_NPAUgl_model@@_N@Z 0041de50 f   win32_msg.obj
 0001:0001cef0       ?ExportMD3@@YAXXZ          0041def0 f   win32_msg.obj
 0001:0001cf50       ?ExportG2@@YAX_N@Z         0041df50 f   win32_msg.obj
 0001:0001cfe0       ?SysOnKeyDown@@YAXPAUHWND__@@IHHI@Z 0041dfe0 f   win32_msg.obj
 0001:0001cff0       ?SysOnKeyUp@@YAXPAUHWND__@@IHHI@Z 0041dff0 f   win32_msg.obj
 0001:0001d000       ?SysOnCreate@@YA_NPAUHWND__@@PAUtagCREATESTRUCTA@@@Z 0041e000 f   win32_msg.obj
 0001:0001d050       ?SetDirectory@@YAXPAUtagOFNA@@@Z 0041e050 f   win32_msg.obj
 0001:0001d070       ?FileOpenDialog@@YAPAUtagOFNA@@PAUHWND__@@GG0H@Z 0041e070 f   win32_msg.obj
 0001:0001d150       ?FileSaveDialog@@YAPAUtagOFNA@@PAUHWND__@@GG0H@Z 0041e150 f   win32_msg.obj
 0001:0001d220       ?SysOnTagCommand@@YAXPAUHWND__@@H0IPAD@Z 0041e220 f   win32_msg.obj
 0001:0001d3b0       ?SysOnCommand@@YAXPAUHWND__@@H0I@Z 0041e3b0 f   win32_msg.obj
 0001:0001e390       _jpeg_abort                0041f390 f   jcomapi.obj
 0001:0001e3c0       _jpeg_destroy              0041f3c0 f   jcomapi.obj
 0001:0001e3f0       _jpeg_alloc_quant_table    0041f3f0 f   jcomapi.obj
 0001:0001e410       _jpeg_alloc_huff_table     0041f410 f   jcomapi.obj
 0001:0001e430       _jpeg_create_decompress    0041f430 f   jdapimin.obj
 0001:0001e4c0       _jpeg_destroy_decompress   0041f4c0 f   jdapimin.obj
 0001:0001e4d0       _jpeg_abort_decompress     0041f4d0 f   jdapimin.obj
 0001:0001e4e0       _jpeg_set_marker_processor 0041f4e0 f   jdapimin.obj
 0001:0001e710       _jpeg_consume_input        0041f710 f   jdapimin.obj
 0001:0001e7e0       _jpeg_input_complete       0041f7e0 f   jdapimin.obj
 0001:0001e830       _jpeg_has_multiple_scans   0041f830 f   jdapimin.obj
 0001:0001e880       _jpeg_finish_decompress    0041f880 f   jdapimin.obj
 0001:0001e950       _jpeg_read_header          0041f950 f   jdapimin.obj
 0001:0001ea40       _jpeg_read_scanlines       0041fa40 f   jdapistd.obj
 0001:0001eae0       _jpeg_read_raw_data        0041fae0 f   jdapistd.obj
 0001:0001eba0       _jpeg_start_decompress     0041fba0 f   jdapistd.obj
 0001:0001ece0       _jpeg_stdio_src            0041fce0 f   jdatasrc.obj
 0001:0001f010       _jinit_d_coef_controller   00420010 f   jdcoefct.obj
 0001:0001f4f0       _jinit_color_deconverter   004204f0 f   jdcolor.obj
 0001:0001f870       _jinit_inverse_dct         00420870 f   jddctmgr.obj
 0001:0001f8e0       _jpeg_make_d_derived_tbl   004208e0 f   jdhuff.obj
 0001:0001fac0       _jpeg_fill_bit_buffer      00420ac0 f   jdhuff.obj
 0001:0001fbc0       _jpeg_huff_decode          00420bc0 f   jdhuff.obj
 0001:00020290       _jinit_huff_decoder        00421290 f   jdhuff.obj
 0001:00020880       _jinit_input_controller    00421880 f   jdinput.obj
 0001:00020e60       _jinit_d_main_controller   00421e60 f   jdmainct.obj
 0001:000228a0       _jpeg_resync_to_restart    004238a0 f   jdmarker.obj
 0001:000229e0       _jinit_marker_reader       004239e0 f   jdmarker.obj
 0001:00022a80       _jpeg_calc_output_dimensions 00423a80 f   jdmaster.obj
 0001:00022eb0       _jinit_master_decompress   00423eb0 f   jdmaster.obj
 0001:00022ff0       _jinit_d_post_controller   00423ff0 f   jdpostct.obj
 0001:00023520       _jinit_upsampler           00424520 f   jdsample.obj
 0001:000237d0       _jpeg_read_coefficients    004247d0 f   jdtrans.obj
 0001:00023a40       _jpeg_std_error            00424a40 f   jerror.obj
 0001:00023a90       _jpeg_idct_float           00424a90 f   jidctflt.obj
 0001:00024ae0       _jinit_memory_mgr          00425ae0 f   jmemmgr.obj
 0001:00024c00       _jpeg_get_small            00425c00 f   jmemnobs.obj
 0001:00024c10       _jpeg_free_small           00425c10 f   jmemnobs.obj
 0001:00024c20       _jpeg_get_large            00425c20 f   jmemnobs.obj
 0001:00024c30       _jpeg_free_large           00425c30 f   jmemnobs.obj
 0001:00024c40       _jpeg_mem_available        00425c40 f   jmemnobs.obj
 0001:00024c50       _jpeg_open_backing_store   00425c50 f   jmemnobs.obj
 0001:00024c70       _jpeg_mem_init             00425c70 f   jmemnobs.obj
 0001:00024c80       _jpeg_mem_term             00425c80 f   jmemnobs.obj
 0001:00024c90       _jdiv_round_up             00425c90 f   jutils.obj
 0001:00024ca0       _jround_up                 00425ca0 f   jutils.obj
 0001:00024cc0       _jcopy_sample_rows         00425cc0 f   jutils.obj
 0001:00024d10       _jcopy_block_row           00425d10 f   jutils.obj
 0001:00024d30       _jzero_far                 00425d30 f   jutils.obj
 0001:00024d50       ?LongSwap@@YAHH@Z          00425d50 f   png.obj
 0001:00024d80       ?PNG_GetError@@YAPBDXZ     00425d80 f   png.obj
 0001:00024d90       ?PNG_CreateHeader@@YAXPAUpng_ihdr_s@@PAUpng_image_s@@@Z 00425d90 f   png.obj
 0001:00024de0       ?PNG_HandleIHDR@@YA_NPBEPAUpng_image_s@@@Z 00425de0 f   png.obj
 0001:00024eb0       ?PNG_Filter@@YAXPAEEPBE1KK@Z 00425eb0 f   png.obj
 0001:000250e0       ?PNG_Unfilter@@YAXPAEEPBEKK@Z 004260e0 f   png.obj
 0001:000252a0       ?PNG_Pack@@YA_NPAEPAKKPAUpng_image_s@@@Z 004262a0 f   png.obj
 0001:00025530       ?PNG_Unpack@@YA_NPBEKPAUpng_image_s@@@Z 00426530 f   png.obj
 0001:00025660       ?PNG_Load@@YA_NPBEKPAUpng_image_s@@@Z 00426660 f   png.obj
 0001:00025860       ?PNG_OutputChunk@@YA_NPAU_iobuf@@KPAEK@Z 00426860 f   png.obj
 0001:00025920       ?PNG_Save@@YA_NPBDPAUpng_image_s@@@Z 00426920 f   png.obj
 0001:00025aa0       ?PNG_Info@@YA_NPBEKPAUpng_image_s@@@Z 00426aa0 f   png.obj
 0001:00025c30       ?PNG_ConvertTo32@@YAXPAUpng_image_s@@@Z 00426c30 f   png.obj
 0001:00025ca0       ?LoadPNG32@@YA_NPBDPAPAEPAH22@Z 00426ca0 f   png.obj
 0001:00025d90       _adler32                   00426d90 f   adler32.obj
 0001:00025ed0       _get_crc_table             00426ed0 f   crc32.obj
 0001:00025ee0       _crc32                     00426ee0 f   crc32.obj
 0001:00025ff0       _deflateSetDictionary      00426ff0 f   deflate.obj
 0001:00026160       _deflate                   00427160 f   deflate.obj
 0001:000263d0       _deflateEnd                004273d0 f   deflate.obj
 0001:00026490       _deflateCopy               00427490 f   deflate.obj
 0001:00027130       _deflateReset              00428130 f   deflate.obj
 0001:000271a0       _deflateParams             004281a0 f   deflate.obj
 0001:00027260       _deflateInit2_             00428260 f   deflate.obj
 0001:00027460       _deflateInit_              00428460 f   deflate.obj
 0001:00027490       _inflate_blocks_reset      00428490 f   infblock.obj
 0001:00027510       _inflate_blocks_new        00428510 f   infblock.obj
 0001:000275c0       _inflate_blocks            004285c0 f   infblock.obj
 0001:00028060       _inflate_blocks_free       00429060 f   infblock.obj
 0001:000280a0       _inflate_set_dictionary    004290a0 f   infblock.obj
 0001:000280d0       _inflate_blocks_sync_point 004290d0 f   infblock.obj
 0001:000280e0       _inflate_codes_new         004290e0 f   infcodes.obj
 0001:00028120       _inflate_codes             00429120 f   infcodes.obj
 0001:000287a0       _inflate_codes_free        004297a0 f   infcodes.obj
 0001:000287c0       _inflate_fast              004297c0 f   inffast.obj
 0001:00028b00       _inflateReset              00429b00 f   inflate.obj
 0001:00028b50       _inflateEnd                00429b50 f   inflate.obj
 0001:00028ba0       _inflateInit2_             00429ba0 f   inflate.obj
 0001:00028ca0       _inflateInit_              00429ca0 f   inflate.obj
 0001:00028cc0       _inflate                   00429cc0 f   inflate.obj
 0001:00029070       _inflateSetDictionary      0042a070 f   inflate.obj
 0001:000290f0       _inflateSync               0042a0f0 f   inflate.obj
 0001:000291b0       _inflateSyncPoint          0042a1b0 f   inflate.obj
 0001:00029660       _inflate_trees_bits        0042a660 f   inftrees.obj
 0001:00029700       _inflate_trees_dynamic     0042a700 f   inftrees.obj
 0001:00029880       _inflate_trees_fixed       0042a880 f   inftrees.obj
 0001:000298b0       _inflate_flush             0042a8b0 f   infutil.obj
 0001:0002a570       __tr_tally                 0042b570 f   trees.obj
 0001:0002ac50       __tr_init                  0042bc50 f   trees.obj
 0001:0002b010       __tr_stored_block          0042c010 f   trees.obj
 0001:0002b0b0       __tr_align                 0042c0b0 f   trees.obj
 0001:0002b2a0       __tr_flush_block           0042c2a0 f   trees.obj
 0001:0002b490       _zlibVersion               0042c490 f   zutil.obj
 0001:0002b4a0       _zError                    0042c4a0 f   zutil.obj
 0001:0002b4c0       _zcalloc                   0042c4c0 f   zutil.obj
 0001:0002b4e0       _zcfree                    0042c4e0 f   zutil.obj
 0001:0002b4ec       _gluPerspective@32         0042c4ec f   glu32:GLU32.dll
 0001:0002b4f2       _gluOrtho2D@32             0042c4f2 f   glu32:GLU32.dll
 0001:0002b4f8       _glViewport@16             0042c4f8 f   opengl32:OPENGL32.dll
 0001:0002b4fe       _glLoadIdentity@0          0042c4fe f   opengl32:OPENGL32.dll
 0001:0002b504       _glMatrixMode@4            0042c504 f   opengl32:OPENGL32.dll
 0001:0002b50a       _glDisable@4               0042c50a f   opengl32:OPENGL32.dll
 0001:0002b510       _glEnable@4                0042c510 f   opengl32:OPENGL32.dll
 0001:0002b516       _glPolygonMode@8           0042c516 f   opengl32:OPENGL32.dll
 0001:0002b51c       _glVertex3f@12             0042c51c f   opengl32:OPENGL32.dll
 0001:0002b522       _glPopAttrib@0             0042c522 f   opengl32:OPENGL32.dll
 0001:0002b528       _glLineWidth@4             0042c528 f   opengl32:OPENGL32.dll
 0001:0002b52e       _glEnd@0                   0042c52e f   opengl32:OPENGL32.dll
 0001:0002b534       _glNormal3fv@4             0042c534 f   opengl32:OPENGL32.dll
 0001:0002b53a       _glBegin@4                 0042c53a f   opengl32:OPENGL32.dll
 0001:0002b540       _glColor3f@12              0042c540 f   opengl32:OPENGL32.dll
 0001:0002b546       _glCullFace@4              0042c546 f   opengl32:OPENGL32.dll
 0001:0002b54c       _glVertex3fv@4             0042c54c f   opengl32:OPENGL32.dll
 0001:0002b552       _glTexCoord2fv@4           0042c552 f   opengl32:OPENGL32.dll
 0001:0002b558       _glPushAttrib@4            0042c558 f   opengl32:OPENGL32.dll
 0001:0002b55e       _glBlendFunc@8             0042c55e f   opengl32:OPENGL32.dll
 0001:0002b564       _glLightfv@12              0042c564 f   opengl32:OPENGL32.dll
 0001:0002b56a       _glMaterialfv@12           0042c56a f   opengl32:OPENGL32.dll
 0001:0002b570       _glDepthFunc@4             0042c570 f   opengl32:OPENGL32.dll
 0001:0002b576       _glPixelStorei@8           0042c576 f   opengl32:OPENGL32.dll
 0001:0002b57c       _glClearDepth@8            0042c57c f   opengl32:OPENGL32.dll
 0001:0002b582       _glClearColor@16           0042c582 f   opengl32:OPENGL32.dll
 0001:0002b588       _glGetError@0              0042c588 f   opengl32:OPENGL32.dll
 0001:0002b58e       _glBindTexture@8           0042c58e f   opengl32:OPENGL32.dll
 0001:0002b594       _glRotatef@16              0042c594 f   opengl32:OPENGL32.dll
 0001:0002b59a       _glScalef@12               0042c59a f   opengl32:OPENGL32.dll
 0001:0002b5a0       _glTranslatef@12           0042c5a0 f   opengl32:OPENGL32.dll
 0001:0002b5a6       _glClear@4                 0042c5a6 f   opengl32:OPENGL32.dll
 0001:0002b5ac       _glPopMatrix@0             0042c5ac f   opengl32:OPENGL32.dll
 0001:0002b5b2       _glLineStipple@8           0042c5b2 f   opengl32:OPENGL32.dll
 0001:0002b5b8       _glMultMatrixf@4           0042c5b8 f   opengl32:OPENGL32.dll
 0001:0002b5be       _glPushMatrix@0            0042c5be f   opengl32:OPENGL32.dll
 0001:0002b5c4       _glEndList@0               0042c5c4 f   opengl32:OPENGL32.dll
 0001:0002b5ca       _glBitmap@28               0042c5ca f   opengl32:OPENGL32.dll
 0001:0002b5d0       _glNewList@8               0042c5d0 f   opengl32:OPENGL32.dll
 0001:0002b5d6       _glGenLists@4              0042c5d6 f   opengl32:OPENGL32.dll
 0001:0002b5dc       _glDeleteLists@8           0042c5dc f   opengl32:OPENGL32.dll
 0001:0002b5e2       _glCallLists@12            0042c5e2 f   opengl32:OPENGL32.dll
 0001:0002b5e8       _glListBase@4              0042c5e8 f   opengl32:OPENGL32.dll
 0001:0002b5ee       _glRasterPos3f@12          0042c5ee f   opengl32:OPENGL32.dll
 0001:0002b5f4       _glColor3ub@12             0042c5f4 f   opengl32:OPENGL32.dll
 0001:0002b5fa       _glGetBooleanv@8           0042c5fa f   opengl32:OPENGL32.dll
 0001:0002b600       _glRasterPos2i@8           0042c600 f   opengl32:OPENGL32.dll
 0001:0002b606       _glGetIntegerv@8           0042c606 f   opengl32:OPENGL32.dll
 0001:0002b60c       _glHint@8                  0042c60c f   opengl32:OPENGL32.dll
 0001:0002b612       _glTexEnvf@12              0042c612 f   opengl32:OPENGL32.dll
 0001:0002b618       _glTexParameterf@12        0042c618 f   opengl32:OPENGL32.dll
 0001:0002b61e       _glTexImage2D@36           0042c61e f   opengl32:OPENGL32.dll
 0001:0002b624       _glReadPixels@28           0042c624 f   opengl32:OPENGL32.dll
 0001:0002b62a       _wglMakeCurrent@8          0042c62a f   opengl32:OPENGL32.dll
 0001:0002b630       _wglCreateContext@4        0042c630 f   opengl32:OPENGL32.dll
 0001:0002b636       _wglDeleteContext@4        0042c636 f   opengl32:OPENGL32.dll
 0001:0002b63c       _GlobalUnlock@4            0042c63c f   kernel32:KERNEL32.dll
 0001:0002b642       _GlobalLock@4              0042c642 f   kernel32:KERNEL32.dll
 0001:0002b648       _GlobalAlloc@8             0042c648 f   kernel32:KERNEL32.dll
 0001:0002b64e       _OutputDebugStringA@4      0042c64e f   kernel32:KERNEL32.dll
 0001:0002b654       _SetCurrentDirectoryA@4    0042c654 f   kernel32:KERNEL32.dll
 0001:0002b65a       _GetTempPathA@8            0042c65a f   kernel32:KERNEL32.dll
 0001:0002b660       _LocalFree@4               0042c660 f   kernel32:KERNEL32.dll
 0001:0002b666       _FormatMessageA@28         0042c666 f   kernel32:KERNEL32.dll
 0001:0002b66c       _Sleep@4                   0042c66c f   kernel32:KERNEL32.dll
 0001:0002b672       _lstrcpyA@8                0042c672 f   kernel32:KERNEL32.dll
 0001:0002b678       _GetCurrentDirectoryA@8    0042c678 f   kernel32:KERNEL32.dll
 0001:0002b67e       _CloseClipboard@0          0042c67e f   user32:USER32.dll
 0001:0002b684       _SetClipboardData@8        0042c684 f   user32:USER32.dll
 0001:0002b68a       _EmptyClipboard@0          0042c68a f   user32:USER32.dll
 0001:0002b690       _OpenClipboard@4           0042c690 f   user32:USER32.dll
 0001:0002b696       _InvalidateRect@12         0042c696 f   user32:USER32.dll
 0001:0002b69c       _GetAsyncKeyState@4        0042c69c f   user32:USER32.dll
 0001:0002b6a2       _MessageBoxA@16            0042c6a2 f   user32:USER32.dll
 0001:0002b6a8       _SetCursor@4               0042c6a8 f   user32:USER32.dll
 0001:0002b6ae       _LoadCursorA@8             0042c6ae f   user32:USER32.dll
 0001:0002b6b4       _AppendMenuA@16            0042c6b4 f   user32:USER32.dll
 0001:0002b6ba       _GetSubMenu@8              0042c6ba f   user32:USER32.dll
 0001:0002b6c0       _GetMenu@4                 0042c6c0 f   user32:USER32.dll
 0001:0002b6c6       _DeleteMenu@12             0042c6c6 f   user32:USER32.dll
 0001:0002b6cc       _SetCursorPos@8            0042c6cc f   user32:USER32.dll
 0001:0002b6d2       _DefWindowProcA@16         0042c6d2 f   user32:USER32.dll
 0001:0002b6d8       _DrawMenuBar@4             0042c6d8 f   user32:USER32.dll
 0001:0002b6de       _GetMenuItemCount@4        0042c6de f   user32:USER32.dll
 0001:0002b6e4       _CreateMenu@0              0042c6e4 f   user32:USER32.dll
 0001:0002b6ea       _UpdateWindow@4            0042c6ea f   user32:USER32.dll
 0001:0002b6f0       _ShowWindow@8              0042c6f0 f   user32:USER32.dll
 0001:0002b6f6       _CreateWindowExA@48        0042c6f6 f   user32:USER32.dll
 0001:0002b6fc       _LoadMenuA@8               0042c6fc f   user32:USER32.dll
 0001:0002b702       _RegisterClassA@4          0042c702 f   user32:USER32.dll
 0001:0002b708       _LoadIconA@8               0042c708 f   user32:USER32.dll
 0001:0002b70e       _DispatchMessageA@4        0042c70e f   user32:USER32.dll
 0001:0002b714       _LoadAcceleratorsA@8       0042c714 f   user32:USER32.dll
 0001:0002b71a       _TranslateAcceleratorA@12  0042c71a f   user32:USER32.dll
 0001:0002b720       _TranslateMessage@4        0042c720 f   user32:USER32.dll
 0001:0002b726       _PeekMessageA@20           0042c726 f   user32:USER32.dll
 0001:0002b72c       _GetDC@4                   0042c72c f   user32:USER32.dll
 0001:0002b732       _EndPaint@8                0042c732 f   user32:USER32.dll
 0001:0002b738       _ReleaseDC@8               0042c738 f   user32:USER32.dll
 0001:0002b73e       _BeginPaint@8              0042c73e f   user32:USER32.dll
 0001:0002b744       _GetClientRect@8           0042c744 f   user32:USER32.dll
 0001:0002b74a       _GetCursorPos@4            0042c74a f   user32:USER32.dll
 0001:0002b750       _ShowCursor@4              0042c750 f   user32:USER32.dll
 0001:0002b756       _ReleaseCapture@0          0042c756 f   user32:USER32.dll
 0001:0002b75c       _SetCapture@4              0042c75c f   user32:USER32.dll
 0001:0002b762       _LoadStringA@16            0042c762 f   user32:USER32.dll
 0001:0002b768       _GetTextExtentPointA@16    0042c768 f   gdi32:GDI32.dll
 0001:0002b76e       _SwapBuffers@4             0042c76e f   gdi32:GDI32.dll
 0001:0002b774       _SetPixelFormat@12         0042c774 f   gdi32:GDI32.dll
 0001:0002b77a       _ChoosePixelFormat@8       0042c77a f   gdi32:GDI32.dll
 0001:0002b780       _DescribePixelFormat@16    0042c780 f   gdi32:GDI32.dll
 0001:0002b786       _GetOpenFileNameA@4        0042c786 f   comdlg32:COMDLG32.dll
 0001:0002b78c       _GetSaveFileNameA@4        0042c78c f   comdlg32:COMDLG32.dll
 0001:0002b792       _ChooseColorA@4            0042c792 f   comdlg32:COMDLG32.dll
 0001:0002b798       ??0invalid_argument@std@@QAE@ABV?$basic_string@DU?$char_traits@D@std@@V?$allocator@D@2@@1@@Z 0042c798 f i libcpmt:string.obj
 0001:0002b7b5       ??1invalid_argument@std@@UAE@XZ 0042c7b5 f i libcpmt:string.obj
 0001:0002b7c0       ??_Ginvalid_argument@std@@UAEPAXI@Z 0042c7c0 f i libcpmt:string.obj
 0001:0002b7c0       ??_Einvalid_argument@std@@UAEPAXI@Z 0042c7c0 f i libcpmt:string.obj
 0001:0002b7e7       ?_Xlen@_String_base@std@@SAXXZ 0042c7e7 f   libcpmt:string.obj
 0001:0002b81f       ?_Xran@_String_base@std@@SAXXZ 0042c81f f   libcpmt:string.obj
 0001:0002b857       ?_Xinvarg@_String_base@std@@SAXXZ 0042c857 f   libcpmt:string.obj
 0001:0002b88f       ??0invalid_argument@std@@QAE@ABV01@@Z 0042c88f f i libcpmt:string.obj
 0001:0002b8ac       ??_U@YAPAXI@Z              0042c8ac f   libcpmt:newaop.obj
 0001:0002b8b7       __Wcrtomb                  0042c8b7 f   libcpmt:xwctomb.obj
 0001:0002b93e       __Getcvt                   0042c93e f   libcpmt:xwctomb.obj
 0001:0002b954       ___Wcrtomb_lk              0042c954 f   libcpmt:xwctomb.obj
 0001:0002b95f       ??0_Init_locks@std@@QAE@XZ 0042c95f f   libcpmt:xlock.obj
 0001:0002b990       ??1_Init_locks@std@@QAE@XZ 0042c990 f   libcpmt:xlock.obj
 0001:0002b9b9       ?_Init_locks_ctor@_Init_locks@std@@CAXPAV12@@Z 0042c9b9 f   libcpmt:xlock.obj
 0001:0002b9e2       ?_Init_locks_dtor@_Init_locks@std@@CAXPAV12@@Z 0042c9e2 f   libcpmt:xlock.obj
 0001:0002ba0b       ??0_Lockit@std@@QAE@XZ     0042ca0b f   libcpmt:xlock.obj
 0001:0002ba22       ??0_Lockit@std@@QAE@H@Z    0042ca22 f   libcpmt:xlock.obj
 0001:0002ba4a       ??1_Lockit@std@@QAE@XZ     0042ca4a f   libcpmt:xlock.obj
 0001:0002ba61       ?_Lockit_ctor@_Lockit@std@@CAXPAV12@@Z 0042ca61 f   libcpmt:xlock.obj
 0001:0002ba6d       ?_Lockit_ctor@_Lockit@std@@CAXPAV12@H@Z 0042ca6d f   libcpmt:xlock.obj
 0001:0002ba8e       ?_Lockit_dtor@_Lockit@std@@CAXPAV12@@Z 0042ca8e f   libcpmt:xlock.obj
 0001:0002baa9       ?_Lockit_ctor@_Lockit@std@@SAXH@Z 0042caa9 f   libcpmt:xlock.obj
 0001:0002bac5       ?_Lockit_dtor@_Lockit@std@@SAXH@Z 0042cac5 f   libcpmt:xlock.obj
 0001:0002bae1       ??0locale@std@@QAE@W4_Uninitialized@1@@Z 0042cae1 f i libcpmt:locale0.obj
 0001:0002bae6       ??0locale@std@@AAE@PAV_Locimp@01@@Z 0042cae6 f i libcpmt:locale0.obj
 0001:0002baf6       ?_AtModuleExit@@YAXP6AXXZ@Z 0042caf6 f   libcpmt:locale0.obj
 0001:0002bb10       ??0_Fac_node@std@@QAE@PAU01@PAVfacet@locale@1@@Z 0042cb10 f i libcpmt:locale0.obj
 0001:0002bb26       ??1_Fac_node@std@@QAE@XZ   0042cb26 f i libcpmt:locale0.obj
 0001:0002bb3b       ??_G_Fac_node@std@@QAEPAXI@Z 0042cb3b f i libcpmt:locale0.obj
 0001:0002bb5c       __Deletegloballocale       0042cb5c f   libcpmt:locale0.obj
 0001:0002bba9       ?_Getgloballocale@locale@std@@CAPAV_Locimp@12@XZ 0042cba9 f   libcpmt:locale0.obj
 0001:0002bbaf       ?_Setgloballocale@locale@std@@CAXPAX@Z 0042cbaf f   libcpmt:locale0.obj
 0001:0002bbd9       ?_Clocptr_func@_Locimp@locale@std@@CAAAPAV123@XZ 0042cbd9 f   libcpmt:locale0.obj
 0001:0002bbdf       ?_Id_cnt_func@id@locale@std@@CAAAHXZ 0042cbdf f   libcpmt:locale0.obj
 0001:0002bbe5       ?_Id_func@?$ctype@D@std@@SAAAVid@locale@2@XZ 0042cbe5 f   libcpmt:locale0.obj
 0001:0002bbeb       ?_Id_func@?$ctype@_W@std@@SAAAVid@locale@2@XZ 0042cbeb f   libcpmt:locale0.obj
 0001:0002bbf1       ?_Id_func@?$codecvt@_WDH@std@@SAAAVid@locale@2@XZ 0042cbf1 f   libcpmt:locale0.obj
 0001:0002bbf7       ?_Id_func@?$ctype@G@std@@SAAAVid@locale@2@XZ 0042cbf7 f   libcpmt:locale0.obj
 0001:0002bbfd       ?_Id_func@?$codecvt@GDH@std@@SAAAVid@locale@2@XZ 0042cbfd f   libcpmt:locale0.obj
 0001:0002bc03       ?_Locimp_dtor@_Locimp@locale@std@@CAXPAV123@@Z 0042cc03 f   libcpmt:locale0.obj
 0001:0002bc63       __Fac_tidy                 0042cc63 f   libcpmt:locale0.obj
 0001:0002bc98       ?facet_Register@facet@locale@std@@CAXPAV123@@Z 0042cc98 f   libcpmt:locale0.obj
 0001:0002bcd6       ?_Locinfo_dtor@_Locinfo@std@@SAXPAV12@@Z 0042ccd6 f   libcpmt:locale0.obj
 0001:0002bcfe       ??0_Locimp@locale@std@@AAE@_N@Z 0042ccfe f i libcpmt:locale0.obj
 0001:0002bd47       ??1_Locimp@locale@std@@MAE@XZ 0042cd47 f i libcpmt:locale0.obj
 0001:0002bd84       ??_G_Locimp@locale@std@@MAEPAXI@Z 0042cd84 f i libcpmt:locale0.obj
 0001:0002bd84       ??_E_Locimp@locale@std@@MAEPAXI@Z 0042cd84 f i libcpmt:locale0.obj
 0001:0002bda5       ?_Init@locale@std@@CAPAV_Locimp@12@XZ 0042cda5 f   libcpmt:locale0.obj
 0001:0002be3f       ?_Locinfo_ctor@_Locinfo@std@@SAXPAV12@PBD@Z 0042ce3f f   libcpmt:locale0.obj
 0001:0002be8c       ?_Locinfo_ctor@_Locinfo@std@@SAXPAV12@ABV?$basic_string@DU?$char_traits@D@std@@V?$allocator@D@2@@2@@Z 0042ce8c f   libcpmt:locale0.obj
 0001:0002bee8       ?classic@locale@std@@SAABV12@XZ 0042cee8 f   libcpmt:locale0.obj
 0001:0002bef3       ?empty@locale@std@@SA?AV12@XZ 0042cef3 f   libcpmt:locale0.obj
 0001:0002bf35       ??0_Mutex@std@@QAE@XZ      0042cf35 f   libcpmt:xmutex.obj
 0001:0002bf4f       ??1_Mutex@std@@QAE@XZ      0042cf4f f   libcpmt:xmutex.obj
 0001:0002bf66       ?_Lock@_Mutex@std@@QAEXXZ  0042cf66 f   libcpmt:xmutex.obj
 0001:0002bf6f       ?_Unlock@_Mutex@std@@QAEXXZ 0042cf6f f   libcpmt:xmutex.obj
 0001:0002bf78       ?_Mutex_ctor@_Mutex@std@@CAXPAV12@@Z 0042cf78 f   libcpmt:xmutex.obj
 0001:0002bf93       ?_Mutex_dtor@_Mutex@std@@CAXPAV12@@Z 0042cf93 f   libcpmt:xmutex.obj
 0001:0002bfaf       ?_Mutex_Lock@_Mutex@std@@CAXPAV12@@Z 0042cfaf f   libcpmt:xmutex.obj
 0001:0002bfc1       ?_Mutex_Unlock@_Mutex@std@@CAXPAV12@@Z 0042cfc1 f   libcpmt:xmutex.obj
 0001:0002bfd3       ?uncaught_exception@std@@YA_NXZ 0042cfd3 f   libcpmt:uncaught.obj
 0001:0002bfd8       ??0_Iterator_base_secure@std@@QAE@XZ 0042cfd8 f i libcpmt:cout.obj
 0001:0002bfde       ?_Has_container@_Iterator_base_secure@std@@QBE_NXZ 0042cfde f i libcpmt:cout.obj
 0001:0002bfe6       ?_Getctype@_Locinfo@std@@QBE?AU_Ctypevec@@XZ 0042cfe6 f i libcpmt:cout.obj
 0001:0002c00b       ??0locale@std@@QAE@XZ      0042d00b f i libcpmt:cout.obj
 0001:0002c027       ??0ctype_base@std@@QAE@I@Z 0042d027 f i libcpmt:cout.obj
 0001:0002c03e       ??1ctype_base@std@@UAE@XZ  0042d03e f i libcpmt:cout.obj
 0001:0002c045       ??_Ectype_base@std@@UAEPAXI@Z 0042d045 f i libcpmt:cout.obj
 0001:0002c045       ??_Gctype_base@std@@UAEPAXI@Z 0042d045 f i libcpmt:cout.obj
 0001:0002c067       ?widen@?$ctype@D@std@@QBEDD@Z 0042d067 f i libcpmt:cout.obj
 0001:0002c072       ?_Init@?$ctype@D@std@@IAEXABV_Locinfo@2@@Z 0042d072 f i libcpmt:cout.obj
 0001:0002c099       ??1ios_base@std@@UAE@XZ    0042d099 f i libcpmt:cout.obj
 0001:0002c0a9       ??0ios_base@std@@IAE@XZ    0042d0a9 f i libcpmt:cout.obj
 0001:0002c0b2       ??_Eios_base@std@@UAEPAXI@Z 0042d0b2 f i libcpmt:cout.obj
 0001:0002c0b2       ??_Gios_base@std@@UAEPAXI@Z 0042d0b2 f i libcpmt:cout.obj
 0001:0002c0db       ?_Cout_func@std@@YAAAV?$basic_ostream@DU?$char_traits@D@std@@@1@XZ 0042d0db f   libcpmt:cout.obj
 0001:0002c0e1       ??1?$basic_ostream@DU?$char_traits@D@std@@@std@@UAE@XZ 0042d0e1 f i libcpmt:cout.obj
 0001:0002c0f0       ??1?$basic_ios@DU?$char_traits@D@std@@@std@@UAE@XZ 0042d0f0 f i libcpmt:cout.obj
 0001:0002c100       ?tie@?$basic_ios@DU?$char_traits@D@std@@@std@@QAEPAV?$basic_ostream@DU?$char_traits@D@std@@@2@PAV32@@Z 0042d100 f i libcpmt:cout.obj
 0001:0002c112       ??_Glocale@std@@QAEPAXI@Z  0042d112 f i libcpmt:cout.obj
 0001:0002c133       ??0?$basic_ios@DU?$char_traits@D@std@@@std@@IAE@XZ 0042d133 f i libcpmt:cout.obj
 0001:0002c13c       ??_E?$basic_ios@DU?$char_traits@D@std@@@std@@UAEPAXI@Z 0042d13c f i libcpmt:cout.obj
 0001:0002c13c       ??_G?$basic_ios@DU?$char_traits@D@std@@@std@@UAEPAXI@Z 0042d13c f i libcpmt:cout.obj
 0001:0002c165       ?setg@?$basic_streambuf@DU?$char_traits@D@std@@@std@@IAEXPAD00@Z 0042d165 f i libcpmt:cout.obj
 0001:0002c188       ?_Init@?$basic_streambuf@DU?$char_traits@D@std@@@std@@IAEXPAPAD0PAH001@Z 0042d188 f i libcpmt:cout.obj
 0001:0002c1b5       ??D?$_String_const_iterator@DU?$char_traits@D@std@@V?$allocator@D@2@@std@@QBEABDXZ 0042d1b5 f i libcpmt:cout.obj
 0001:0002c1ee       ?unshift@?$codecvt@DDH@std@@QBEHAAHPAD1AAPAD@Z 0042d1ee f i libcpmt:cout.obj
 0001:0002c1f9       ?setp@?$basic_streambuf@DU?$char_traits@D@std@@@std@@IAEXPAD0@Z 0042d1f9 f i libcpmt:cout.obj
 0001:0002c219       ??0?$_Ranit_base@DHPBDABDV_Iterator_base_secure@std@@@std@@QAE@XZ 0042d219 f i libcpmt:cout.obj
 0001:0002c21f       ??0?$ctype@D@std@@QAE@ABV_Locinfo@1@I@Z 0042d21f f i libcpmt:cout.obj
 0001:0002c242       ?_Tidy@?$ctype@D@std@@IAEXXZ 0042d242 f i libcpmt:cout.obj
 0001:0002c25f       ?do_tolower@?$ctype@D@std@@MBEDD@Z 0042d25f f i libcpmt:cout.obj
 0001:0002c278       ?do_tolower@?$ctype@D@std@@MBEPBDPADPBD@Z 0042d278 f i libcpmt:cout.obj
 0001:0002c2a6       ?do_toupper@?$ctype@D@std@@MBEDD@Z 0042d2a6 f i libcpmt:cout.obj
 0001:0002c2bf       ?do_toupper@?$ctype@D@std@@MBEPBDPADPBD@Z 0042d2bf f i libcpmt:cout.obj
 0001:0002c2ed       ?do_widen@?$ctype@D@std@@MBEDD@Z 0042d2ed f i libcpmt:cout.obj
 0001:0002c2f9       ?do_widen@?$ctype@D@std@@MBEPBDPBD0PAD@Z 0042d2f9 f i libcpmt:cout.obj
 0001:0002c317       ?_Do_widen_s@?$ctype@D@std@@MBEPBDPBD0PADI@Z 0042d317 f i libcpmt:cout.obj
 0001:0002c347       ?do_narrow@?$ctype@D@std@@MBEDDD@Z 0042d347 f i libcpmt:cout.obj
 0001:0002c353       ?do_narrow@?$ctype@D@std@@MBEPBDPBD0DPAD@Z 0042d353 f i libcpmt:cout.obj
 0001:0002c374       ?_Do_narrow_s@?$ctype@D@std@@MBEPBDPBD0DPADI@Z 0042d374 f i libcpmt:cout.obj
 0001:0002c3a4       ??1?$ctype@D@std@@MAE@XZ   0042d3a4 f i libcpmt:cout.obj
 0001:0002c3bc       ??_E?$ctype@D@std@@MAEPAXI@Z 0042d3bc f i libcpmt:cout.obj
 0001:0002c3bc       ??_G?$ctype@D@std@@MAEPAXI@Z 0042d3bc f i libcpmt:cout.obj
 0001:0002c3dd       ??_D?$basic_ostream@DU?$char_traits@D@std@@@std@@QAEXXZ 0042d3dd f i libcpmt:cout.obj
 0001:0002c3fc       ??0_Init_cout@std@@QAE@XZ  0042d3fc f i libcpmt:cout.obj
 0001:0002c451       ??1?$basic_streambuf@DU?$char_traits@D@std@@@std@@UAE@XZ 0042d451 f i libcpmt:cout.obj
 0001:0002c473       ?to_char_type@?$char_traits@D@std@@SADABH@Z 0042d473 f i libcpmt:cout.obj
 0001:0002c47f       ?overflow@?$basic_streambuf@DU?$char_traits@D@std@@@std@@MAEHH@Z 0042d47f f i libcpmt:cout.obj
 0001:0002c485       ?pbackfail@?$basic_streambuf@DU?$char_traits@D@std@@@std@@MAEHH@Z 0042d485 f i libcpmt:cout.obj
 0001:0002c48b       ?showmanyc@?$basic_streambuf@DU?$char_traits@D@std@@@std@@MAEHXZ 0042d48b f i libcpmt:cout.obj
 0001:0002c48e       ?underflow@?$basic_streambuf@DU?$char_traits@D@std@@@std@@MAEHXZ 0042d48e f i libcpmt:cout.obj
 0001:0002c492       ?xsgetn@?$basic_streambuf@DU?$char_traits@D@std@@@std@@MAEHPADH@Z 0042d492 f i libcpmt:cout.obj
 0001:0002c4a8       ?setbuf@?$basic_streambuf@DU?$char_traits@D@std@@@std@@MAEPAV12@PADH@Z 0042d4a8 f i libcpmt:cout.obj
 0001:0002c4ad       ?sync@?$basic_streambuf@DU?$char_traits@D@std@@@std@@MAEHXZ 0042d4ad f i libcpmt:cout.obj
 0001:0002c4b0       ?imbue@?$basic_streambuf@DU?$char_traits@D@std@@@std@@MAEXABVlocale@2@@Z 0042d4b0 f i libcpmt:cout.obj
 0001:0002c4b3       ?gptr@?$basic_streambuf@DU?$char_traits@D@std@@@std@@IBEPADXZ 0042d4b3 f i libcpmt:cout.obj
 0001:0002c4b9       ?pptr@?$basic_streambuf@DU?$char_traits@D@std@@@std@@IBEPADXZ 0042d4b9 f i libcpmt:cout.obj
 0001:0002c4bf       ?gbump@?$basic_streambuf@DU?$char_traits@D@std@@@std@@IAEXH@Z 0042d4bf f i libcpmt:cout.obj
 0001:0002c4d5       ?_Gninc@?$basic_streambuf@DU?$char_traits@D@std@@@std@@IAEPADXZ 0042d4d5 f i libcpmt:cout.obj
 0001:0002c4e5       ?_Gnavail@?$basic_streambuf@DU?$char_traits@D@std@@@std@@IBEHXZ 0042d4e5 f i libcpmt:cout.obj
 0001:0002c4f4       ?pbump@?$basic_streambuf@DU?$char_traits@D@std@@@std@@IAEXH@Z 0042d4f4 f i libcpmt:cout.obj
 0001:0002c50a       ??0?$fpos@H@std@@QAE@J@Z   0042d50a f i libcpmt:cout.obj
 0001:0002c525       ?uflow@?$basic_streambuf@DU?$char_traits@D@std@@@std@@MAEHXZ 0042d525 f i libcpmt:cout.obj
 0001:0002c54c       ?seekoff@?$basic_streambuf@DU?$char_traits@D@std@@@std@@MAE?AV?$fpos@H@2@JHH@Z 0042d54c f i libcpmt:cout.obj
 0001:0002c56b       ?seekpos@?$basic_streambuf@DU?$char_traits@D@std@@@std@@MAE?AV?$fpos@H@2@V32@H@Z 0042d56b f i libcpmt:cout.obj
 0001:0002c58a       ??_E?$basic_ostream@DU?$char_traits@D@std@@@std@@UAEPAXI@Z 0042d58a f i libcpmt:cout.obj
 0001:0002c58a       ??_G?$basic_ostream@DU?$char_traits@D@std@@@std@@UAEPAXI@Z 0042d58a f i libcpmt:cout.obj
 0001:0002c5ae       ??_G?$basic_streambuf@DU?$char_traits@D@std@@@std@@UAEPAXI@Z 0042d5ae f i libcpmt:cout.obj
 0001:0002c5ae       ??_E?$basic_streambuf@DU?$char_traits@D@std@@@std@@UAEPAXI@Z 0042d5ae f i libcpmt:cout.obj
 0001:0002c5cf       ??D?$_String_iterator@DU?$char_traits@D@std@@V?$allocator@D@2@@std@@QBEAADXZ 0042d5cf f i libcpmt:cout.obj
 0001:0002c5d4       ?_Init@?$basic_streambuf@DU?$char_traits@D@std@@@std@@IAEXXZ 0042d5d4 f i libcpmt:cout.obj
 0001:0002c616       ??0?$_String_const_iterator@DU?$char_traits@D@std@@V?$allocator@D@2@@std@@QAE@PBDPBV_Container_base_secure@1@@Z 0042d616 f i libcpmt:cout.obj
 0001:0002c669       ?_Xsgetn_s@?$basic_streambuf@DU?$char_traits@D@std@@@std@@MAEHPADIH@Z 0042d669 f i libcpmt:cout.obj
 0001:0002c6e6       ?xsputn@?$basic_streambuf@DU?$char_traits@D@std@@@std@@MAEHPBDH@Z 0042d6e6 f i libcpmt:cout.obj
 0001:0002c765       ??0?$basic_streambuf@DU?$char_traits@D@std@@@std@@IAE@XZ 0042d765 f i libcpmt:cout.obj
 0001:0002c7b1       ?_Init@?$basic_filebuf@DU?$char_traits@D@std@@@std@@IAEXPAU_iobuf@@W4_Initfl@12@@Z 0042d7b1 f i libcpmt:cout.obj
 0001:0002c7fc       ??0?$_String_iterator@DU?$char_traits@D@std@@V?$allocator@D@2@@std@@QAE@PADPBV_Container_base_secure@1@@Z 0042d7fc f i libcpmt:cout.obj
 0001:0002c816       ??0?$basic_filebuf@DU?$char_traits@D@std@@@std@@QAE@PAU_iobuf@@@Z 0042d816 f i libcpmt:cout.obj
 0001:0002c83c       ?not_eof@?$char_traits@D@std@@SAHABH@Z 0042d83c f i libcpmt:cout.obj
 0001:0002c851       ??0codecvt_base@std@@QAE@I@Z 0042d851 f i libcpmt:cout.obj
 0001:0002c868       ?always_noconv@codecvt_base@std@@QBE_NXZ 0042d868 f i libcpmt:cout.obj
 0001:0002c86d       ??1codecvt_base@std@@UAE@XZ 0042d86d f i libcpmt:cout.obj
 0001:0002c874       ?do_always_noconv@codecvt_base@std@@MBE_NXZ 0042d874 f i libcpmt:cout.obj
 0001:0002c877       ?do_max_length@codecvt_base@std@@MBEHXZ 0042d877 f i libcpmt:cout.obj
 0001:0002c87b       ?do_encoding@codecvt_base@std@@MBEHXZ 0042d87b f i libcpmt:cout.obj
 0001:0002c87f       ??_Gcodecvt_base@std@@UAEPAXI@Z 0042d87f f i libcpmt:cout.obj
 0001:0002c87f       ??_Ecodecvt_base@std@@UAEPAXI@Z 0042d87f f i libcpmt:cout.obj
 0001:0002c8a1       ??$_Fgetc@D@std@@YA_NAADPAU_iobuf@@@Z 0042d8a1 f i libcpmt:cout.obj
 0001:0002c8c1       ??$_Fputc@D@std@@YA_NDPAU_iobuf@@@Z 0042d8c1 f i libcpmt:cout.obj
 0001:0002c8e1       ??$_Ungetc@D@std@@YA_NABDPAU_iobuf@@@Z 0042d8e1 f i libcpmt:cout.obj
 0001:0002c903       ?sync@?$basic_filebuf@DU?$char_traits@D@std@@@std@@MAEHXZ 0042d903 f i libcpmt:cout.obj
 0001:0002c930       ?eback@?$basic_streambuf@DU?$char_traits@D@std@@@std@@IBEPADXZ 0042d930 f i libcpmt:cout.obj
 0001:0002c936       ?egptr@?$basic_streambuf@DU?$char_traits@D@std@@@std@@IBEPADXZ 0042d936 f i libcpmt:cout.obj
 0001:0002c941       ?epptr@?$basic_streambuf@DU?$char_traits@D@std@@@std@@IBEPADXZ 0042d941 f i libcpmt:cout.obj
 0001:0002c94c       ?_Gndec@?$basic_streambuf@DU?$char_traits@D@std@@@std@@IAEPADXZ 0042d94c f i libcpmt:cout.obj
 0001:0002c95c       ??0?$fpos@H@std@@QAE@H_J@Z 0042d95c f i libcpmt:cout.obj
 0001:0002c97c       ?state@?$fpos@H@std@@QBEHXZ 0042d97c f i libcpmt:cout.obj
 0001:0002c980       ?seekpos@?$fpos@H@std@@QBE_JXZ 0042d980 f i libcpmt:cout.obj
 0001:0002c987       ??B?$fpos@H@std@@QBEJXZ    0042d987 f i libcpmt:cout.obj
 0001:0002c98d       ?in@?$codecvt@DDH@std@@QBEHAAHPBD1AAPBDPAD3AAPAD@Z 0042d98d f i libcpmt:cout.obj
 0001:0002c998       ?out@?$codecvt@DDH@std@@QBEHAAHPBD1AAPBDPAD3AAPAD@Z 0042d998 f i libcpmt:cout.obj
 0001:0002c9a3       ?_Init@?$codecvt@DDH@std@@IAEXABV_Locinfo@2@@Z 0042d9a3 f i libcpmt:cout.obj
 0001:0002c9a6       ?pbackfail@?$basic_filebuf@DU?$char_traits@D@std@@@std@@MAEHH@Z 0042d9a6 f i libcpmt:cout.obj
 0001:0002ca12       ?underflow@?$basic_filebuf@DU?$char_traits@D@std@@@std@@MAEHXZ 0042da12 f i libcpmt:cout.obj
 0001:0002ca50       ??0?$codecvt@DDH@std@@QAE@ABV_Locinfo@1@I@Z 0042da50 f i libcpmt:cout.obj
 0001:0002ca67       ??1?$codecvt@DDH@std@@MAE@XZ 0042da67 f i libcpmt:cout.obj
 0001:0002ca6e       ?do_in@?$codecvt@DDH@std@@MBEHAAHPBD1AAPBDPAD3AAPAD@Z 0042da6e f i libcpmt:cout.obj
 0001:0002ca8a       ?do_out@?$codecvt@DDH@std@@MBEHAAHPBD1AAPBDPAD3AAPAD@Z 0042da8a f i libcpmt:cout.obj
 0001:0002caa6       ?do_unshift@?$codecvt@DDH@std@@MBEHAAHPAD1AAPAD@Z 0042daa6 f i libcpmt:cout.obj
 0001:0002caba       ?do_length@?$codecvt@DDH@std@@MBEHABHPBD1I@Z 0042daba f i libcpmt:cout.obj
 0001:0002cad1       ??_G?$codecvt@DDH@std@@MAEPAXI@Z 0042dad1 f i libcpmt:cout.obj
 0001:0002cad1       ??_E?$codecvt@DDH@std@@MAEPAXI@Z 0042dad1 f i libcpmt:cout.obj
 0001:0002caf3       ?_Initcvt@?$basic_filebuf@DU?$char_traits@D@std@@@std@@IAEXPAV?$codecvt@DDH@2@@Z 0042daf3 f i libcpmt:cout.obj
 0001:0002cb20       ?setbuf@?$basic_filebuf@DU?$char_traits@D@std@@@std@@MAEPAV?$basic_streambuf@DU?$char_traits@D@std@@@2@PADH@Z 0042db20 f i libcpmt:cout.obj
 0001:0002cb69       ?begin@?$basic_string@DU?$char_traits@D@std@@V?$allocator@D@2@@std@@QAE?AV?$_String_iterator@DU?$char_traits@D@std@@V?$allocator@D@2@@2@XZ 0042db69 f i libcpmt:cout.obj
 0001:0002cb8d       ?assign@?$basic_string@DU?$char_traits@D@std@@V?$allocator@D@2@@std@@QAEAAV12@ID@Z 0042db8d f i libcpmt:cout.obj
 0001:0002cbce       ?uflow@?$basic_filebuf@DU?$char_traits@D@std@@@std@@MAEHXZ 0042dbce f i libcpmt:cout.obj
 0001:0002cd67       ??0?$basic_string@DU?$char_traits@D@std@@V?$allocator@D@2@@std@@QAE@ID@Z 0042dd67 f i libcpmt:cout.obj
 0001:0002cd91       ?_Endwrite@?$basic_filebuf@DU?$char_traits@D@std@@@std@@IAE_NXZ 0042dd91 f i libcpmt:cout.obj
 0001:0002cea5       ?_Getcat@?$ctype@D@std@@SAIPAPBVfacet@locale@2@PBV42@@Z 0042dea5 f i libcpmt:cout.obj
 0001:0002cf46       ?overflow@?$basic_filebuf@DU?$char_traits@D@std@@@std@@MAEHH@Z 0042df46 f i libcpmt:cout.obj
 0001:0002d0f5       ?seekoff@?$basic_filebuf@DU?$char_traits@D@std@@@std@@MAE?AV?$fpos@H@2@JHH@Z 0042e0f5 f i libcpmt:cout.obj
 0001:0002d1a3       ?seekpos@?$basic_filebuf@DU?$char_traits@D@std@@@std@@MAE?AV?$fpos@H@2@V32@H@Z 0042e1a3 f i libcpmt:cout.obj
 0001:0002d259       ?close@?$basic_filebuf@DU?$char_traits@D@std@@@std@@QAEPAV12@XZ 0042e259 f i libcpmt:cout.obj
 0001:0002d2a4       ??$use_facet@V?$ctype@D@std@@@std@@YAABV?$ctype@D@0@ABVlocale@0@@Z 0042e2a4 f i libcpmt:cout.obj
 0001:0002d341       ?_Getcat@?$codecvt@DDH@std@@SAIPAPBVfacet@locale@2@PBV42@@Z 0042e341 f i libcpmt:cout.obj
 0001:0002d3df       ?clear@ios_base@std@@QAEXH@Z 0042e3df f i libcpmt:cout.obj
 0001:0002d3f2       ?_Init@ios_base@std@@IAEXXZ 0042e3f2 f i libcpmt:cout.obj
 0001:0002d43e       ??1?$basic_filebuf@DU?$char_traits@D@std@@@std@@UAE@XZ 0042e43e f i libcpmt:cout.obj
 0001:0002d475       ??_E?$basic_filebuf@DU?$char_traits@D@std@@@std@@UAEPAXI@Z 0042e475 f i libcpmt:cout.obj
 0001:0002d475       ??_G?$basic_filebuf@DU?$char_traits@D@std@@@std@@UAEPAXI@Z 0042e475 f i libcpmt:cout.obj
 0001:0002d496       ?widen@?$basic_ios@DU?$char_traits@D@std@@@std@@QBEDD@Z 0042e496 f i libcpmt:cout.obj
 0001:0002d4d6       ??$use_facet@V?$codecvt@DDH@std@@@std@@YAABV?$codecvt@DDH@0@ABVlocale@0@@Z 0042e4d6 f i libcpmt:cout.obj
 0001:0002d573       ?imbue@?$basic_filebuf@DU?$char_traits@D@std@@@std@@MAEXABVlocale@2@@Z 0042e573 f i libcpmt:cout.obj
 0001:0002d591       ?init@?$basic_ios@DU?$char_traits@D@std@@@std@@IAEXPAV?$basic_streambuf@DU?$char_traits@D@std@@@2@_N@Z 0042e591 f i libcpmt:cout.obj
 0001:0002d5e1       ??0?$basic_ostream@DU?$char_traits@D@std@@@std@@QAE@PAV?$basic_streambuf@DU?$char_traits@D@std@@@1@_N@Z 0042e5e1 f i libcpmt:cout.obj
 0001:0002d67d       __GetLocaleForCP           0042e67d f   libcpmt:xmbtowc.obj
 0001:0002d76b       __Mbrtowc                  0042e76b f   libcpmt:xmbtowc.obj
 0001:0002d8df       __Once                     0042e8df f   libcpmt:xmtx.obj
 0001:0002d91a       __Mtxinit                  0042e91a f   libcpmt:xmtx.obj
 0001:0002d92a       __Mtxdst                   0042e92a f   libcpmt:xmtx.obj
 0001:0002d93a       __Mtxlock                  0042e93a f   libcpmt:xmtx.obj
 0001:0002d94a       __Mtxunlock                0042e94a f   libcpmt:xmtx.obj
 0001:0002d95a       ?_Atexit@@YAXP6AXXZ@Z      0042e95a f   libcpmt:iosptrs.obj
 0001:0002d980       ??1_Init_atexit@@QAE@XZ    0042e980 f i libcpmt:iosptrs.obj
 0001:0002d9a5       __Tolower                  0042e9a5 f   libcpmt:_tolower.obj
 0001:0002dab2       __Getctype                 0042eab2 f   libcpmt:_tolower.obj
 0001:0002db12       ?_Callfns@ios_base@std@@AAEXW4event@12@@Z 0042eb12 f i libcpmt:ios.obj
 0001:0002db39       ?_Tidy@ios_base@std@@AAAXXZ 0042eb39 f i libcpmt:ios.obj
 0001:0002db84       ?_Fpz_func@std@@YAAA_JXZ   0042eb84 f   libcpmt:ios.obj
 0001:0002db8a       ?_BADOFF_func@std@@YAABJXZ 0042eb8a f   libcpmt:ios.obj
 0001:0002db90       ?_Index_func@ios_base@std@@CAAAHXZ 0042eb90 f   libcpmt:ios.obj
 0001:0002db96       ?_Sync_func@ios_base@std@@CAAA_NXZ 0042eb96 f   libcpmt:ios.obj
 0001:0002db9c       ?_Addstd@ios_base@std@@SAXPAV12@@Z 0042eb9c f   libcpmt:ios.obj
 0001:0002dbee       ?_Ios_base_dtor@ios_base@std@@CAXPAV12@@Z 0042ebee f   libcpmt:ios.obj
 0001:0002dc2a       __Toupper                  0042ec2a f   libcpmt:_toupper.obj
 0001:0002dd40       _strstr                    0042ed40 f   LIBCMT:strstr.obj
 0001:0002ddc6       ??0exception@std@@QAE@XZ   0042edc6 f   LIBCMT:stdexcpt.obj
 0001:0002ddd7       ??0exception@std@@QAE@ABQBD@Z 0042edd7 f   LIBCMT:stdexcpt.obj
 0001:0002de2a       ??0exception@std@@QAE@ABQBDH@Z 0042ee2a f   LIBCMT:stdexcpt.obj
 0001:0002de47       ??0exception@std@@QAE@ABV01@@Z 0042ee47 f   LIBCMT:stdexcpt.obj
 0001:0002dea4       ??4exception@std@@QAEAAV01@ABV01@@Z 0042eea4 f   LIBCMT:stdexcpt.obj
 0001:0002deff       ??1exception@std@@UAE@XZ   0042eeff f   LIBCMT:stdexcpt.obj
 0001:0002df15       ?what@exception@std@@UBEPBDXZ 0042ef15 f   LIBCMT:stdexcpt.obj
 0001:0002df22       ??0bad_cast@std@@QAE@PBD@Z 0042ef22 f   LIBCMT:stdexcpt.obj
 0001:0002df40       ??0bad_cast@std@@QAE@ABV01@@Z 0042ef40 f   LIBCMT:stdexcpt.obj
 0001:0002df5d       ??1bad_cast@std@@UAE@XZ    0042ef5d f   LIBCMT:stdexcpt.obj
 0001:0002df68       ??0bad_typeid@std@@QAE@PBD@Z 0042ef68 f   LIBCMT:stdexcpt.obj
 0001:0002df86       ??0bad_typeid@std@@QAE@ABV01@@Z 0042ef86 f   LIBCMT:stdexcpt.obj
 0001:0002dfa3       ??1bad_typeid@std@@UAE@XZ  0042efa3 f   LIBCMT:stdexcpt.obj
 0001:0002dfae       ??0__non_rtti_object@std@@QAE@PBD@Z 0042efae f   LIBCMT:stdexcpt.obj
 0001:0002dfcb       ??0__non_rtti_object@std@@QAE@ABV01@@Z 0042efcb f   LIBCMT:stdexcpt.obj
 0001:0002dfe8       ??1__non_rtti_object@std@@UAE@XZ 0042efe8 f   LIBCMT:stdexcpt.obj
 0001:0002dff3       ??_Gexception@std@@UAEPAXI@Z 0042eff3 f i LIBCMT:stdexcpt.obj
 0001:0002dff3       ??_Eexception@std@@UAEPAXI@Z 0042eff3 f i LIBCMT:stdexcpt.obj
 0001:0002e014       ??_Gbad_cast@std@@UAEPAXI@Z 0042f014 f i LIBCMT:stdexcpt.obj
 0001:0002e014       ??_Ebad_cast@std@@UAEPAXI@Z 0042f014 f i LIBCMT:stdexcpt.obj
 0001:0002e03b       ??_Ebad_typeid@std@@UAEPAXI@Z 0042f03b f i LIBCMT:stdexcpt.obj
 0001:0002e03b       ??_Gbad_typeid@std@@UAEPAXI@Z 0042f03b f i LIBCMT:stdexcpt.obj
 0001:0002e062       ??_G__non_rtti_object@std@@UAEPAXI@Z 0042f062 f i LIBCMT:stdexcpt.obj
 0001:0002e062       ??_E__non_rtti_object@std@@UAEPAXI@Z 0042f062 f i LIBCMT:stdexcpt.obj
 0001:0002e089       ?name@type_info@@QBEPBDPAU__type_info_node@@@Z 0042f089 f   LIBCMT:typinfo.obj
 0001:0002e09d       ??1type_info@@UAE@XZ       0042f09d f   LIBCMT:typinfo.obj
 0001:0002e0ad       ??_Gtype_info@@UAEPAXI@Z   0042f0ad f i LIBCMT:typinfo.obj
 0001:0002e0ad       ??_Etype_info@@UAEPAXI@Z   0042f0ad f i LIBCMT:typinfo.obj
 0001:0002e0ce       ?_name_internal_method@type_info@@QBEPBDPAU__type_info_node@@@Z 0042f0ce f   LIBCMT:typinfo.obj
 0001:0002e0e2       ?_type_info_dtor_internal_method@type_info@@QAEXXZ 0042f0e2 f   LIBCMT:typinfo.obj
 0001:0002e0ec       ??8type_info@@QBE_NABV0@@Z 0042f0ec f   LIBCMT:typinfo.obj
 0001:0002e10c       ??9type_info@@QBE_NABV0@@Z 0042f10c f   LIBCMT:typinfo.obj
 0001:0002e12d       ?before@type_info@@QBEHABV1@@Z 0042f12d f   LIBCMT:typinfo.obj
 0001:0002e151       ?raw_name@type_info@@QBEPBDXZ 0042f151 f   LIBCMT:typinfo.obj
 0001:0002e155       ??0type_info@@AAE@ABV0@@Z  0042f155 f   LIBCMT:typinfo.obj
 0001:0002e160       ??4type_info@@AAEAAV0@ABV0@@Z 0042f160 f   LIBCMT:typinfo.obj
 0001:0002e165       ??3@YAXPAX@Z               0042f165 f   LIBCMT:delete.obj
 0001:0002e170       _memcpy_s                  0042f170 f   LIBCMT:memcpy_s.obj
 0001:0002e1ed       _memmove_s                 0042f1ed f   LIBCMT:memmove_s.obj
 0001:0002e24a       __initp_misc_invarg        0042f24a f   LIBCMT:invarg.obj
 0001:0002e259       __invoke_watson            0042f259 f   LIBCMT:invarg.obj
 0001:0002e381       __set_invalid_parameter_handler 0042f381 f   LIBCMT:invarg.obj
 0001:0002e3a8       __get_invalid_parameter_handler 0042f3a8 f   LIBCMT:invarg.obj
 0001:0002e3b5       ?_invoke_watson@@YAXPBG00II@Z 0042f3b5 f   LIBCMT:invarg.obj
 0001:0002e3c0       __invalid_parameter        0042f3c0 f   LIBCMT:invarg.obj
 0001:0002e3e6       __invalid_parameter_noinfo 0042f3e6 f   LIBCMT:invarg.obj
 0001:0002e3f6       ?_invalid_parameter@@YAXPBG00II@Z 0042f3f6 f   LIBCMT:invarg.obj
 0001:0002e401       ??0bad_alloc@std@@QAE@XZ   0042f401 f i LIBCMT:new.obj
 0001:0002e41c       ??2@YAPAXI@Z               0042f41c f   LIBCMT:new.obj
 0001:0002e481       __CxxThrowException@8      0042f481 f   LIBCMT:throw.obj
 0001:0002e4cd       ?_JumpToContinuation@@YGXPAXPAUEHRegistrationNode@@@Z 0042f4cd f   LIBCMT:_trnsctrl_.obj
 0001:0002e4ff       ?_CallMemberFunction0@@YGXPAX0@Z 0042f4ff f   LIBCMT:_trnsctrl_.obj
 0001:0002e506       ?_CallMemberFunction1@@YGXPAX00@Z 0042f506 f   LIBCMT:_trnsctrl_.obj
 0001:0002e50d       ?_CallMemberFunction2@@YGXPAX00H@Z 0042f50d f   LIBCMT:_trnsctrl_.obj
 0001:0002e514       ?_UnwindNestedFrames@@YGXPAUEHRegistrationNode@@PAUEHExceptionRecord@@@Z 0042f514 f   LIBCMT:_trnsctrl_.obj
 0001:0002e568       ___CxxFrameHandler         0042f568 f   LIBCMT:_trnsctrl_.obj
 0001:0002e59e       ___CxxFrameHandler3        0042f59e f   LIBCMT:_trnsctrl_.obj
 0001:0002e5d4       ___CxxFrameHandler2        0042f5d4 f   LIBCMT:_trnsctrl_.obj
 0001:0002e60a       ___CxxLongjmpUnwind@4      0042f60a f   LIBCMT:_trnsctrl_.obj
 0001:0002e65c       ?_CallSETranslator@@YAHPAUEHExceptionRecord@@PAUEHRegistrationNode@@PAX2PBU_s_FuncInfo@@H1@Z 0042f65c f   LIBCMT:_trnsctrl_.obj
 0001:0002e7d2       ?_GetRangeOfTrysToCheck@@YAPBU_s_TryBlockMapEntry@@PBU_s_FuncInfo@@HHPAI1@Z 0042f7d2 f   LIBCMT:_trnsctrl_.obj
 0001:0002e847       __CreateFrameInfo          0042f847 f   LIBCMT:_trnsctrl_.obj
 0001:0002e873       __IsExceptionObjectToBeDestroyed 0042f873 f   LIBCMT:_trnsctrl_.obj
 0001:0002e89a       __FindAndUnlinkFrame       0042f89a f   LIBCMT:_trnsctrl_.obj
 0001:0002e8ec       ?_CallCatchBlock2@@YAPAXPAUEHRegistrationNode@@PBU_s_FuncInfo@@PAXHK@Z 0042f8ec f   LIBCMT:_trnsctrl_.obj
 0001:0002e94c       @__security_check_cookie@4 0042f94c f   LIBCMT:secchk.obj
 0001:0002e95b       __fpclear                  0042f95b f   LIBCMT:_fpinit_.obj
 0001:0002e95c       __cfltcvt_init             0042f95c f   LIBCMT:_fpinit_.obj
 0001:0002e9bc       ___setfflag                0042f9bc f   LIBCMT:_fpinit_.obj
 0001:0002e9d1       __fpmath                   0042f9d1 f   LIBCMT:_fpinit_.obj
 0001:0002e9f4       _sprintf                   0042f9f4 f   LIBCMT:sprintf.obj
 0001:0002ea71       __sprintf_l                0042fa71 f   LIBCMT:sprintf.obj
 0001:0002ea8d       _sprintf_s                 0042fa8d f   LIBCMT:sprintf.obj
 0001:0002eaab       __sprintf_s_l              0042faab f   LIBCMT:sprintf.obj
 0001:0002eaca       __snprintf_s               0042faca f   LIBCMT:sprintf.obj
 0001:0002eaeb       __snprintf_s_l             0042faeb f   LIBCMT:sprintf.obj
 0001:0002eb0d       __sprintf_p                0042fb0d f   LIBCMT:sprintf.obj
 0001:0002eb2b       __sprintf_p_l              0042fb2b f   LIBCMT:sprintf.obj
 0001:0002eb4a       __scprintf                 0042fb4a f   LIBCMT:sprintf.obj
 0001:0002eb5f       __scprintf_p               0042fb5f f   LIBCMT:sprintf.obj
 0001:0002eb74       __scprintf_l               0042fb74 f   LIBCMT:sprintf.obj
 0001:0002eb8d       __scprintf_p_l             0042fb8d f   LIBCMT:sprintf.obj
 0001:0002eba6       __fclose_nolock            0042fba6 f   LIBCMT:fclose.obj
 0001:0002ec1d       _fclose                    0042fc1d f   LIBCMT:fclose.obj
 0001:0002ec99       _feof                      0042fc99 f   LIBCMT:feoferr.obj
 0001:0002eccd       _ferror                    0042fccd f   LIBCMT:feoferr.obj
 0001:0002ed6b       _sscanf                    0042fd6b f   LIBCMT:sscanf.obj
 0001:0002ed8d       __sscanf_l                 0042fd8d f   LIBCMT:sscanf.obj
 0001:0002edb0       _sscanf_s                  0042fdb0 f   LIBCMT:sscanf.obj
 0001:0002edd2       __sscanf_s_l               0042fdd2 f   LIBCMT:sscanf.obj
 0001:0002edf5       _fgets                     0042fdf5 f   LIBCMT:fgets.obj
 0001:0002ef3d       __fsopen                   0042ff3d f   LIBCMT:fopen.obj
 0001:0002f001       _fopen                     00430001 f   LIBCMT:fopen.obj
 0001:0002f018       _fopen_s                   00430018 f   LIBCMT:fopen.obj
 0001:0002f070       __alloca_probe             00430070     LIBCMT:chkstk.obj
 0001:0002f070       __chkstk                   00430070 f   LIBCMT:chkstk.obj
 0001:0002f0a0       _memset                    004300a0 f   LIBCMT:memset.obj
 0001:0002f1d4       ___onexitinit              004301d4 f   LIBCMT:onexit.obj
 0001:0002f205       __onexit                   00430205 f   LIBCMT:onexit.obj
 0001:0002f241       _atexit                    00430241 f   LIBCMT:onexit.obj
 0001:0002f258       __fwrite_nolock            00430258 f   LIBCMT:fwrite.obj
 0001:0002f3ba       _fwrite                    004303ba f   LIBCMT:fwrite.obj
 0001:0002f43c       _V6_HeapAlloc              0043043c f   LIBCMT:malloc.obj
 0001:0002f48b       __heap_alloc               0043048b f i LIBCMT:malloc.obj
 0001:0002f505       _malloc                    00430505 f   LIBCMT:malloc.obj
 0001:0002f5cf       _free                      004305cf f   LIBCMT:free.obj
 0001:0002f65d       __fread_nolock_s           0043065d f   LIBCMT:fread.obj
 0001:0002f867       __fread_nolock             00430867 f   LIBCMT:fread.obj
 0001:0002f884       _fread_s                   00430884 f   LIBCMT:fread.obj
 0001:0002f91a       _fread                     0043091a f   LIBCMT:fread.obj
 0001:0002f940       _memcpy                    00430940 f   LIBCMT:memcpy.obj
 0001:0002fca5       _fputc                     00430ca5 f   LIBCMT:fputc.obj
 0001:0002fdb1       _putc                      00430db1 f   LIBCMT:fputc.obj
 0001:0002febd       _fgetc                     00430ebd f   LIBCMT:fgetc.obj
 0001:0002ffc1       _getc                      00430fc1 f   LIBCMT:fgetc.obj
 0001:000300c5       __getc_nolock              004310c5 f   LIBCMT:fgetc.obj
 0001:000300e5       __crt_waiting_on_module_handle 004310e5 f   LIBCMT:crt0dat.obj
 0001:00030115       __amsg_exit                00431115 f   LIBCMT:crt0dat.obj
 0001:0003013e       ___crtCorExitProcess       0043113e f   LIBCMT:crt0dat.obj
 0001:00030169       ___crtExitProcess          00431169 f   LIBCMT:crt0dat.obj
 0001:00030181       __lockexit                 00431181 f   LIBCMT:crt0dat.obj
 0001:0003018a       __unlockexit               0043118a f   LIBCMT:crt0dat.obj
 0001:000301b0       __initterm_e               004311b0 f   LIBCMT:crt0dat.obj
 0001:000301d4       __get_wpgmptr              004311d4 f   LIBCMT:crt0dat.obj
 0001:00030210       __get_pgmptr               00431210 f   LIBCMT:crt0dat.obj
 0001:0003024c       __cinit                    0043124c f   LIBCMT:crt0dat.obj
 0001:000303fd       _exit                      004313fd f   LIBCMT:crt0dat.obj
 0001:00030413       __exit                     00431413 f   LIBCMT:crt0dat.obj
 0001:00030429       __cexit                    00431429 f   LIBCMT:crt0dat.obj
 0001:00030438       __c_exit                   00431438 f   LIBCMT:crt0dat.obj
 0001:00030447       __init_pointers            00431447 f   LIBCMT:crt0dat.obj
 0001:00030495       __vsprintf_l               00431495 f   LIBCMT:vsprintf.obj
 0001:00030513       _vsprintf                  00431513 f   LIBCMT:vsprintf.obj
 0001:0003052d       __vscprintf_helper         0043152d f   LIBCMT:vsprintf.obj
 0001:00030584       __vscprintf                00431584 f   LIBCMT:vsprintf.obj
 0001:000305a0       __vscprintf_l              004315a0 f   LIBCMT:vsprintf.obj
 0001:000305bd       __vscprintf_p              004315bd f   LIBCMT:vsprintf.obj
 0001:000305d9       __vscprintf_p_l            004315d9 f   LIBCMT:vsprintf.obj
 0001:00030600       __ftol2_sse                00431600 f   LIBCMT:ftol2.obj
 0001:00030609       __ftol2_pentium4           00431609 f   LIBCMT:ftol2.obj
 0001:0003061c       __ftol2_sse_excpt          0043161c f   LIBCMT:ftol2.obj
 0001:00030636       __ftol2                    00431636 f   LIBCMT:ftol2.obj
 0001:000306b0       _cos                       004316b0 f   LIBCMT:_cos_.obj
 0001:000306f0       __CIcos                    004316f0 f   LIBCMT:_cos_.obj
 0001:0003072b       __CIcos_default            0043172b f   LIBCMT:_cos_.obj
 0001:0003073f       __cos_default              0043173f     LIBCMT:_cos_.obj
 0001:000307e0       _floor                     004317e0 f   LIBCMT:_floor_pentium4_.obj
 0001:00030820       __floor_pentium4           00431820 f   LIBCMT:_floor_pentium4_.obj
 0001:00030910       _pow                       00431910 f   LIBCMT:_pow_.obj
 0001:00030950       __CIpow                    00431950 f   LIBCMT:_pow_.obj
 0001:0003098b       __CIpow_default            0043198b f   LIBCMT:_pow_.obj
 0001:000309a4       __pow_default              004319a4     LIBCMT:_pow_.obj
 0001:00030ba0       _sin                       00431ba0 f   LIBCMT:_sin_.obj
 0001:00030be0       __CIsin                    00431be0 f   LIBCMT:_sin_.obj
 0001:00030c1b       __CIsin_default            00431c1b f   LIBCMT:_sin_.obj
 0001:00030c2f       __sin_default              00431c2f     LIBCMT:_sin_.obj
 0001:00030cd0       __CIsqrt                   00431cd0 f   LIBCMT:_sqrt_.obj
 0001:00030ce4       _sqrt                      00431ce4     LIBCMT:_sqrt_.obj
 0001:00030da0       _strchr                    00431da0 f   LIBCMT:strchr.obj
 0001:00030da6       ___from_strstr_to_strchr   00431da6     LIBCMT:strchr.obj
 0001:00030e60       _strrchr                   00431e60 f   LIBCMT:strrchr.obj
 0001:00030e90       _acos                      00431e90 f   LIBCMT:_acos_.obj
 0001:00030ed0       __CIacos                   00431ed0 f   LIBCMT:_acos_.obj
 0001:00030f0b       __CIacos_default           00431f0b f   LIBCMT:_acos_.obj
 0001:00030f1f       __acos_default             00431f1f     LIBCMT:_acos_.obj
 0001:00030fe0       _strncpy                   00431fe0 f   LIBCMT:strncpy.obj
 0001:00031110       _atan2                     00432110 f   LIBCMT:_87ctriga_.obj
 0001:0003111a       __CIatan2                  0043211a f   LIBCMT:_87ctriga_.obj
 0001:00031124       _rewind                    00432124 f   LIBCMT:rewind.obj
 0001:000311ea       __ftell_nolock             004321ea f   LIBCMT:ftell.obj
 0001:00031387       _ftell                     00432387 f   LIBCMT:ftell.obj
 0001:000313f5       ??_V@YAXPAX@Z              004323f5 f   LIBCMT:delete2.obj
 0001:00031400       _fprintf                   00432400 f   LIBCMT:fprintf.obj
 0001:0003151c       __fprintf_l                0043251c f   LIBCMT:fprintf.obj
 0001:00031538       __fprintf_s_l              00432538 f   LIBCMT:fprintf.obj
 0001:00031554       _fprintf_s                 00432554 f   LIBCMT:fprintf.obj
 0001:0003156f       __fprintf_p_l              0043256f f   LIBCMT:fprintf.obj
 0001:0003158b       __fprintf_p                0043258b f   LIBCMT:fprintf.obj
 0001:000315a6       _remove                    004325a6 f   LIBCMT:unlink.obj
 0001:000315d6       __unlink                   004325d6 f   LIBCMT:unlink.obj
 0001:000315e1       __fseek_nolock             004325e1 f   LIBCMT:fseek.obj
 0001:0003166b       _fseek                     0043266b f   LIBCMT:fseek.obj
 0001:000316f0       __purecall                 004326f0 f   LIBCMT:purevirt.obj
 0001:0003171a       __set_purecall_handler     0043271a f   LIBCMT:purevirt.obj
 0001:00031741       __get_purecall_handler     00432741 f   LIBCMT:purevirt.obj
 0001:0003174e       _localeconv                0043274e f   LIBCMT:lconv.obj
 0001:00031780       _memchr                    00432780 f   LIBCMT:memchr.obj
 0001:00031830       _strcspn                   00432830 f   LIBCMT:strcspn.obj
 0001:00031876       ??0_LocaleUpdate@@QAE@PAUlocaleinfo_struct@@@Z 00432876 f i LIBCMT:toupper.obj
 0001:000318fd       ??1_LocaleUpdate@@QAE@XZ   004328fd f i LIBCMT:toupper.obj
 0001:0003190b       ?GetLocaleT@_LocaleUpdate@@QAEPAUlocaleinfo_struct@@XZ 0043290b f i LIBCMT:toupper.obj
 0001:0003190e       __toupper                  0043290e f   LIBCMT:toupper.obj
 0001:0003191b       __toupper_l                0043291b f   LIBCMT:toupper.obj
 0001:00031a31       _toupper                   00432a31 f   LIBCMT:toupper.obj
 0001:00031a5d       __isalpha_l                00432a5d f i LIBCMT:_ctype.obj
 0001:00031ab3       _isalpha                   00432ab3 f i LIBCMT:_ctype.obj
 0001:00031ae3       __isupper_l                00432ae3 f i LIBCMT:_ctype.obj
 0001:00031b34       _isupper                   00432b34 f i LIBCMT:_ctype.obj
 0001:00031b62       __islower_l                00432b62 f i LIBCMT:_ctype.obj
 0001:00031bb3       _islower                   00432bb3 f i LIBCMT:_ctype.obj
 0001:00031be1       __isdigit_l                00432be1 f i LIBCMT:_ctype.obj
 0001:00031c32       _isdigit                   00432c32 f i LIBCMT:_ctype.obj
 0001:00031c60       __isxdigit_l               00432c60 f i LIBCMT:_ctype.obj
 0001:00031cb6       _isxdigit                  00432cb6 f i LIBCMT:_ctype.obj
 0001:00031ce6       __isspace_l                00432ce6 f i LIBCMT:_ctype.obj
 0001:00031d37       _isspace                   00432d37 f i LIBCMT:_ctype.obj
 0001:00031d65       __ispunct_l                00432d65 f i LIBCMT:_ctype.obj
 0001:00031db6       _ispunct                   00432db6 f i LIBCMT:_ctype.obj
 0001:00031de4       __isalnum_l                00432de4 f i LIBCMT:_ctype.obj
 0001:00031e3a       _isalnum                   00432e3a f i LIBCMT:_ctype.obj
 0001:00031e6a       __isprint_l                00432e6a f i LIBCMT:_ctype.obj
 0001:00031ec0       _isprint                   00432ec0 f i LIBCMT:_ctype.obj
 0001:00031ef0       __isgraph_l                00432ef0 f i LIBCMT:_ctype.obj
 0001:00031f46       _isgraph                   00432f46 f i LIBCMT:_ctype.obj
 0001:00031f76       __iscntrl_l                00432f76 f i LIBCMT:_ctype.obj
 0001:00031fc7       _iscntrl                   00432fc7 f i LIBCMT:_ctype.obj
 0001:00031ff5       ___isascii                 00432ff5 f i LIBCMT:_ctype.obj
 0001:00032007       ___toascii                 00433007 f i LIBCMT:_ctype.obj
 0001:00032014       __iscsymf_l                00433014 f i LIBCMT:_ctype.obj
 0001:00032037       ___iscsymf                 00433037 f i LIBCMT:_ctype.obj
 0001:00032056       __iscsym_l                 00433056 f i LIBCMT:_ctype.obj
 0001:00032079       ___iscsym                  00433079 f i LIBCMT:_ctype.obj
 0001:0003209a       __atof_l                   0043309a f   LIBCMT:atof.obj
 0001:00032145       _atof                      00433145 f   LIBCMT:atof.obj
 0001:00032158       ___strgtold12              00433158 f   LIBCMT:atof.obj
 0001:0003219a       ___STRINGTOLD              0043319a f   LIBCMT:atof.obj
 0001:000321d3       _clock                     004331d3 f   LIBCMT:clock.obj
 0001:00032218       ___inittime                00433218 f   LIBCMT:clock.obj
 0001:00032251       __MarkAllocaS              00433251 f i LIBCMT:strlwr.obj
 0001:00032267       __freea                    00433267 f i LIBCMT:strlwr.obj
 0001:00032287       ?_strlwr_s_l_stat@@YAHPADIPAUlocaleinfo_struct@@@Z 00433287 f   LIBCMT:strlwr.obj
 0001:0003240a       __strlwr_s_l               0043340a f   LIBCMT:strlwr.obj
 0001:0003243e       __strlwr_s                 0043343e f   LIBCMT:strlwr.obj
 0001:00032455       __strlwr_l                 00433455 f   LIBCMT:strlwr.obj
 0001:0003246f       __strlwr                   0043346f f   LIBCMT:strlwr.obj
 0001:0003246f       _strlwr                    0043346f f   LIBCMT:strlwr.obj
 0001:000324d4       __invoke_watson_if_error   004334d4 f i LIBCMT:getenv.obj
 0001:000324f8       __getenv_helper_nolock     004334f8 f   LIBCMT:getenv.obj
 0001:000326b8       _getenv                    004336b8 f   LIBCMT:getenv.obj
 0001:0003273b       _getenv_s                  0043373b f   LIBCMT:getenv.obj
 0001:00032813       __dupenv_s                 00433813 f   LIBCMT:getenv.obj
 0001:000328f9       _printf                    004338f9 f   LIBCMT:printf.obj
 0001:000329a8       __printf_l                 004339a8 f   LIBCMT:printf.obj
 0001:000329c1       __printf_s_l               004339c1 f   LIBCMT:printf.obj
 0001:000329da       _printf_s                  004339da f   LIBCMT:printf.obj
 0001:000329f2       __printf_p_l               004339f2 f   LIBCMT:printf.obj
 0001:00032a0b       __printf_p                 00433a0b f   LIBCMT:printf.obj
 0001:00032a23       __set_printf_count_output  00433a23 f   LIBCMT:printf.obj
 0001:00032a4d       __get_printf_count_output  00433a4d f   LIBCMT:printf.obj
 0001:00032a63       _calloc                    00433a63 f   LIBCMT:calloc.obj
 0001:00032c91       _WinMainCRTStartup         00433c91 f   LIBCMT:wincrt0.obj
 0001:00032ca0       _strlen                    00433ca0 f   LIBCMT:strlen.obj
 0001:00032d2b       __EH_prolog3               00433d2b f   LIBCMT:ehprolg3.obj
 0001:00032d5e       __EH_prolog3_catch         00433d5e f   LIBCMT:ehprolg3.obj
 0001:00032d94       __EH_prolog3_GS            00433d94 f   LIBCMT:ehprolg3.obj
 0001:00032dca       __EH_prolog3_catch_GS      00433dca f   LIBCMT:ehprolg3.obj
 0001:00032e03       __EH_epilog3               00433e03 f   LIBCMT:ehprolg3.obj
 0001:00032e17       __EH_epilog3_GS            00433e17 f   LIBCMT:ehprolg3.obj
 0001:00032e26       __EH_epilog3_catch_GS      00433e26 f   LIBCMT:ehprolg3.obj
 0001:00032e35       __get_errno_from_oserr     00433e35 f   LIBCMT:dosmap.obj
 0001:00032e77       __errno                    00433e77 f   LIBCMT:dosmap.obj
 0001:00032e8a       ___doserrno                00433e8a f   LIBCMT:dosmap.obj
 0001:00032e9d       __dosmaperr                00433e9d f   LIBCMT:dosmap.obj
 0001:00032ec0       __set_errno                00433ec0 f   LIBCMT:dosmap.obj
 0001:00032ee1       __get_errno                00433ee1 f   LIBCMT:dosmap.obj
 0001:00032f10       __set_doserrno             00433f10 f   LIBCMT:dosmap.obj
 0001:00032f31       __get_doserrno             00433f31 f   LIBCMT:dosmap.obj
 0001:00032f60       ___init_ctype              00433f60 f   LIBCMT:initctyp.obj
 0001:00033302       ____mb_cur_max_func        00434302 f   LIBCMT:initctyp.obj
 0001:0003332b       ____mb_cur_max_l_func      0043432b f   LIBCMT:initctyp.obj
 0001:00033347       ____lc_codepage_func       00434347 f   LIBCMT:initctyp.obj
 0001:0003336d       ____lc_collate_cp_func     0043436d f   LIBCMT:initctyp.obj
 0001:00033393       ____lc_handle_func         00434393 f   LIBCMT:initctyp.obj
 0001:000333b9       _abort                     004343b9 f   LIBCMT:abort.obj
 0001:000334d0       __set_abort_behavior       004344d0 f   LIBCMT:abort.obj
 0001:000334f1       ____setlc_active_func      004344f1 f   LIBCMT:setlocal.obj
 0001:000334f7       ____unguarded_readlc_active_add_func 004344f7 f   LIBCMT:setlocal.obj
 0001:000334fd       ___freetlocinfo            004344fd f   LIBCMT:setlocal.obj
 0001:00033646       ___addlocaleref            00434646 f   LIBCMT:setlocal.obj
 0001:000336d5       ___removelocaleref         004346d5 f   LIBCMT:setlocal.obj
 0001:000337d2       ___updatetlocinfo          004347d2 f   LIBCMT:setlocal.obj
 0001:00033848       __configthreadlocale       00434848 f   LIBCMT:setlocal.obj
 0001:00033905       __free_locale              00434905 f   LIBCMT:setlocal.obj
 0001:000339c7       ___free_locale             004349c7 f   LIBCMT:setlocal.obj
 0001:000339d2       __get_current_locale       004349d2 f   LIBCMT:setlocal.obj
 0001:00033a81       ___get_current_locale      00434a81 f   LIBCMT:setlocal.obj
 0001:00033a86       ___init_dummy              00434a86 f   LIBCMT:setlocal.obj
 0001:00033a89       __strcats                  00434a89 f   LIBCMT:setlocal.obj
 0001:00033ac9       ___lc_strtolc              00434ac9 f   LIBCMT:setlocal.obj
 0001:00033bf2       ___lc_lctostr              00434bf2 f   LIBCMT:setlocal.obj
 0001:00033ddc       __expandlocale             00434ddc f   LIBCMT:setlocal.obj
 0001:0003452a       __create_locale            0043552a f   LIBCMT:setlocal.obj
 0001:0003461f       ___create_locale           0043561f f   LIBCMT:setlocal.obj
 0001:0003462a       _setlocale                 0043562a f   LIBCMT:setlocal.obj
 0001:0003479a       ??0bad_exception@std@@QAE@PBD@Z 0043579a f i LIBCMT:frame.obj
 0001:000347b8       ??1bad_exception@std@@UAE@XZ 004357b8 f i LIBCMT:frame.obj
 0001:000347c3       ??_Gbad_exception@std@@UAEPAXI@Z 004357c3 f i LIBCMT:frame.obj
 0001:000347c3       ??_Ebad_exception@std@@UAEPAXI@Z 004357c3 f i LIBCMT:frame.obj
 0001:000347ea       ___TypeMatch               004357ea f   LIBCMT:frame.obj
 0001:00034849       ___FrameUnwindFilter       00435849 f   LIBCMT:frame.obj
 0001:00034892       ___FrameUnwindToState      00435892 f   LIBCMT:frame.obj
 0001:000349b8       ___DestructExceptionObject 004359b8 f   LIBCMT:frame.obj
 0001:00034a0d       ___AdjustPointer           00435a0d f   LIBCMT:frame.obj
 0001:00034a36       ?__uncaught_exception@@YA_NXZ 00435a36 f   LIBCMT:frame.obj
 0001:00034a49       ___CxxRegisterExceptionObject 00435a49 f   LIBCMT:frame.obj
 0001:00034b00       ___CxxDetectRethrow        00435b00 f   LIBCMT:frame.obj
 0001:00034b52       ___CxxUnregisterExceptionObject 00435b52 f   LIBCMT:frame.obj
 0001:00034c91       ___CxxQueryExceptionSize   00435c91 f   LIBCMT:frame.obj
 0001:00034c95       ___CxxCallUnwindDtor       00435c95 f   LIBCMT:frame.obj
 0001:00034cc7       ___CxxCallUnwindDelDtor    00435cc7 f   LIBCMT:frame.obj
 0001:00034cfa       ___CxxCallUnwindStdDelDtor 00435cfa f   LIBCMT:frame.obj
 0001:00034d2c       ___CxxCallUnwindVecDtor    00435d2c f   LIBCMT:frame.obj
 0001:00034e5d       ?_is_exception_typeof@@YAHABVtype_info@@PAU_EXCEPTION_POINTERS@@@Z 00435e5d f   LIBCMT:frame.obj
 0001:0003507f       ___BuildCatchObjectHelper  0043607f f   LIBCMT:frame.obj
 0001:000351fe       ___BuildCatchObject        004361fe f   LIBCMT:frame.obj
 0001:00035290       ___CxxExceptionFilter      00436290 f   LIBCMT:frame.obj
 0001:0003587e       ??0bad_exception@std@@QAE@ABV01@@Z 0043687e f i LIBCMT:frame.obj
 0001:0003589b       ___InternalCxxFrameHandler 0043689b f   LIBCMT:frame.obj
 0001:00035981       __ungetc_nolock            00436981 f   LIBCMT:ungetc.obj
 0001:00035a72       _ungetc                    00436a72 f   LIBCMT:ungetc.obj
 0001:00035ae4       __flush                    00436ae4 f   LIBCMT:fflush.obj
 0001:00035b4c       __fflush_nolock            00436b4c f   LIBCMT:fflush.obj
 0001:00035c6e       _fflush                    00436c6e f   LIBCMT:fflush.obj
 0001:00035cc1       __flushall                 00436cc1 f   LIBCMT:fflush.obj
 0001:00035cca       _setvbuf                   00436cca f   LIBCMT:setvbuf.obj
 0001:00035dc8       _fgetpos                   00436dc8 f   LIBCMT:fgetpos.obj
 0001:00035e36       _fsetpos                   00436e36 f   LIBCMT:fsetpos.obj
 0001:00035e7b       ___iob_func                00436e7b f   LIBCMT:_file.obj
 0001:00035e81       ___initstdio               00436e81 f   LIBCMT:_file.obj
 0001:00035f32       ___endstdio                00436f32 f   LIBCMT:_file.obj
 0001:00035f52       __lock_file                00436f52 f   LIBCMT:_file.obj
 0001:00035f93       __lock_file2               00436f93 f   LIBCMT:_file.obj
 0001:00035fc5       __unlock_file              00436fc5 f   LIBCMT:_file.obj
 0001:00036001       __unlock_file2             00437001 f   LIBCMT:_file.obj
 0001:0003610d       __itoa_s                   0043710d f   LIBCMT:xtoas.obj
 0001:00036137       __ltoa_s                   00437137 f   LIBCMT:xtoas.obj
 0001:0003615e       __ultoa_s                  0043715e f   LIBCMT:xtoas.obj
 0001:00036270       __i64toa_s                 00437270 f   LIBCMT:xtoas.obj
 0001:000362a5       __ui64toa_s                004372a5 f   LIBCMT:xtoas.obj
 0001:000362c4       _wait_a_bit                004372c4 f i LIBCMT:crtheap.obj
 0001:000362ea       __set_malloc_crt_max_wait  004372ea f   LIBCMT:crtheap.obj
 0001:000362ff       __malloc_crt               004372ff f   LIBCMT:crtheap.obj
 0001:00036344       __calloc_crt               00437344 f   LIBCMT:crtheap.obj
 0001:00036390       __realloc_crt              00437390 f   LIBCMT:crtheap.obj
 0001:000363de       __recalloc_crt             004373de f   LIBCMT:crtheap.obj
 0001:00036430       ___pwctype_func            00437430 f   LIBCMT:ctype.obj
 0001:00036436       ___pctype_func             00437436 f   LIBCMT:ctype.obj
 0001:00036822       ___crtLCMapStringA         00437822 f   LIBCMT:a_map.obj
 0001:00036867       _strcpy_s                  00437867 f   LIBCMT:strcpy_s.obj
 0001:000368cf       ?_Type_info_dtor@type_info@@CAXPAV1@@Z 004378cf f   LIBCMT:typname.obj
 0001:0003693f       ?_Name_base@type_info@@CAPBDPBV1@PAU__type_info_node@@@Z 0043793f f   LIBCMT:typname.obj
 0001:00036a34       ?_Type_info_dtor_internal@type_info@@CAXPAV1@@Z 00437a34 f   LIBCMT:typname.obj
 0001:00036aa4       ___unDNameHelper           00437aa4 f   LIBCMT:typname.obj
 0001:00036ad7       ?_Name_base_internal@type_info@@CAPBDPBV1@PAU__type_info_node@@@Z 00437ad7 f   LIBCMT:typname.obj
 0001:00036be6       ___clean_type_info_names_internal 00437be6 f   LIBCMT:typname.obj
 0001:00036c40       _strcmp                    00437c40 f   LIBCMT:strcmp.obj
 0001:00036cd0       _memmove                   00437cd0 f   LIBCMT:memmove.obj
 0001:00037035       __crt_debugger_hook        00438035 f   LIBCMT:dbghook.obj
 0001:0003703d       __crt_wait_module_handle   0043803d f i LIBCMT:tidtable.obj
 0001:00037057       __encode_pointer           00438057 f   LIBCMT:tidtable.obj
 0001:000370c9       __encoded_null             004380c9 f   LIBCMT:tidtable.obj
 0001:000370d2       __decode_pointer           004380d2 f   LIBCMT:tidtable.obj
 0001:00037144       ___crtTlsAlloc@4           00438144 f   LIBCMT:tidtable.obj
 0001:0003714d       ___fls_getvalue@4          0043814d f   LIBCMT:tidtable.obj
 0001:00037167       ___get_flsindex            00438167 f   LIBCMT:tidtable.obj
 0001:0003716d       ___set_flsgetvalue         0043816d f   LIBCMT:tidtable.obj
 0001:000371a1       ___fls_setvalue@8          004381a1 f   LIBCMT:tidtable.obj
 0001:000371be       __mtterm                   004381be f   LIBCMT:tidtable.obj
 0001:000371fb       __initptd                  004381fb f   LIBCMT:tidtable.obj
 0001:000372e2       __getptd_noexit            004382e2 f   LIBCMT:tidtable.obj
 0001:0003735b       __getptd                   0043835b f   LIBCMT:tidtable.obj
 0001:00037375       __freefls@4                00438375 f   LIBCMT:tidtable.obj
 0001:000374a4       __freeptd                  004384a4 f   LIBCMT:tidtable.obj
 0001:00037512       ___threadid                00438512 f   LIBCMT:tidtable.obj
 0001:00037518       ___threadhandle            00438518 f   LIBCMT:tidtable.obj
 0001:0003751e       __mtinit                   0043851e f   LIBCMT:tidtable.obj
 0001:000376ab       __initp_heap_handler       004386ab f   LIBCMT:handler.obj
 0001:000376ba       ?_set_new_handler@@YAP6AHI@ZP6AHI@Z@Z 004386ba f   LIBCMT:handler.obj
 0001:000376f0       ?_set_new_handler@@YAP6AHI@ZH@Z 004386f0 f   LIBCMT:handler.obj
 0001:000376f9       ?_query_new_handler@@YAP6AHI@ZXZ 004386f9 f   LIBCMT:handler.obj
 0001:00037706       __callnewh                 00438706 f   LIBCMT:handler.obj
 0001:0003772e       ?terminate@@YAXXZ          0043872e f   LIBCMT:hooks.obj
 0001:00037767       ?unexpected@@YAXXZ         00438767 f   LIBCMT:hooks.obj
 0001:0003777a       ?_inconsistency@@YAXXZ     0043877a f   LIBCMT:hooks.obj
 0001:000377b2       __initp_eh_hooks           004387b2 f   LIBCMT:hooks.obj
 0001:000377d0       __CallSettingFrame@12      004387d0 f   LIBCMT:lowhelpr.obj
 0001:000377f7       __NLG_Return               004387f7     LIBCMT:lowhelpr.obj
 0001:0003781c       ___report_gsfailure        0043881c f   LIBCMT:gs_report.obj
 0001:00037922       __forcdecpt_l              00438922 f   LIBCMT:cvt.obj
 0001:00037995       __cropzeros_l              00438995 f   LIBCMT:cvt.obj
 0001:00037a17       __positive                 00438a17 f   LIBCMT:cvt.obj
 0001:00037a33       __fassign_l                00438a33 f   LIBCMT:cvt.obj
 0001:00037a75       __fassign                  00438a75 f   LIBCMT:cvt.obj
 0001:00037aae       __forcdecpt                00438aae f   LIBCMT:cvt.obj
 0001:00037ac1       __cropzeros                00438ac1 f   LIBCMT:cvt.obj
 0001:00037c43       __cftoe_l                  00438c43 f   LIBCMT:cvt.obj
 0001:00037d13       __cftoe                    00438d13 f   LIBCMT:cvt.obj
 0001:00037d33       __cftoa_l                  00438d33 f   LIBCMT:cvt.obj
 0001:000380a6       __cftoa                    004390a6 f   LIBCMT:cvt.obj
 0001:000381bd       __cftof_l                  004391bd f   LIBCMT:cvt.obj
 0001:00038278       __cftof                    00439278 f   LIBCMT:cvt.obj
 0001:00038295       __cftog_l                  00439295 f   LIBCMT:cvt.obj
 0001:0003838f       __cftog                    0043938f f   LIBCMT:cvt.obj
 0001:000383af       __cfltcvt_l                004393af f   LIBCMT:cvt.obj
 0001:00038437       __cfltcvt                  00439437 f   LIBCMT:cvt.obj
 0001:0003845a       __initp_misc_cfltcvt_tab   0043945a f   LIBCMT:cmiscdat.obj
 0001:0003847b       __setdefaultprecision      0043947b f   LIBCMT:fp8.obj
 0001:000384a6       __ms_p5_test_fdiv          004394a6 f   LIBCMT:_testfdiv_.obj
 0001:000384e4       __ms_p5_mp_test_fdiv       004394e4 f   LIBCMT:_testfdiv_.obj
 0001:0003850d       __flsbuf                   0043950d f   LIBCMT:_flsbuf.obj
 0001:00038717       _get_int_arg               00439717 f i LIBCMT:output.obj
 0001:00038729       _get_int64_arg             00439729 f i LIBCMT:output.obj
 0001:0003873e       _get_short_arg             0043973e f i LIBCMT:output.obj
 0001:00038751       __output_l                 00439751 f   LIBCMT:output.obj
 0001:000392e9       __vsnprintf_helper         0043a2e9 f   LIBCMT:vsnprnc.obj
 0001:000393b5       __vsnprintf_c              0043a3b5 f   LIBCMT:vsnprnc.obj
 0001:000393de       __vsnprintf_c_l            0043a3de f   LIBCMT:vsnprnc.obj
 0001:00039408       __vsprintf_s_l             0043a408 f   LIBCMT:vsnprnc.obj
 0001:00039490       _vsprintf_s                0043a490 f   LIBCMT:vsnprnc.obj
 0001:000394ad       __vsnprintf_s_l            0043a4ad f   LIBCMT:vsnprnc.obj
 0001:000395b4       __vsnprintf_s              0043a5b4 f   LIBCMT:vsnprnc.obj
 0001:000395d4       __vsprintf_p               0043a5d4 f   LIBCMT:vsnprnc.obj
 0001:000395fd       __vsprintf_p_l             0043a5fd f   LIBCMT:vsnprnc.obj
 0001:00039627       __close_nolock             0043a627 f   LIBCMT:close.obj
 0001:000396c3       __close                    0043a6c3 f   LIBCMT:close.obj
 0001:00039790       __fileno                   0043a790 f   LIBCMT:fileno.obj
 0001:000397c2       __freebuf                  0043a7c2 f   LIBCMT:_freebuf.obj
 0001:000397f4       __SEH_prolog4              0043a7f4 f   LIBCMT:sehprolg4.obj
 0001:00039839       __SEH_epilog4              0043a839 f   LIBCMT:sehprolg4.obj
 0001:00039880       __except_handler4          0043a880 f   LIBCMT:chandler4.obj
 0001:00039a63       __INTRN_LOCALE_CONV        0043aa63 f i LIBCMT:input.obj
 0001:00039ae8       __input_l                  0043aae8 f   LIBCMT:input.obj
 0001:0003ab6f       __input_s_l                0043bb6f f   LIBCMT:inputs.obj
 0001:0003bc93       __filbuf                   0043cc93 f   LIBCMT:_filbuf.obj
 0001:0003bdbe       __ioinit                   0043cdbe f   LIBCMT:ioinit.obj
 0001:0003c012       __ioterm                   0043d012 f   LIBCMT:ioinit.obj
 0001:0003c060       __openfile                 0043d060 f   LIBCMT:_open.obj
 0001:0003c329       __getstream                0043d329 f   LIBCMT:stream.obj
 0001:0003c464       __local_unwind4            0043d464 f   LIBCMT:exsup4.obj
 0001:0003c53a       __seh_longjmp_unwind4@4    0043d53a f   LIBCMT:exsup4.obj
 0001:0003c556       @_EH4_CallFilterFunc@8     0043d556 f   LIBCMT:exsup4.obj
 0001:0003c56d       @_EH4_TransferToHandler@8  0043d56d f   LIBCMT:exsup4.obj
 0001:0003c586       @_EH4_GlobalUnwind@4       0043d586 f   LIBCMT:exsup4.obj
 0001:0003c5a0       @_EH4_LocalUnwind@16       0043d5a0 f   LIBCMT:exsup4.obj
 0001:0003c60e       __VEC_memzero              0043d60e f   LIBCMT:p4_memset.obj
 0001:0003c6ed       __get_sse2_info            0043d6ed f   LIBCMT:cpu_disp.obj
 0001:0003c74f       ___sse2_available_init     0043d74f f   LIBCMT:cpu_disp.obj
 0001:0003c75c       __msize                    0043d75c f   LIBCMT:msize.obj
 0001:0003c7ff       __write_nolock             0043d7ff f   LIBCMT:write.obj
 0001:0003cf32       __write                    0043df32 f   LIBCMT:write.obj
 0001:0003d00e       __mtinitlocks              0043e00e f   LIBCMT:mlock.obj
 0001:0003d059       __mtdeletelocks            0043e059 f   LIBCMT:mlock.obj
 0001:0003d0b0       __unlock                   0043e0b0 f   LIBCMT:mlock.obj
 0001:0003d0c7       __lockerr_exit             0043e0c7 f   LIBCMT:mlock.obj
 0001:0003d0df       __mtinitlocknum            0043e0df f   LIBCMT:mlock.obj
 0001:0003d1a2       __lock                     0043e1a2 f   LIBCMT:mlock.obj
 0001:0003d1d5       __get_sbh_threshold        0043e1d5 f   LIBCMT:sbheap.obj
 0001:0003d1f6       __set_amblksiz             0043e1f6 f   LIBCMT:sbheap.obj
 0001:0003d241       __get_amblksiz             0043e241 f   LIBCMT:sbheap.obj
 0001:0003d282       ___sbh_heap_init           0043e282 f   LIBCMT:sbheap.obj
 0001:0003d2d0       ___sbh_find_block          0043e2d0 f   LIBCMT:sbheap.obj
 0001:0003d300       ___sbh_free_block          0043e300 f   LIBCMT:sbheap.obj
 0001:0003d616       ___sbh_alloc_new_region    0043e616 f   LIBCMT:sbheap.obj
 0001:0003d6c6       ___sbh_alloc_new_group     0043e6c6 f   LIBCMT:sbheap.obj
 0001:0003d7ce       ___sbh_resize_block        0043e7ce f   LIBCMT:sbheap.obj
 0001:0003daaf       ___sbh_heapmin             0043eaaf f   LIBCMT:sbheap.obj
 0001:0003db7c       ___sbh_heap_check          0043eb7c f   LIBCMT:sbheap.obj
 0001:0003de60       __set_sbh_threshold        0043ee60 f   LIBCMT:sbheap.obj
 0001:0003df0f       ___sbh_alloc_block         0043ef0f f   LIBCMT:sbheap.obj
 0001:0003e1f4       ___heap_select             0043f1f4 f   LIBCMT:heapinit.obj
 0001:0003e1f8       __heap_init                0043f1f8 f   LIBCMT:heapinit.obj
 0001:0003e228       __heap_term                0043f228 f   LIBCMT:heapinit.obj
 0001:0003e29c       __get_heap_handle          0043f29c f   LIBCMT:heapinit.obj
 0001:0003e2a2       __NMSG_WRITE               0043f2a2 f   LIBCMT:crt0msg.obj
 0001:0003e44d       __GET_RTERRMSG             0043f44d f   LIBCMT:crt0msg.obj
 0001:0003e473       __FF_MSGBANNER             0043f473 f   LIBCMT:crt0msg.obj
 0001:0003e4ac       __read_nolock              0043f4ac f   LIBCMT:read.obj
 0001:0003ea6e       __read                     0043fa6e f   LIBCMT:read.obj
 0001:0003ebf2       __VEC_memcpy               0043fbf2 f   LIBCMT:p4_memcpy.obj
 0001:0003ecd5       __RTC_Initialize           0043fcd5 f   LIBCMT:_initsect_.obj
 0001:0003ecfb       __RTC_Terminate            0043fcfb f   LIBCMT:_initsect_.obj
 0001:0003ed30       __ValidateImageBase        0043fd30 f   LIBCMT:pesect.obj
 0001:0003ed70       __FindPESection            0043fd70 f   LIBCMT:pesect.obj
 0001:0003edc0       __IsNonwritableInCurrentImage 0043fdc0 f   LIBCMT:pesect.obj
 0001:0003ee7d       __initp_misc_winxfltr      0043fe7d f   LIBCMT:winxfltr.obj
 0001:0003eeb3       __XcptFilter               0043feb3 f   LIBCMT:winxfltr.obj
 0001:0003f013       ___CppXcptFilter           00440013 f   LIBCMT:winxfltr.obj
 0001:0003f033       __initp_misc_winsig        00440033 f   LIBCMT:winsig.obj
 0001:0003f123       ___get_sigabrt             00440123 f   LIBCMT:winsig.obj
 0001:0003f130       ___fpecode                 00440130 f   LIBCMT:winsig.obj
 0001:0003f139       ___pxcptinfoptrs           00440139 f   LIBCMT:winsig.obj
 0001:0003f142       _signal                    00440142 f   LIBCMT:winsig.obj
 0001:0003f37f       _raise                     0044037f f   LIBCMT:winsig.obj
 0001:0003f52f       __initp_misc_rand_s        0044052f f   LIBCMT:rand_s.obj
 0001:0003f53e       _rand_s                    0044053e f   LIBCMT:rand_s.obj
 0001:0003f646       ___getlocaleinfo           00440646 f   LIBCMT:inithelp.obj
 0001:0003f7c5       __initp_misc_purevirt      004407c5 f   LIBCMT:inithelp.obj
 0001:0003f7d4       __initp_misc_initcrit      004407d4 f   LIBCMT:initcrit.obj
 0001:0003f7e3       ___crtInitCritSecAndSpinCount 004407e3 f   LIBCMT:initcrit.obj
 0001:0003f843       __validate_param_reuseA    00440843 f   LIBCMT:outputp.obj
 0001:0003fa14       _get_crtdouble_arg         00440a14 f i LIBCMT:outputp.obj
 0001:0003fa29       __output_p_l               00440a29 f   LIBCMT:outputp.obj
 0001:00040ce9       __sse2_mathfcns_init       00441ce9 f   LIBCMT:_mathfcns_.obj
 0001:00040cfd       __set_SSE2_enable          00441cfd f   LIBCMT:_mathfcns_.obj
 0001:00040d20       __CIcos_pentium4           00441d20 f   LIBCMT:_cos_pentium4_.obj
 0001:00040d38       __cos_pentium4             00441d38     LIBCMT:_cos_pentium4_.obj
 0001:00040ed0       __trandisp1                00441ed0 f   LIBCMT:_87disp_.obj
 0001:00040f37       __trandisp2                00441f37 f   LIBCMT:_87disp_.obj
 0001:00040fc3       __rttospopde               00441fc3     LIBCMT:_87disp_.obj
 0001:00040fc8       __rttospop                 00441fc8     LIBCMT:_87disp_.obj
 0001:00040fca       __rtnospop                 00441fca     LIBCMT:_87disp_.obj
 0001:00040fcc       __rttosnpop                00441fcc     LIBCMT:_87disp_.obj
 0001:00040fcd       __rtnospopde               00441fcd     LIBCMT:_87disp_.obj
 0001:00040fd4       __rtzeropop                00441fd4     LIBCMT:_87disp_.obj
 0001:00040fd6       __rtzeronpop               00441fd6     LIBCMT:_87disp_.obj
 0001:00040fdb       __rtonepop                 00441fdb     LIBCMT:_87disp_.obj
 0001:00040fdd       __rtonenpop                00441fdd     LIBCMT:_87disp_.obj
 0001:00040fe2       __tosnan1                  00441fe2     LIBCMT:_87disp_.obj
 0001:0004100d       __nosnan2                  0044200d     LIBCMT:_87disp_.obj
 0001:0004100f       __tosnan2                  0044200f     LIBCMT:_87disp_.obj
 0001:00041037       __nan2                     00442037     LIBCMT:_87disp_.obj
 0001:00041076       __rtindfpop                00442076     LIBCMT:_87disp_.obj
 0001:00041078       __rtindfnpop               00442078     LIBCMT:_87disp_.obj
 0001:00041089       __rttosnpopde              00442089     LIBCMT:_87disp_.obj
 0001:00041093       __rtchsifneg               00442093     LIBCMT:_87disp_.obj
 0001:000410a0       __twoToTOS                 004420a0 f   LIBCMT:_common_.obj
 0001:000410b5       __load_CW                  004420b5 f   LIBCMT:_common_.obj
 0001:000410cc       __convertTOStoQNaN         004420cc f   LIBCMT:_common_.obj
 0001:000410e5       __fload_withFB             004420e5 f   LIBCMT:_common_.obj
 0001:00041128       __checkTOS_withFB          00442128 f   LIBCMT:_common_.obj
 0001:0004113e       __fast_exit                0044213e f   LIBCMT:_common_.obj
 0001:0004114b       __math_exit                0044214b f   LIBCMT:_common_.obj
 0001:00041175       __check_overflow_exit      00442175 f   LIBCMT:_common_.obj
 0001:00041189       __check_range_exit         00442189 f   LIBCMT:_common_.obj
 0001:00041230       __startTwoArgErrorHandling 00442230 f   LIBCMT:_genexcep_.obj
 0001:00041247       __startOneArgErrorHandling 00442247 f   LIBCMT:_genexcep_.obj
 0001:00041283       ___libm_setusermatherr     00442283 f   LIBCMT:_libm_error_.obj
 0001:000412b1       ___libm_error_support      004422b1 f   LIBCMT:_libm_error_.obj
 0001:00041561       __floor_default            00442561 f   LIBCMT:_floor_.obj
 0001:00041640       __CIpow_pentium4           00442640 f   LIBCMT:_pow_pentium4_.obj
 0001:00041659       __pow_pentium4             00442659     LIBCMT:_pow_pentium4_.obj
 0001:000421b1       __fFEXP                    004431b1     LIBCMT:_87tran_.obj
 0001:00042218       __rtinfpopse               00443218     LIBCMT:_87tran_.obj
 0001:0004221a       __rtinfnpopse              0044321a     LIBCMT:_87tran_.obj
 0001:0004222a       __fFLN                     0044322a     LIBCMT:_87tran_.obj
 0001:000422df       __rtinfpop                 004432df     LIBCMT:_87tran_.obj
 0001:000422e1       __rtinfnpop                004432e1     LIBCMT:_87tran_.obj
 0001:000422fe       __ffexpm1                  004432fe     LIBCMT:_87tran_.obj
 0001:000423a7       __d_inttype                004433a7 f   LIBCMT:_powhlp_.obj
 0001:0004240d       __powhlp                   0044340d f   LIBCMT:_powhlp_.obj
 0001:00042550       __CIsin_pentium4           00443550 f   LIBCMT:_sin_pentium4_.obj
 0001:00042568       __sin_pentium4             00443568     LIBCMT:_sin_pentium4_.obj
 0001:00042720       __CIacos_pentium4          00443720 f   LIBCMT:_acos_pentium4_.obj
 0001:00042738       __acos_pentium4            00443738     LIBCMT:_acos_pentium4_.obj
 0001:00042c9c       __fFATN2                   00443c9c     LIBCMT:_87triga_.obj
 0001:00042cec       __rtpiby2                  00443cec     LIBCMT:_87triga_.obj
 0001:00042d30       __cintrindisp2             00443d30 f   LIBCMT:_87cdisp_.obj
 0001:00042d6e       __cintrindisp1             00443d6e f   LIBCMT:_87cdisp_.obj
 0001:00042dab       __ctrandisp2               00443dab f   LIBCMT:_87cdisp_.obj
 0001:00042f41       __ctrandisp1               00443f41 f   LIBCMT:_87cdisp_.obj
 0001:00042f74       __fload                    00443f74 f   LIBCMT:_87cdisp_.obj
 0001:00042fb0       __lseek_nolock             00443fb0 f   LIBCMT:lseek.obj
 0001:00043025       __lseek                    00444025 f   LIBCMT:lseek.obj
 0001:00043101       __stbuf                    00444101 f   LIBCMT:_sftbuf.obj
 0001:0004319d       __ftbuf                    0044419d f   LIBCMT:_sftbuf.obj
 0001:000431d1       _vfprintf_helper           004441d1 f   LIBCMT:vfprintf.obj
 0001:000432ec       __vfprintf_l               004442ec f   LIBCMT:vfprintf.obj
 0001:0004330c       __vfprintf_s_l             0044430c f   LIBCMT:vfprintf.obj
 0001:0004332c       __vfprintf_p_l             0044432c f   LIBCMT:vfprintf.obj
 0001:0004334c       _vfprintf                  0044434c f   LIBCMT:vfprintf.obj
 0001:0004336b       _vfprintf_s                0044436b f   LIBCMT:vfprintf.obj
 0001:0004338a       __vfprintf_p               0044438a f   LIBCMT:vfprintf.obj
 0001:000435cf       ___updatetmbcinfo          004445cf f   LIBCMT:mbctype.obj
 0001:000436ef       __setmbcp_nolock           004446ef f   LIBCMT:mbctype.obj
 0001:000438d4       __getmbcp                  004448d4 f   LIBCMT:mbctype.obj
 0001:00043912       __setmbcp                  00444912 f   LIBCMT:mbctype.obj
 0001:00043aac       ___initmbctable            00444aac f   LIBCMT:mbctype.obj
 0001:00043aca       __isleadbyte_l             00444aca f i LIBCMT:_wctype.obj
 0001:00043b02       _isleadbyte                00444b02 f i LIBCMT:_wctype.obj
 0001:00043b15       __iswalpha_l               00444b15 f i LIBCMT:_wctype.obj
 0001:00043b2f       _iswalpha                  00444b2f f i LIBCMT:_wctype.obj
 0001:00043b45       __iswupper_l               00444b45 f i LIBCMT:_wctype.obj
 0001:00043b5c       _iswupper                  00444b5c f i LIBCMT:_wctype.obj
 0001:00043b6f       __iswlower_l               00444b6f f i LIBCMT:_wctype.obj
 0001:00043b86       _iswlower                  00444b86 f i LIBCMT:_wctype.obj
 0001:00043b99       __iswdigit_l               00444b99 f i LIBCMT:_wctype.obj
 0001:00043bb0       _iswdigit                  00444bb0 f i LIBCMT:_wctype.obj
 0001:00043bc3       __iswxdigit_l              00444bc3 f i LIBCMT:_wctype.obj
 0001:00043bdd       _iswxdigit                 00444bdd f i LIBCMT:_wctype.obj
 0001:00043bf3       __iswspace_l               00444bf3 f i LIBCMT:_wctype.obj
 0001:00043c0a       _iswspace                  00444c0a f i LIBCMT:_wctype.obj
 0001:00043c1d       __iswpunct_l               00444c1d f i LIBCMT:_wctype.obj
 0001:00043c34       _iswpunct                  00444c34 f i LIBCMT:_wctype.obj
 0001:00043c47       __iswalnum_l               00444c47 f i LIBCMT:_wctype.obj
 0001:00043c61       _iswalnum                  00444c61 f i LIBCMT:_wctype.obj
 0001:00043c77       __iswprint_l               00444c77 f i LIBCMT:_wctype.obj
 0001:00043c91       _iswprint                  00444c91 f i LIBCMT:_wctype.obj
 0001:00043ca7       __iswgraph_l               00444ca7 f i LIBCMT:_wctype.obj
 0001:00043cc1       _iswgraph                  00444cc1 f i LIBCMT:_wctype.obj
 0001:00043cd7       __iswcntrl_l               00444cd7 f i LIBCMT:_wctype.obj
 0001:00043cee       _iswcntrl                  00444cee f i LIBCMT:_wctype.obj
 0001:00043d01       _iswascii                  00444d01 f i LIBCMT:_wctype.obj
 0001:00043d15       __iswcsym_l                00444d15 f i LIBCMT:_wctype.obj
 0001:00043d3f       ___iswcsym                 00444d3f f i LIBCMT:_wctype.obj
 0001:00043d65       __iswcsymf_l               00444d65 f i LIBCMT:_wctype.obj
 0001:00043d8f       ___iswcsymf                00444d8f f i LIBCMT:_wctype.obj
 0001:00043db5       __isctype_l                00444db5 f   LIBCMT:isctype.obj
 0001:00043e6d       __isctype                  00444e6d f   LIBCMT:isctype.obj
 0001:00043e9f       __fltin2                   00444e9f f   LIBCMT:_cfin_.obj
 0001:00043f46       ___addl                    00444f46 f i LIBCMT:_strgtold_.obj
 0001:00043f6a       ___shl_12                  00444f6a f i LIBCMT:_strgtold_.obj
 0001:00043f9d       ___shr_12                  00444f9d f i LIBCMT:_strgtold_.obj
 0001:00043fcf       ___ld12mul                 00444fcf f i LIBCMT:_strgtold_.obj
 0001:0004424a       ___multtenpow12            0044524a f i LIBCMT:_strgtold_.obj
 0001:0004454f       ___strgtold12_l            0044554f f   LIBCMT:_strgtold_.obj
 0001:00044c47       ___STRINGTOLD_L            00445c47 f   LIBCMT:_strgtold_.obj
 0001:00044cb0       __aulldiv                  00445cb0 f   LIBCMT:ulldiv.obj
 0001:00044d20       __allmul                   00445d20 f   LIBCMT:llmul.obj
 0001:00044d54       _strnlen                   00445d54 f   LIBCMT:strlen_s.obj
 0001:00044d80       __alloca_probe_16          00445d80 f   LIBCMT:alloca16.obj
 0001:00044d96       __alloca_probe_8           00445d96     LIBCMT:alloca16.obj
 0001:00044dac       __mbsnbicoll_l             00445dac f   LIBCMT:mbsnbico.obj
 0001:00044e9a       __mbsnbicoll               00445e9a f   LIBCMT:mbsnbico.obj
 0001:00044eb4       ___wtomb_environ           00445eb4 f   LIBCMT:wtombenv.obj
 0001:00044f4b       _vprintf_helper            00445f4b f   LIBCMT:vprintf.obj
 0001:00044fdb       __vprintf_l                00445fdb f   LIBCMT:vprintf.obj
 0001:00044ff8       __vprintf_s_l              00445ff8 f   LIBCMT:vprintf.obj
 0001:00045015       __vprintf_p_l              00446015 f   LIBCMT:vprintf.obj
 0001:00045032       _vprintf                   00446032 f   LIBCMT:vprintf.obj
 0001:0004504e       _vprintf_s                 0044604e f   LIBCMT:vprintf.obj
 0001:0004506a       __vprintf_p                0044606a f   LIBCMT:vprintf.obj
 0001:00045086       __calloc_impl              00446086 f   LIBCMT:calloc_impl.obj
 0001:000451a4       ?__CxxUnhandledExceptionFilter@@YGJPAU_EXCEPTION_POINTERS@@@Z 004461a4 f   LIBCMT:unhandld.obj
 0001:000451e6       ___CxxSetUnhandledExceptionFilter 004461e6 f   LIBCMT:unhandld.obj
 0001:000451f4       __wincmdln                 004461f4 f   LIBCMT:wincmdln.obj
 0001:00045253       __setenvp                  00446253 f   LIBCMT:stdenvp.obj
 0001:00045331       __set_pgmptr               00446331 f i LIBCMT:stdargv.obj
 0001:000454da       __setargv                  004464da f   LIBCMT:stdargv.obj
 0001:00045595       ___crtGetEnvironmentStringsA 00446595 f   LIBCMT:a_env.obj
 0001:000456cc       ___security_init_cookie    004466cc f   LIBCMT:gs_support.obj
 0001:0004591c       ___crtGetStringTypeA       0044691c f   LIBCMT:a_str.obj
 0001:00045d79       ___free_lc_time            00446d79 f   LIBCMT:inittime.obj
 0001:00045f0e       ___init_time               00446f0e f   LIBCMT:inittime.obj
 0001:00045fba       ___free_lconv_num          00446fba f   LIBCMT:initnum.obj
 0001:00045fff       ___init_numeric            00446fff f   LIBCMT:initnum.obj
 0001:000461fc       ___free_lconv_mon          004471fc f   LIBCMT:initmon.obj
 0001:0004628a       ___init_monetary           0044728a f   LIBCMT:initmon.obj
 0001:00046550       ___init_collate            00447550 f   LIBCMT:initcoll.obj
 0001:00046553       __Getdays_l                00447553 f   LIBCMT:strftime.obj
 0001:00046653       __Getdays                  00447653 f   LIBCMT:strftime.obj
 0001:0004665c       __Getmonths_l              0044765c f   LIBCMT:strftime.obj
 0001:0004675c       __Getmonths                0044775c f   LIBCMT:strftime.obj
 0001:00046765       __Gettnames_l              00447765 f   LIBCMT:strftime.obj
 0001:00046abc       __Gettnames                00447abc f   LIBCMT:strftime.obj
 0001:000473df       __Strftime_l               004483df f   LIBCMT:strftime.obj
 0001:00047583       __strftime_l               00448583 f   LIBCMT:strftime.obj
 0001:000475a3       _strftime                  004485a3 f   LIBCMT:strftime.obj
 0001:000475c2       __Strftime                 004485c2 f   LIBCMT:strftime.obj
 0001:000475e2       _strcat_s                  004485e2 f   LIBCMT:strcat_s.obj
 0001:00047656       _strncpy_s                 00448656 f   LIBCMT:strncpy_s.obj
 0001:00047d06       ___get_qualified_locale    00448d06 f   LIBCMT:getqloc.obj
 0001:0004946d       _memcmp                    0044a46d f   LIBCMT:memcmp.obj
 0001:0004aaed       _strncmp                   0044baed f   LIBCMT:strncmp.obj
 0001:0004abb0       _strpbrk                   0044bbb0 f   LIBCMT:strpbrk.obj
 0001:0004abf0       ?_ValidateRead@@YAHPBXI@Z  0044bbf0 f   LIBCMT:validate.obj
 0001:0004ac02       ?_ValidateWrite@@YAHPAXI@Z 0044bc02 f   LIBCMT:validate.obj
 0001:0004ac14       ?_ValidateExecute@@YAHP6GHXZ@Z 0044bc14 f   LIBCMT:validate.obj
 0001:0004ac26       __getbuf                   0044bc26 f   LIBCMT:_getbuf.obj
 0001:0004ac6f       __commit                   0044bc6f f   LIBCMT:commit.obj
 0001:0004ad50       __ftelli64_nolock          0044bd50 f   LIBCMT:ftelli64.obj
 0001:0004b09c       __ftelli64                 0044c09c f   LIBCMT:ftelli64.obj
 0001:0004b0e6       __fseeki64_nolock          0044c0e6 f   LIBCMT:fseeki64.obj
 0001:0004b182       __fseeki64                 0044c182 f   LIBCMT:fseeki64.obj
 0001:0004b1d1       __fcloseall                0044c1d1 f   LIBCMT:closeall.obj
 0001:0004b270       __aulldvrm                 0044c270 f   LIBCMT:ulldvrm.obj
 0001:0004b305       _realloc                   0044c305 f   LIBCMT:realloc.obj
 0001:0004b520       __recalloc                 0044c520 f   LIBCMT:recalloc.obj
 0001:0004b59b       ___ansicp                  0044c59b f   LIBCMT:convrtcp.obj
 0001:0004b5e4       ___convertcp               0044c5e4 f   LIBCMT:convrtcp.obj
 0001:0004b798       ??0Block@HeapManager@@QAE@XZ 0044c798 f i LIBCMT:undname.obj
 0001:0004b79e       ?Constructor@HeapManager@@QAEXP6APAXI@ZP6AXPAX@Z@Z 0044c79e f i LIBCMT:undname.obj
 0001:0004b7bd       ?Destructor@HeapManager@@QAEXXZ 0044c7bd f i LIBCMT:undname.obj
 0001:0004b7e5       ?getNumberOfDimensions@UnDecorator@@CAHXZ 0044c7e5 f   LIBCMT:undname.obj
 0001:0004b848       ?getTypeEncoding@UnDecorator@@CAHXZ 0044c848 f i LIBCMT:undname.obj
 0001:0004bd34       ?doUnderScore@UnDecorator@@SAHXZ 0044cd34 f i LIBCMT:undname.obj
 0001:0004bd3f       ?doMSKeywords@UnDecorator@@SAHXZ 0044cd3f f i LIBCMT:undname.obj
 0001:0004bd4c       ?doPtr64@UnDecorator@@SAHXZ 0044cd4c f i LIBCMT:undname.obj
 0001:0004bd5a       ?doFunctionReturns@UnDecorator@@SAHXZ 0044cd5a f i LIBCMT:undname.obj
 0001:0004bd68       ?doAllocationModel@UnDecorator@@SAHXZ 0044cd68 f i LIBCMT:undname.obj
 0001:0004bd76       ?doAllocationLanguage@UnDecorator@@SAHXZ 0044cd76 f i LIBCMT:undname.obj
 0001:0004bd84       ?doThisTypes@UnDecorator@@SAHXZ 0044cd84 f i LIBCMT:undname.obj
 0001:0004bd96       ?doAccessSpecifiers@UnDecorator@@SAHXZ 0044cd96 f i LIBCMT:undname.obj
 0001:0004bda4       ?doThrowTypes@UnDecorator@@SAHXZ 0044cda4 f i LIBCMT:undname.obj
 0001:0004bdb2       ?doMemberTypes@UnDecorator@@SAHXZ 0044cdb2 f i LIBCMT:undname.obj
 0001:0004bdc0       ?doNameOnly@UnDecorator@@SAHXZ 0044cdc0 f i LIBCMT:undname.obj
 0001:0004bdcb       ?doTypeOnly@UnDecorator@@SAHXZ 0044cdcb f i LIBCMT:undname.obj
 0001:0004bdd6       ?haveTemplateParameters@UnDecorator@@SAHXZ 0044cdd6 f i LIBCMT:undname.obj
 0001:0004bde1       ?doEcsu@UnDecorator@@SAHXZ 0044cde1 f i LIBCMT:undname.obj
 0001:0004bdef       ?doNoIdentCharCheck@UnDecorator@@SAHXZ 0044cdef f i LIBCMT:undname.obj
 0001:0004bdfa       ?doEllipsis@UnDecorator@@SAHXZ 0044cdfa f i LIBCMT:undname.obj
 0001:0004be08       ?UScore@UnDecorator@@SAPBDW4Tokens@@@Z 0044ce08 f   LIBCMT:undname.obj
 0001:0004be26       ?getMemory@HeapManager@@QAEPAXIH@Z 0044ce26 f   LIBCMT:undname.obj
 0001:0004beae       ??0DName@@QAE@XZ           0044ceae f i LIBCMT:undname.obj
 0001:0004bebf       ??0DName@@QAE@ABV0@@Z      0044cebf f i LIBCMT:undname.obj
 0001:0004bed7       ?isValid@DName@@QBEHXZ     0044ced7 f i LIBCMT:undname.obj
 0001:0004bee1       ?isEmpty@DName@@QBEHXZ     0044cee1 f i LIBCMT:undname.obj
 0001:0004bee9       ?status@DName@@QBE?AW4DNameStatus@@XZ 0044cee9 f i LIBCMT:undname.obj
 0001:0004beee       ?setPtrRef@DName@@QAEAAV1@XZ 0044ceee f i LIBCMT:undname.obj
 0001:0004bef8       ?isPtrRef@DName@@QBEHXZ    0044cef8 f i LIBCMT:undname.obj
 0001:0004bf02       ?isUDC@DName@@QBEHXZ       0044cf02 f i LIBCMT:undname.obj
 0001:0004bf13       ?setIsUDC@DName@@QAEXXZ    0044cf13 f i LIBCMT:undname.obj
 0001:0004bf20       ?isUDTThunk@DName@@QBEHXZ  0044cf20 f i LIBCMT:undname.obj
 0001:0004bf31       ?setIsArray@DName@@QAEXXZ  0044cf31 f i LIBCMT:undname.obj
 0001:0004bf39       ?isArray@DName@@QBEHXZ     0044cf39 f i LIBCMT:undname.obj
 0001:0004bf43       ?isNoTE@DName@@QBEHXZ      0044cf43 f i LIBCMT:undname.obj
 0001:0004bf4d       ?setIsNoTE@DName@@QAEXXZ   0044cf4d f i LIBCMT:undname.obj
 0001:0004bf55       ?isPinPtr@DName@@QBEHXZ    0044cf55 f i LIBCMT:undname.obj
 0001:0004bf5f       ?setIsPinPtr@DName@@QAEXXZ 0044cf5f f i LIBCMT:undname.obj
 0001:0004bf67       ?isComArray@DName@@QBEHXZ  0044cf67 f i LIBCMT:undname.obj
 0001:0004bf71       ?setIsComArray@DName@@QAEXXZ 0044cf71 f i LIBCMT:undname.obj
 0001:0004bf79       ?isVCallThunk@DName@@QBEHXZ 0044cf79 f i LIBCMT:undname.obj
 0001:0004bf83       ?setIsVCallThunk@DName@@QAEXXZ 0044cf83 f i LIBCMT:undname.obj
 0001:0004bf8b       ?length@DName@@QBEHXZ      0044cf8b f i LIBCMT:undname.obj
 0001:0004bf98       ?getLastChar@DName@@QBEDXZ 0044cf98 f i LIBCMT:undname.obj
 0001:0004bfa6       ?getString@DName@@QBEPADPAD0@Z 0044cfa6 f i LIBCMT:undname.obj
 0001:0004bfbe       ??_5DName@@QAEAAV0@ABV0@@Z 0044cfbe f   LIBCMT:undname.obj
 0001:0004bfdd       ??4DName@@QAEAAV0@ABV0@@Z  0044cfdd f   LIBCMT:undname.obj
 0001:0004bff5       ?isFull@Replicator@@QBEHXZ 0044cff5 f i LIBCMT:undname.obj
 0001:0004bffe       ??0Replicator@@QAE@XZ      0044cffe f i LIBCMT:undname.obj
 0001:0004c004       ??0DNameNode@@IAE@XZ       0044d004 f   LIBCMT:undname.obj
 0001:0004c00d       ??0charNode@@QAE@D@Z       0044d00d f   LIBCMT:undname.obj
 0001:0004c024       ?length@charNode@@UBEHXZ   0044d024 f i LIBCMT:undname.obj
 0001:0004c028       ?getLastChar@charNode@@UBEDXZ 0044d028 f i LIBCMT:undname.obj
 0001:0004c02c       ?getString@charNode@@UBEPADPAD0@Z 0044d02c f i LIBCMT:undname.obj
 0001:0004c043       ??0pDNameNode@@QAE@PAVDName@@@Z 0044d043 f   LIBCMT:undname.obj
 0001:0004c06d       ?length@pDNameNode@@UBEHXZ 0044d06d f i LIBCMT:undname.obj
 0001:0004c083       ?getLastChar@pDNameNode@@UBEDXZ 0044d083 f i LIBCMT:undname.obj
 0001:0004c09a       ?getString@pDNameNode@@UBEPADPAD0@Z 0044d09a f i LIBCMT:undname.obj
 0001:0004c0b3       ??0DNameStatusNode@@AAE@W4DNameStatus@@@Z 0044d0b3 f   LIBCMT:undname.obj
 0001:0004c0d8       ?length@DNameStatusNode@@UBEHXZ 0044d0d8 f i LIBCMT:undname.obj
 0001:0004c0dc       ?getLastChar@DNameStatusNode@@UBEDXZ 0044d0dc f i LIBCMT:undname.obj
 0001:0004c0e8       ?make@DNameStatusNode@@SAPAV1@W4DNameStatus@@@Z 0044d0e8 f i LIBCMT:undname.obj
 0001:0004c16e       ??0pairNode@@QAE@PAVDNameNode@@0@Z 0044d16e f   LIBCMT:undname.obj
 0001:0004c18f       ?length@pairNode@@UBEHXZ   0044d18f f i LIBCMT:undname.obj
 0001:0004c1ba       ?getLastChar@pairNode@@UBEDXZ 0044d1ba f i LIBCMT:undname.obj
 0001:0004c1d6       ?getString@pairNode@@UBEPADPAD0@Z 0044d1d6 f i LIBCMT:undname.obj
 0001:0004c250       ??0UnDecorator@@QAE@PADPBDHP6APADJ@ZK@Z 0044d250 f i LIBCMT:undname.obj
 0001:0004c2bf       ?getDataIndirectType@UnDecorator@@CA?AVDName@@XZ 0044d2bf f i LIBCMT:undname.obj
 0001:0004c2f4       ?getThisType@UnDecorator@@CA?AVDName@@XZ 0044d2f4 f i LIBCMT:undname.obj
 0001:0004c32a       ??2@YAPAXIAAVHeapManager@@H@Z 0044d32a f i LIBCMT:undname.obj
 0001:0004c341       ?getStringHelper@@YAPADPAD00H@Z 0044d341 f i LIBCMT:undname.obj
 0001:0004c378       ??0DName@@QAE@PAV0@@Z      0044d378 f   LIBCMT:undname.obj
 0001:0004c3cb       ??0DName@@QAE@W4DNameStatus@@@Z 0044d3cb f   LIBCMT:undname.obj
 0001:0004c410       ?getString@DName@@QBEPADPADH@Z 0044d410 f i LIBCMT:undname.obj
 0001:0004c468       ?append@DName@@AAEXPAVDNameNode@@@Z 0044d468 f   LIBCMT:undname.obj
 0001:0004c4a7       ??4DName@@QAEAAV0@PAV0@@Z  0044d4a7 f   LIBCMT:undname.obj
 0001:0004c4f4       ??4DName@@QAEAAV0@W4DNameStatus@@@Z 0044d4f4 f   LIBCMT:undname.obj
 0001:0004c52b       ??YReplicator@@QAEAAV0@ABVDName@@@Z 0044d52b f   LIBCMT:undname.obj
 0001:0004c575       ??AReplicator@@QBE?AVDName@@H@Z 0044d575 f   LIBCMT:undname.obj
 0001:0004c5b5       ??0pcharNode@@QAE@PBDH@Z   0044d5b5 f   LIBCMT:undname.obj
 0001:0004c60c       ?length@pcharNode@@UBEHXZ  0044d60c f i LIBCMT:undname.obj
 0001:0004c610       ?getLastChar@pcharNode@@UBEDXZ 0044d610 f i LIBCMT:undname.obj
 0001:0004c622       ?getString@pcharNode@@UBEPADPAD0@Z 0044d622 f i LIBCMT:undname.obj
 0001:0004c63f       ?getString@DNameStatusNode@@UBEPADPAD0@Z 0044d63f f i LIBCMT:undname.obj
 0001:0004c668       ?getReturnType@UnDecorator@@CA?AVDName@@PAV2@@Z 0044d668 f   LIBCMT:undname.obj
 0001:0004c699       ?getStorageConvention@UnDecorator@@CA?AVDName@@XZ 0044d699 f i LIBCMT:undname.obj
 0001:0004c6ac       ??YDName@@QAEAAV0@W4DNameStatus@@@Z 0044d6ac f   LIBCMT:undname.obj
 0001:0004c6ee       ?doPchar@DName@@AAEXPBDH@Z 0044d6ee f   LIBCMT:undname.obj
 0001:0004c76a       ??0DName@@QAE@D@Z          0044d76a f   LIBCMT:undname.obj
 0001:0004c797       ??0DName@@QAE@PBD@Z        0044d797 f   LIBCMT:undname.obj
 0001:0004c7d0       ??0DName@@QAE@AAPBDD@Z     0044d7d0 f   LIBCMT:undname.obj
 0001:0004c88f       ??0DName@@QAE@_K@Z         0044d88f f   LIBCMT:undname.obj
 0001:0004c8fd       ??0DName@@QAE@_J@Z         0044d8fd f   LIBCMT:undname.obj
 0001:0004c998       ??HDName@@QBE?AV0@W4DNameStatus@@@Z 0044d998 f   LIBCMT:undname.obj
 0001:0004c9bc       ??YDName@@QAEAAV0@ABV0@@Z  0044d9bc f   LIBCMT:undname.obj
 0001:0004c9ff       ??YDName@@QAEAAV0@PAV0@@Z  0044d9ff f   LIBCMT:undname.obj
 0001:0004ca66       ??4DName@@QAEAAV0@D@Z      0044da66 f i LIBCMT:undname.obj
 0001:0004ca93       ??4DName@@QAEAAV0@PBD@Z    0044da93 f   LIBCMT:undname.obj
 0001:0004cac8       ?getCallingConvention@UnDecorator@@CA?AVDName@@XZ 0044dac8 f   LIBCMT:undname.obj
 0001:0004cb72       ?getVCallThunkType@UnDecorator@@CA?AVDName@@XZ 0044db72 f i LIBCMT:undname.obj
 0001:0004cbab       ??HDName@@QBE?AV0@ABV0@@Z  0044dbab f   LIBCMT:undname.obj
 0001:0004cbcf       ??HDName@@QBE?AV0@PAV0@@Z  0044dbcf f   LIBCMT:undname.obj
 0001:0004cbf3       ??YDName@@QAEAAV0@D@Z      0044dbf3 f   LIBCMT:undname.obj
 0001:0004cc45       ??YDName@@QAEAAV0@PBD@Z    0044dc45 f   LIBCMT:undname.obj
 0001:0004cca9       ?getArgumentList@UnDecorator@@CA?AVDName@@XZ 0044dca9 f   LIBCMT:undname.obj
 0001:0004cdab       ?getVdispMapType@UnDecorator@@CA?AVDName@@ABV2@@Z 0044ddab f i LIBCMT:undname.obj
 0001:0004cdff       ??H@YA?AVDName@@DABV0@@Z   0044ddff f i LIBCMT:undname.obj
 0001:0004ce23       ??H@YA?AVDName@@W4DNameStatus@@ABV0@@Z 0044de23 f i LIBCMT:undname.obj
 0001:0004ce47       ??H@YA?AVDName@@PBDABV0@@Z 0044de47 f i LIBCMT:undname.obj
 0001:0004ce6b       ??HDName@@QBE?AV0@D@Z      0044de6b f   LIBCMT:undname.obj
 0001:0004ce8f       ??HDName@@QBE?AV0@PBD@Z    0044de8f f   LIBCMT:undname.obj
 0001:0004ceb3       ?getDimension@UnDecorator@@CA?AVDName@@_N@Z 0044deb3 f   LIBCMT:undname.obj
 0001:0004d005       ?getEnumType@UnDecorator@@CA?AVDName@@XZ 0044e005 f i LIBCMT:undname.obj
 0001:0004d0d9       ?getArgumentTypes@UnDecorator@@CA?AVDName@@XZ 0044e0d9 f   LIBCMT:undname.obj
 0001:0004d1b5       ?getThrowTypes@UnDecorator@@CA?AVDName@@XZ 0044e1b5 f   LIBCMT:undname.obj
 0001:0004d234       ?getExtendedDataIndirectType@UnDecorator@@CA?AVDName@@AADAA_NH@Z 0044e234 f   LIBCMT:undname.obj
 0001:0004d3b1       ?getArrayType@UnDecorator@@CA?AVDName@@ABV2@@Z 0044e3b1 f i LIBCMT:undname.obj
 0001:0004d52b       ?getLexicalFrame@UnDecorator@@CA?AVDName@@XZ 0044e52b f i LIBCMT:undname.obj
 0001:0004d55e       ?getDisplacement@UnDecorator@@CA?AVDName@@XZ 0044e55e f i LIBCMT:undname.obj
 0001:0004d574       ?getCallIndex@UnDecorator@@CA?AVDName@@XZ 0044e574 f i LIBCMT:undname.obj
 0001:0004d58a       ?getGuardNumber@UnDecorator@@CA?AVDName@@XZ 0044e58a f i LIBCMT:undname.obj
 0001:0004d5a0       ?getVfTableType@UnDecorator@@CA?AVDName@@ABV2@@Z 0044e5a0 f i LIBCMT:undname.obj
 0001:0004d6d7       ?getStringEncoding@UnDecorator@@CA?AVDName@@PADH@Z 0044e6d7 f   LIBCMT:undname.obj
 0001:0004d77b       ?getSignedDimension@UnDecorator@@CA?AVDName@@XZ 0044e77b f   LIBCMT:undname.obj
 0001:0004d7cd       ?getTemplateConstant@UnDecorator@@CA?AVDName@@XZ 0044e7cd f   LIBCMT:undname.obj
 0001:0004da9a       ?getPtrRefDataType@UnDecorator@@CA?AVDName@@ABV2@H@Z 0044ea9a f i LIBCMT:undname.obj
 0001:0004db78       ?getVbTableType@UnDecorator@@CA?AVDName@@ABV2@@Z 0044eb78 f i LIBCMT:undname.obj
 0001:0004db8f       ?getTemplateArgumentList@UnDecorator@@CA?AVDName@@XZ 0044eb8f f   LIBCMT:undname.obj
 0001:0004dd53       ?getOperatorName@UnDecorator@@CA?AVDName@@_NPA_N@Z 0044ed53 f i LIBCMT:undname.obj
 0001:0004e2f0       ?getTemplateName@UnDecorator@@CA?AVDName@@_N@Z 0044f2f0 f   LIBCMT:undname.obj
 0001:0004e437       ?getZName@UnDecorator@@CA?AVDName@@_N0@Z 0044f437 f   LIBCMT:undname.obj
 0001:0004e62d       ?getScopedName@UnDecorator@@CA?AVDName@@XZ 0044f62d f   LIBCMT:undname.obj
 0001:0004e6fe       ?getECSUName@UnDecorator@@CA?AVDName@@XZ 0044f6fe f i LIBCMT:undname.obj
 0001:0004e711       ?getECSUDataType@UnDecorator@@CA?AVDName@@XZ 0044f711 f   LIBCMT:undname.obj
 0001:0004e818       ?getSymbolName@UnDecorator@@CA?AVDName@@XZ 0044f818 f i LIBCMT:undname.obj
 0001:0004e862       ?getBasedType@UnDecorator@@CA?AVDName@@XZ 0044f862 f   LIBCMT:undname.obj
 0001:0004e8fa       ?composeDeclaration@UnDecorator@@CA?AVDName@@ABV2@@Z 0044f8fa f i LIBCMT:undname.obj
 0001:0004f495       ?getDecoratedName@UnDecorator@@CA?AVDName@@XZ 00450495 f   LIBCMT:undname.obj
 0001:0004f6ad       ?getScope@UnDecorator@@CA?AVDName@@XZ 004506ad f   LIBCMT:undname.obj
 0001:0004f91d       ?getFunctionIndirectType@UnDecorator@@CA?AVDName@@ABV2@@Z 0045091d f   LIBCMT:undname.obj
 0001:0004fc71       ?getDataIndirectType@UnDecorator@@CA?AVDName@@ABV2@D0H@Z 00450c71 f   LIBCMT:undname.obj
 0001:00050138       ??BUnDecorator@@QAEPADXZ   00451138 f i LIBCMT:undname.obj
 0001:00050269       ?getPtrRefType@UnDecorator@@CA?AVDName@@ABV2@0D@Z 00451269 f   LIBCMT:undname.obj
 0001:00050362       ?getPointerType@UnDecorator@@CA?AVDName@@ABV2@0@Z 00451362 f i LIBCMT:undname.obj
 0001:0005037f       ?getPointerTypeArray@UnDecorator@@CA?AVDName@@ABV2@0@Z 0045137f f i LIBCMT:undname.obj
 0001:0005039c       ?getReferenceType@UnDecorator@@CA?AVDName@@ABV2@0@Z 0045139c f i LIBCMT:undname.obj
 0001:000503b9       ___unDName                 004513b9 f   LIBCMT:undname.obj
 0001:00050453       ___unDNameEx               00451453 f   LIBCMT:undname.obj
 0001:000504ed       ?getBasicDataType@UnDecorator@@CA?AVDName@@ABV2@@Z 004514ed f   LIBCMT:undname.obj
 0001:000508a4       ?getPrimaryDataType@UnDecorator@@CA?AVDName@@ABV2@@Z 004518a4 f   LIBCMT:undname.obj
 0001:000509dc       ?getDataType@UnDecorator@@CA?AVDName@@PAV2@@Z 004519dc f   LIBCMT:undname.obj
 0001:00050a9c       ?getExternalDataType@UnDecorator@@CA?AVDName@@ABV2@@Z 00451a9c f i LIBCMT:undname.obj
 0001:00050b0c       __global_unwind2           00451b0c f   LIBCMT:exsup.obj
 0001:00050b71       __local_unwind2            00451b71 f   LIBCMT:exsup.obj
 0001:00050bf5       __abnormal_termination     00451bf5 f   LIBCMT:exsup.obj
 0001:00050c18       __NLG_Notify1              00451c18 f   LIBCMT:exsup.obj
 0001:00050c21       __NLG_Notify               00451c21 f   LIBCMT:exsup.obj
 0001:00050c38       __NLG_Dispatch             00451c38     LIBCMT:exsup.obj
 0001:00050c38       __NLG_Dispatch2            00451c38     LIBCMT:exsup.obj
 0001:00050c40       __NLG_Call                 00451c40 f   LIBCMT:exsup.obj
 0001:00050c42       __NLG_Return2              00451c42     LIBCMT:exsup.obj
 0001:00050c43       __tolower                  00451c43 f   LIBCMT:tolower.obj
 0001:00050c50       __tolower_l                00451c50 f   LIBCMT:tolower.obj
 0001:00050d65       _tolower                   00451d65 f   LIBCMT:tolower.obj
 0001:00050d91       __atodbl_l                 00451d91 f   LIBCMT:atodbl.obj
 0001:00050e39       __atodbl                   00451e39 f   LIBCMT:atodbl.obj
 0001:00050e50       __atoldbl_l                00451e50 f   LIBCMT:atodbl.obj
 0001:00050ef9       __atoldbl                  00451ef9 f   LIBCMT:atodbl.obj
 0001:00050f10       __atoflt_l                 00451f10 f   LIBCMT:atodbl.obj
 0001:00050fb8       __atoflt                   00451fb8 f   LIBCMT:atodbl.obj
 0001:00050fcf       __set_output_format        00451fcf f   LIBCMT:outputformat.obj
 0001:0005100b       __get_output_format        0045200b f   LIBCMT:outputformat.obj
 0001:00051011       __fptostr                  00452011 f   LIBCMT:_fptostr.obj
 0001:000510d0       ___dtold                   004520d0 f   LIBCMT:_cfout_.obj
 0001:00051188       __fltout2                  00452188 f   LIBCMT:_cfout_.obj
 0001:00051220       __alldvrm                  00452220 f   LIBCMT:lldvrm.obj
 0001:00051300       __aullshr                  00452300 f   LIBCMT:ullshr.obj
 0001:0005131f       __fptrap                   0045231f f   LIBCMT:crt0fp.obj
 0001:00051328       __controlfp_s              00452328 f   LIBCMT:_contrlfp_.obj
 0001:00051394       __lseeki64_nolock          00452394 f   LIBCMT:lseeki64.obj
 0001:00051419       __lseeki64                 00452419 f   LIBCMT:lseeki64.obj
 0001:00051532       __isatty                   00452532 f   LIBCMT:isatty.obj
 0001:00051596       __wctomb_s_l               00452596 f   LIBCMT:wctomb.obj
 0001:00051702       _wctomb_s                  00452702 f   LIBCMT:wctomb.obj
 0001:0005171f       __wctomb_l                 0045271f f   LIBCMT:wctomb.obj
 0001:00051770       _wctomb                    00452770 f   LIBCMT:wctomb.obj
 0001:00051848       __output_s_l               00452848 f   LIBCMT:outputs.obj
 0001:00052418       __set_osfhnd               00453418 f   LIBCMT:osfinfo.obj
 0001:00052499       __free_osfhnd              00453499 f   LIBCMT:osfinfo.obj
 0001:0005251f       __get_osfhandle            0045351f f   LIBCMT:osfinfo.obj
 0001:00052596       ___lock_fhandle            00453596 f   LIBCMT:osfinfo.obj
 0001:00052636       __unlock_fhandle           00453636 f   LIBCMT:osfinfo.obj
 0001:0005265d       __alloc_osfhnd             0045365d f   LIBCMT:osfinfo.obj
 0001:000527f7       __open_osfhandle           004537f7 f   LIBCMT:osfinfo.obj
 0001:0005290d       __mbtowc_l                 0045390d f   LIBCMT:mbtowc.obj
 0001:00052a24       _mbtowc                    00453a24 f   LIBCMT:mbtowc.obj
 0001:0005315d       __open                     0045415d f   LIBCMT:open.obj
 0001:00053213       __sopen_helper             00454213 f   LIBCMT:open.obj
 0001:000532df       __sopen                    004542df f   LIBCMT:open.obj
 0001:00053311       __sopen_s                  00454311 f   LIBCMT:open.obj
 0001:00053331       __mbsnbicmp_l              00454331 f   LIBCMT:mbsnbicm.obj
 0001:0005355c       __mbsnbicmp                0045455c f   LIBCMT:mbsnbicm.obj
 0001:00053576       __mbsnbcmp_l               00454576 f   LIBCMT:mbsnbcmp.obj
 0001:000536e0       __mbsnbcmp                 004546e0 f   LIBCMT:mbsnbcmp.obj
 0001:000536fa       __putwch_nolock            004546fa f   LIBCMT:putwch.obj
 0001:000537bf       __cputws                   004547bf f   LIBCMT:putwch.obj
 0001:0005385e       __putwch                   0045485e f   LIBCMT:putwch.obj
 0001:000538a4       ___crtMessageBoxA          004548a4 f   LIBCMT:crtmbox.obj
 0001:00053a0d       __set_error_mode           00454a0d f   LIBCMT:errmode.obj
 0001:00053a58       ___set_app_type            00454a58 f   LIBCMT:errmode.obj
 0001:00053a67       ___get_app_type            00454a67 f   LIBCMT:errmode.obj
 0001:00053a86       ___crtGetLocaleInfoW       00454a86 f   LIBCMT:w_loc.obj
 0001:00053bf9       ___crtGetLocaleInfoA       00454bf9 f   LIBCMT:a_loc.obj
 0001:00053e65       _strtol                    00454e65 f   LIBCMT:strtol.obj
 0001:00053e90       __strtol_l                 00454e90 f   LIBCMT:strtol.obj
 0001:00053ead       _strtoul                   00454ead f   LIBCMT:strtol.obj
 0001:00053ed9       __strtoul_l                00454ed9 f   LIBCMT:strtol.obj
 0001:00053ef6       __87except                 00454ef6 f   LIBCMT:_87except_.obj
 0001:00054035       __matherr                  00455035 f   LIBCMT:_matherr_.obj
 0001:00054038       __raise_exc_ex             00455038 f   LIBCMT:_fpexcept_.obj
 0001:00054314       __raise_exc                00455314 f   LIBCMT:_fpexcept_.obj
 0001:00054337       __raise_excf               00455337 f   LIBCMT:_fpexcept_.obj
 0001:0005435a       __handle_exc               0045535a f   LIBCMT:_fpexcept_.obj
 0001:0005453c       __set_errno_from_matherr   0045553c f   LIBCMT:_fpexcept_.obj
 0001:0005458f       __errcode                  0045558f f   LIBCMT:_fpexcept_.obj
 0001:000545c3       __umatherr                 004555c3 f   LIBCMT:_fpexcept_.obj
 0001:00054663       __handle_qnan1             00455663 f   LIBCMT:_fpexcept_.obj
 0001:000546b8       __handle_qnan2             004556b8 f   LIBCMT:_fpexcept_.obj
 0001:00054719       __except1                  00455719 f   LIBCMT:_fpexcept_.obj
 0001:000547e2       __except2                  004557e2 f   LIBCMT:_fpexcept_.obj
 0001:000548ba       __frnd                     004558ba f   LIBCMT:_frnd_.obj
 0001:000548ce       __set_exp                  004558ce f   LIBCMT:_util_.obj
 0001:000548fa       __get_exp                  004558fa f   LIBCMT:_util_.obj
 0001:00054912       __add_exp                  00455912 f   LIBCMT:_util_.obj
 0001:0005493f       __set_bexp                 0045593f f   LIBCMT:_util_.obj
 0001:00054966       __sptype                   00455966 f   LIBCMT:_util_.obj
 0001:000549c6       __decomp                   004559c6 f   LIBCMT:_util_.obj
 0001:00054a7f       __statfp                   00455a7f f   LIBCMT:_fpctrl_.obj
 0001:00054a8f       __clrfp                    00455a8f f   LIBCMT:_fpctrl_.obj
 0001:00054aa0       __ctrlfp                   00455aa0 f   LIBCMT:_fpctrl_.obj
 0001:00054ac9       __set_statfp               00455ac9 f   LIBCMT:_fpctrl_.obj
 0001:00054b21       ___get_fpsr_sse2           00455b21 f   LIBCMT:_fpctrl_.obj
 0001:00054b3f       ___set_fpsr_sse2           00455b3f f   LIBCMT:_fpctrl_.obj
 0001:00054bb1       ___fclrf_sse2              00455bb1 f   LIBCMT:_fpctrl_.obj
 0001:00054bce       ___statfp_sse2             00455bce f   LIBCMT:_fpctrl_.obj
 0001:00054be1       ___clrfp_sse2              00455be1 f   LIBCMT:_fpctrl_.obj
 0001:00054bf9       ___ctrlfp_sse2             00455bf9 f   LIBCMT:_fpctrl_.obj
 0001:00054c30       ___set_statfp_sse2         00455c30 f   LIBCMT:_fpctrl_.obj
 0001:00054c50       _fdiv_main_routine         00455c50 f   LIBCMT:_adj_fdiv_.obj
 0001:00054d67       __adj_fdiv_r               00455d67 f   LIBCMT:_adj_fdiv_.obj
 0001:00055206       __fdivp_sti_st             00456206 f   LIBCMT:_adj_fdiv_.obj
 0001:00055219       __fdivrp_sti_st            00456219 f   LIBCMT:_adj_fdiv_.obj
 0001:0005522c       __adj_fdiv_m32             0045622c f   LIBCMT:_adj_fdiv_.obj
 0001:00055278       __adj_fdiv_m64             00456278 f   LIBCMT:_adj_fdiv_.obj
 0001:000552c4       __adj_fdiv_m16i            004562c4 f   LIBCMT:_adj_fdiv_.obj
 0001:000552f8       __adj_fdiv_m32i            004562f8 f   LIBCMT:_adj_fdiv_.obj
 0001:0005532c       __adj_fdivr_m32            0045632c f   LIBCMT:_adj_fdiv_.obj
 0001:00055378       __adj_fdivr_m64            00456378 f   LIBCMT:_adj_fdiv_.obj
 0001:000553c4       __adj_fdivr_m16i           004563c4 f   LIBCMT:_adj_fdiv_.obj
 0001:000553f8       __adj_fdivr_m32i           004563f8 f   LIBCMT:_adj_fdiv_.obj
 0001:0005542c       __safe_fdiv                0045642c f   LIBCMT:_adj_fdiv_.obj
 0001:00055441       __safe_fdivr               00456441 f   LIBCMT:_adj_fdiv_.obj
 0001:00055456       __fprem_common             00456456 f   LIBCMT:_adj_fdiv_.obj
 0001:0005565c       __adj_fprem                0045665c f   LIBCMT:_adj_fdiv_.obj
 0001:0005570e       __fprem1_common            0045670e f   LIBCMT:_adj_fdiv_.obj
 0001:00055914       __adj_fprem1               00456914 f   LIBCMT:_adj_fdiv_.obj
 0001:000559c9       __safe_fprem               004569c9 f   LIBCMT:_adj_fdiv_.obj
 0001:000559cf       __safe_fprem1              004569cf f   LIBCMT:_adj_fdiv_.obj
 0001:000559d5       __adj_fpatan               004569d5 f   LIBCMT:_adj_fdiv_.obj
 0001:000559d8       __adj_fptan                004569d8 f   LIBCMT:_adj_fdiv_.obj
 0001:000559db       __copysign                 004569db f   LIBCMT:_ieeemisc_.obj
 0001:00055a03       __chgsign                  00456a03 f   LIBCMT:_ieeemisc_.obj
 0001:00055a30       __scalb                    00456a30 f   LIBCMT:_ieeemisc_.obj
 0001:00055a4a       __logb                     00456a4a f   LIBCMT:_ieeemisc_.obj
 0001:00055b33       __nextafter                00456b33 f   LIBCMT:_ieeemisc_.obj
 0001:00055ddb       __finite                   00456ddb f   LIBCMT:_ieeemisc_.obj
 0001:00055df7       __isnan                    00456df7 f   LIBCMT:_ieeemisc_.obj
 0001:00055e2b       __fpclass                  00456e2b f   LIBCMT:_ieeemisc_.obj
 0001:00055ebf       __iswctype_l               00456ebf f   LIBCMT:iswctype.obj
 0001:00055f49       _iswctype                  00456f49 f   LIBCMT:iswctype.obj
 0001:00055fbf       _is_wctype                 00456fbf f   LIBCMT:iswctype.obj
 0001:00055fca       __ZeroTail                 00456fca f i LIBCMT:_intrncvt_.obj
 0001:00056013       __IncMan                   00457013 f i LIBCMT:_intrncvt_.obj
 0001:00056080       __RoundMan                 00457080 f i LIBCMT:_intrncvt_.obj
 0001:00056170       __CopyMan                  00457170 f i LIBCMT:_intrncvt_.obj
 0001:0005618f       __FillZeroMan              0045718f f i LIBCMT:_intrncvt_.obj
 0001:000561a0       __IsZeroMan                004571a0 f i LIBCMT:_intrncvt_.obj
 0001:000561bf       __ShrMan                   004571bf f i LIBCMT:_intrncvt_.obj
 0001:00056259       __ld12cvt                  00457259 f i LIBCMT:_intrncvt_.obj
 0001:00056784       __ld12tod                  00457784 f   LIBCMT:_intrncvt_.obj
 0001:00056cc8       __ld12tof                  00457cc8 f   LIBCMT:_intrncvt_.obj
 0001:0005720c       __ld12told                 0045820c f   LIBCMT:_intrncvt_.obj
 0001:000572ce       ___add_12                  004582ce f i LIBCMT:_mantold_.obj
 0001:0005733f       ___mtold12                 0045833f f   LIBCMT:_mantold_.obj
 0001:0005789b       ___crtCompareStringA       0045889b f   LIBCMT:a_cmp.obj
 0001:000578dd       __strnicoll_l              004588dd f   LIBCMT:strnicol.obj
 0001:000579d7       __strnicoll                004589d7 f   LIBCMT:strnicol.obj
 0001:00057aac       ___crtsetenv               00458aac f   LIBCMT:setenv.obj
 0001:00057d4a       __ismbbkalnum_l            00458d4a f   LIBCMT:ismbbyte.obj
 0001:00057d63       __ismbbkalnum              00458d63 f   LIBCMT:ismbbyte.obj
 0001:00057d7b       __ismbbkprint_l            00458d7b f   LIBCMT:ismbbyte.obj
 0001:00057d94       __ismbbkprint              00458d94 f   LIBCMT:ismbbyte.obj
 0001:00057dac       __ismbbkpunct_l            00458dac f   LIBCMT:ismbbyte.obj
 0001:00057dc5       __ismbbkpunct              00458dc5 f   LIBCMT:ismbbyte.obj
 0001:00057ddd       __ismbbalnum_l             00458ddd f   LIBCMT:ismbbyte.obj
 0001:00057df9       __ismbbalnum               00458df9 f   LIBCMT:ismbbyte.obj
 0001:00057e14       __ismbbalpha_l             00458e14 f   LIBCMT:ismbbyte.obj
 0001:00057e30       __ismbbalpha               00458e30 f   LIBCMT:ismbbyte.obj
 0001:00057e4b       __ismbbgraph_l             00458e4b f   LIBCMT:ismbbyte.obj
 0001:00057e67       __ismbbgraph               00458e67 f   LIBCMT:ismbbyte.obj
 0001:00057e82       __ismbbprint_l             00458e82 f   LIBCMT:ismbbyte.obj
 0001:00057e9e       __ismbbprint               00458e9e f   LIBCMT:ismbbyte.obj
 0001:00057eb9       __ismbbpunct_l             00458eb9 f   LIBCMT:ismbbyte.obj
 0001:00057ed2       __ismbbpunct               00458ed2 f   LIBCMT:ismbbyte.obj
 0001:00057eea       __ismbblead_l              00458eea f   LIBCMT:ismbbyte.obj
 0001:00057f03       __ismbblead                00458f03 f   LIBCMT:ismbbyte.obj
 0001:00057f1b       __ismbbtrail_l             00458f1b f   LIBCMT:ismbbyte.obj
 0001:00057f34       __ismbbtrail               00458f34 f   LIBCMT:ismbbyte.obj
 0001:00057f4c       __ismbbkana_l              00458f4c f   LIBCMT:ismbbyte.obj
 0001:00057fa1       __ismbbkana                00458fa1 f   LIBCMT:ismbbyte.obj
 0001:00057fb4       __get_daylight             00458fb4 f   LIBCMT:timeset.obj
 0001:00057fed       __get_dstbias              00458fed f   LIBCMT:timeset.obj
 0001:00058026       __get_timezone             00459026 f   LIBCMT:timeset.obj
 0001:0005805f       __get_tzname               0045905f f   LIBCMT:timeset.obj
 0001:00058103       ___daylight                00459103 f   LIBCMT:timeset.obj
 0001:00058109       ___dstbias                 00459109 f   LIBCMT:timeset.obj
 0001:0005810f       ___timezone                0045910f f   LIBCMT:timeset.obj
 0001:00058115       ___tzname                  00459115 f   LIBCMT:timeset.obj
 0001:0005811b       __set_daylight             0045911b f i LIBCMT:tzset.obj
 0001:0005812c       __set_dstbias              0045912c f i LIBCMT:tzset.obj
 0001:0005813d       __set_timezone             0045913d f i LIBCMT:tzset.obj
 0001:00058863       ___tzset                   00459863 f   LIBCMT:tzset.obj
 0001:000588b2       __tzset                    004598b2 f   LIBCMT:tzset.obj
 0001:000588ea       __isindst                  004598ea f   LIBCMT:tzset.obj
 0001:0005892b       ___ascii_stricmp           0045992b f   LIBCMT:stricmp.obj
 0001:00058964       __stricmp_l                00459964 f   LIBCMT:stricmp.obj
 0001:00058a39       __stricmp                  00459a39 f   LIBCMT:stricmp.obj
 0001:00058a39       _stricmp                   00459a39 f   LIBCMT:stricmp.obj
 0001:00058a8b       _atol                      00459a8b f   LIBCMT:atox.obj
 0001:00058aa1       __atol_l                   00459aa1 f   LIBCMT:atox.obj
 0001:00058aba       _atoi                      00459aba f   LIBCMT:atox.obj
 0001:00058ac5       __atoi_l                   00459ac5 f   LIBCMT:atox.obj
 0001:00058ad0       __atoi64                   00459ad0 f   LIBCMT:atox.obj
 0001:00058ae6       __atoi64_l                 00459ae6 f   LIBCMT:atox.obj
 0001:00058aff       __strnicmp_l               00459aff f   LIBCMT:strnicmp.obj
 0001:00058bf1       __strnicmp                 00459bf1 f   LIBCMT:strnicmp.obj
 0001:00058bf1       _strnicmp                  00459bf1 f   LIBCMT:strnicmp.obj
 0001:00058c4f       _$I10_OUTPUT               00459c4f f   LIBCMT:_x10fout_.obj
 0001:00059576       __set_controlfp            0045a576 f   LIBCMT:_ieee87_.obj
 0001:000598ea       __statusfp                 0045a8ea f   LIBCMT:_ieee87_.obj
 0001:0005997c       __fpreset                  0045a97c f   LIBCMT:_ieee87_.obj
 0001:00059bb5       __statusfp2                0045abb5 f   LIBCMT:_ieee87_.obj
 0001:00059c0f       __clearfp                  0045ac0f f   LIBCMT:_ieee87_.obj
 0001:00059ce8       ___control87_2             0045ace8 f   LIBCMT:_ieee87_.obj
 0001:00059ffc       __control87                0045affc f i LIBCMT:_ieee87_.obj
 0001:0005a30b       __controlfp                0045b30b f   LIBCMT:_ieee87_.obj
 0001:0005a61d       __chsize_nolock            0045b61d f   LIBCMT:chsize.obj
 0001:0005a7d3       __chsize_s                 0045b7d3 f   LIBCMT:chsize.obj
 0001:0005a8c0       __chsize                   0045b8c0 f   LIBCMT:chsize.obj
 0001:0005a8dc       __setmode_nolock           0045b8dc f   LIBCMT:setmode.obj
 0001:0005a998       __set_fmode                0045b998 f   LIBCMT:setmode.obj
 0001:0005a9e4       __get_fmode                0045b9e4 f   LIBCMT:setmode.obj
 0001:0005aa1d       __setmode                  0045ba1d f   LIBCMT:setmode.obj
 0001:0005ab14       ___initconin               0045bb14 f   LIBCMT:initcon.obj
 0001:0005ab33       ___initconout              0045bb33 f   LIBCMT:initcon.obj
 0001:0005ab52       ___termcon                 0045bb52 f   LIBCMT:initcon.obj
 0001:0005ab7f       _wcslen                    0045bb7f f   LIBCMT:wcslen.obj
 0001:0005ab99       _ldexp                     0045bb99 f   LIBCMT:_ldexp_.obj
 0001:0005ad6e       ___crtGetStringTypeW       0045bd6e f   LIBCMT:w_str.obj
 0001:0005adac       __strdup                   0045bdac f   LIBCMT:strdup.obj
 0001:0005ae01       __mbschr_l                 0045be01 f   LIBCMT:mbschr.obj
 0001:0005aebd       __mbschr                   0045bebd f   LIBCMT:mbschr.obj
 0001:0005b16b       __strtoi64                 0045c16b f   LIBCMT:strtoq.obj
 0001:0005b196       __strtoi64_l               0045c196 f   LIBCMT:strtoq.obj
 0001:0005b1b3       __strtoui64                0045c1b3 f   LIBCMT:strtoq.obj
 0001:0005b1df       __strtoui64_l              0045c1df f   LIBCMT:strtoq.obj
 0001:0005b200       ___ascii_strnicmp          0045c200 f   LIBCMT:_strnicm.obj
 0001:0005b262       _WideCharToMultiByte@32    0045c262 f   kernel32:KERNEL32.dll
 0001:0005b268       _InterlockedIncrement@4    0045c268 f   kernel32:KERNEL32.dll
 0001:0005b26e       _InterlockedDecrement@4    0045c26e f   kernel32:KERNEL32.dll
 0001:0005b274       _InterlockedCompareExchange@12 0045c274 f   kernel32:KERNEL32.dll
 0001:0005b27a       _InterlockedExchange@8     0045c27a f   kernel32:KERNEL32.dll
 0001:0005b280       _MultiByteToWideChar@24    0045c280 f   kernel32:KERNEL32.dll
 0001:0005b286       _InitializeCriticalSection@4 0045c286 f   kernel32:KERNEL32.dll
 0001:0005b28c       _DeleteCriticalSection@4   0045c28c f   kernel32:KERNEL32.dll
 0001:0005b292       _EnterCriticalSection@4    0045c292 f   kernel32:KERNEL32.dll
 0001:0005b298       _LeaveCriticalSection@4    0045c298 f   kernel32:KERNEL32.dll
 0001:0005b29e       _TerminateProcess@8        0045c29e f   kernel32:KERNEL32.dll
 0001:0005b2a4       _GetCurrentProcess@0       0045c2a4 f   kernel32:KERNEL32.dll
 0001:0005b2aa       _UnhandledExceptionFilter@4 0045c2aa f   kernel32:KERNEL32.dll
 0001:0005b2b0       _SetUnhandledExceptionFilter@4 0045c2b0 f   kernel32:KERNEL32.dll
 0001:0005b2b6       _IsDebuggerPresent@0       0045c2b6 f   kernel32:KERNEL32.dll
 0001:0005b2bc       _RaiseException@16         0045c2bc f   kernel32:KERNEL32.dll
 0001:0005b2c2       _RtlUnwind@16              0045c2c2 f   kernel32:KERNEL32.dll
 0001:0005b2c8       _HeapAlloc@12              0045c2c8 f   kernel32:KERNEL32.dll
 0001:0005b2ce       _GetLastError@0            0045c2ce f   kernel32:KERNEL32.dll
 0001:0005b2d4       _HeapFree@12               0045c2d4 f   kernel32:KERNEL32.dll
 0001:0005b2da       _GetModuleHandleW@4        0045c2da f   kernel32:KERNEL32.dll
 0001:0005b2e0       _GetProcAddress@8          0045c2e0 f   kernel32:KERNEL32.dll
 0001:0005b2e6       _ExitProcess@4             0045c2e6 f   kernel32:KERNEL32.dll
 0001:0005b2ec       _DeleteFileA@4             0045c2ec f   kernel32:KERNEL32.dll
 0001:0005b2f2       _GetSystemTimeAsFileTime@4 0045c2f2 f   kernel32:KERNEL32.dll
 0001:0005b2f8       _GetCommandLineA@0         0045c2f8 f   kernel32:KERNEL32.dll
 0001:0005b2fe       _GetStartupInfoA@4         0045c2fe f   kernel32:KERNEL32.dll
 0001:0005b304       _GetCPInfo@8               0045c304 f   kernel32:KERNEL32.dll
 0001:0005b30a       _LCMapStringA@24           0045c30a f   kernel32:KERNEL32.dll
 0001:0005b310       _LCMapStringW@24           0045c310 f   kernel32:KERNEL32.dll
 0001:0005b316       _TlsGetValue@4             0045c316 f   kernel32:KERNEL32.dll
 0001:0005b31c       _TlsAlloc@0                0045c31c f   kernel32:KERNEL32.dll
 0001:0005b322       _TlsSetValue@8             0045c322 f   kernel32:KERNEL32.dll
 0001:0005b328       _TlsFree@4                 0045c328 f   kernel32:KERNEL32.dll
 0001:0005b32e       _SetLastError@4            0045c32e f   kernel32:KERNEL32.dll
 0001:0005b334       _GetCurrentThreadId@0      0045c334 f   kernel32:KERNEL32.dll
 0001:0005b33a       _GetCurrentThread@0        0045c33a f   kernel32:KERNEL32.dll
 0001:0005b340       _GetModuleHandleA@4        0045c340 f   kernel32:KERNEL32.dll
 0001:0005b346       _CloseHandle@4             0045c346 f   kernel32:KERNEL32.dll
 0001:0005b34c       _SetHandleCount@4          0045c34c f   kernel32:KERNEL32.dll
 0001:0005b352       _GetStdHandle@4            0045c352 f   kernel32:KERNEL32.dll
 0001:0005b358       _GetFileType@4             0045c358 f   kernel32:KERNEL32.dll
 0001:0005b35e       _HeapSize@12               0045c35e f   kernel32:KERNEL32.dll
 0001:0005b364       _WriteFile@20              0045c364 f   kernel32:KERNEL32.dll
 0001:0005b36a       _GetConsoleCP@0            0045c36a f   kernel32:KERNEL32.dll
 0001:0005b370       _GetConsoleMode@8          0045c370 f   kernel32:KERNEL32.dll
 0001:0005b376       _FatalAppExitA@8           0045c376 f   kernel32:KERNEL32.dll
 0001:0005b37c       _VirtualFree@12            0045c37c f   kernel32:KERNEL32.dll
 0001:0005b382       _VirtualAlloc@16           0045c382 f   kernel32:KERNEL32.dll
 0001:0005b388       _HeapReAlloc@16            0045c388 f   kernel32:KERNEL32.dll
 0001:0005b38e       _HeapCreate@12             0045c38e f   kernel32:KERNEL32.dll
 0001:0005b394       _HeapDestroy@4             0045c394 f   kernel32:KERNEL32.dll
 0001:0005b39a       _GetModuleFileNameA@12     0045c39a f   kernel32:KERNEL32.dll
 0001:0005b3a0       _ReadFile@20               0045c3a0 f   kernel32:KERNEL32.dll
 0001:0005b3a6       _SetConsoleCtrlHandler@8   0045c3a6 f   kernel32:KERNEL32.dll
 0001:0005b3ac       _FreeLibrary@4             0045c3ac f   kernel32:KERNEL32.dll
 0001:0005b3b2       _LoadLibraryA@4            0045c3b2 f   kernel32:KERNEL32.dll
 0001:0005b3b8       _InitializeCriticalSectionAndSpinCount@8 0045c3b8 f   kernel32:KERNEL32.dll
 0001:0005b3be       _SetFilePointer@16         0045c3be f   kernel32:KERNEL32.dll
 0001:0005b3c4       _GetACP@0                  0045c3c4 f   kernel32:KERNEL32.dll
 0001:0005b3ca       _GetOEMCP@0                0045c3ca f   kernel32:KERNEL32.dll
 0001:0005b3d0       _IsValidCodePage@4         0045c3d0 f   kernel32:KERNEL32.dll
 0001:0005b3d6       _FreeEnvironmentStringsA@4 0045c3d6 f   kernel32:KERNEL32.dll
 0001:0005b3dc       _GetEnvironmentStrings@0   0045c3dc f   kernel32:KERNEL32.dll
 0001:0005b3e2       _FreeEnvironmentStringsW@4 0045c3e2 f   kernel32:KERNEL32.dll
 0001:0005b3e8       _GetEnvironmentStringsW@0  0045c3e8 f   kernel32:KERNEL32.dll
 0001:0005b3ee       _QueryPerformanceCounter@4 0045c3ee f   kernel32:KERNEL32.dll
 0001:0005b3f4       _GetTickCount@0            0045c3f4 f   kernel32:KERNEL32.dll
 0001:0005b3fa       _GetCurrentProcessId@0     0045c3fa f   kernel32:KERNEL32.dll
 0001:0005b400       _GetStringTypeA@20         0045c400 f   kernel32:KERNEL32.dll
 0001:0005b406       _GetStringTypeW@16         0045c406 f   kernel32:KERNEL32.dll
 0001:0005b40c       _GetTimeFormatA@24         0045c40c f   kernel32:KERNEL32.dll
 0001:0005b412       _GetDateFormatA@24         0045c412 f   kernel32:KERNEL32.dll
 0001:0005b418       _GetUserDefaultLCID@0      0045c418 f   kernel32:KERNEL32.dll
 0001:0005b41e       _GetLocaleInfoA@16         0045c41e f   kernel32:KERNEL32.dll
 0001:0005b424       _EnumSystemLocalesA@8      0045c424 f   kernel32:KERNEL32.dll
 0001:0005b42a       _IsValidLocale@8           0045c42a f   kernel32:KERNEL32.dll
 0001:0005b430       _FlushFileBuffers@4        0045c430 f   kernel32:KERNEL32.dll
 0001:0005b436       _SetStdHandle@8            0045c436 f   kernel32:KERNEL32.dll
 0001:0005b43c       _CreateFileA@28            0045c43c f   kernel32:KERNEL32.dll
 0001:0005b442       _WriteConsoleA@20          0045c442 f   kernel32:KERNEL32.dll
 0001:0005b448       _GetConsoleOutputCP@0      0045c448 f   kernel32:KERNEL32.dll
 0001:0005b44e       _WriteConsoleW@20          0045c44e f   kernel32:KERNEL32.dll
 0001:0005b454       _GetLocaleInfoW@16         0045c454 f   kernel32:KERNEL32.dll
 0001:0005b45a       _CompareStringA@24         0045c45a f   kernel32:KERNEL32.dll
 0001:0005b460       _CompareStringW@24         0045c460 f   kernel32:KERNEL32.dll
 0001:0005b466       _SetEnvironmentVariableA@8 0045c466 f   kernel32:KERNEL32.dll
 0001:0005b46c       _GetTimeZoneInformation@4  0045c46c f   kernel32:KERNEL32.dll
 0001:0005b472       _SetEndOfFile@4            0045c472 f   kernel32:KERNEL32.dll
 0001:0005b478       _GetProcessHeap@0          0045c478 f   kernel32:KERNEL32.dll
 0001:0005b5fc       __strupr_s_l               0045c5fc f   LIBCMT:strupr.obj
 0001:0005b631       __strupr_s                 0045c631 f   LIBCMT:strupr.obj
 0001:0005b648       __strupr_l                 0045c648 f   LIBCMT:strupr.obj
 0001:0005b662       _strupr                    0045c662 f   LIBCMT:strupr.obj
 0001:0005b662       __strupr                   0045c662 f   LIBCMT:strupr.obj
 0002:00000000       __imp__ChooseColorA@4      0045e000     comdlg32:COMDLG32.dll
 0002:00000004       __imp__GetSaveFileNameA@4  0045e004     comdlg32:COMDLG32.dll
 0002:00000008       __imp__GetOpenFileNameA@4  0045e008     comdlg32:COMDLG32.dll
 0002:0000000c       \177COMDLG32_NULL_THUNK_DATA 0045e00c     comdlg32:COMDLG32.dll
 0002:00000010       __imp__SwapBuffers@4       0045e010     gdi32:GDI32.dll
 0002:00000014       __imp__GetTextExtentPointA@16 0045e014     gdi32:GDI32.dll
 0002:00000018       __imp__SetPixelFormat@12   0045e018     gdi32:GDI32.dll
 0002:0000001c       __imp__ChoosePixelFormat@8 0045e01c     gdi32:GDI32.dll
 0002:00000020       __imp__DescribePixelFormat@16 0045e020     gdi32:GDI32.dll
 0002:00000024       \177GDI32_NULL_THUNK_DATA  0045e024     gdi32:GDI32.dll
 0002:00000028       __imp__gluOrtho2D@32       0045e028     glu32:GLU32.dll
 0002:0000002c       __imp__gluPerspective@32   0045e02c     glu32:GLU32.dll
 0002:00000030       \177GLU32_NULL_THUNK_DATA  0045e030     glu32:GLU32.dll
 0002:00000034       __imp__SetStdHandle@8      0045e034     kernel32:KERNEL32.dll
 0002:00000038       __imp__FlushFileBuffers@4  0045e038     kernel32:KERNEL32.dll
 0002:0000003c       __imp__IsValidLocale@8     0045e03c     kernel32:KERNEL32.dll
 0002:00000040       __imp__EnumSystemLocalesA@8 0045e040     kernel32:KERNEL32.dll
 0002:00000044       __imp__GetLocaleInfoA@16   0045e044     kernel32:KERNEL32.dll
 0002:00000048       __imp__GetUserDefaultLCID@0 0045e048     kernel32:KERNEL32.dll
 0002:0000004c       __imp__GetDateFormatA@24   0045e04c     kernel32:KERNEL32.dll
 0002:00000050       __imp__GetTimeFormatA@24   0045e050     kernel32:KERNEL32.dll
 0002:00000054       __imp__GetStringTypeW@16   0045e054     kernel32:KERNEL32.dll
 0002:00000058       __imp__GetStringTypeA@20   0045e058     kernel32:KERNEL32.dll
 0002:0000005c       __imp__GetCurrentProcessId@0 0045e05c     kernel32:KERNEL32.dll
 0002:00000060       __imp__GetTickCount@0      0045e060     kernel32:KERNEL32.dll
 0002:00000064       __imp__QueryPerformanceCounter@4 0045e064     kernel32:KERNEL32.dll
 0002:00000068       __imp__GetEnvironmentStringsW@0 0045e068     kernel32:KERNEL32.dll
 0002:0000006c       __imp__FreeEnvironmentStringsW@4 0045e06c     kernel32:KERNEL32.dll
 0002:00000070       __imp__GetEnvironmentStrings@0 0045e070     kernel32:KERNEL32.dll
 0002:00000074       __imp__FreeEnvironmentStringsA@4 0045e074     kernel32:KERNEL32.dll
 0002:00000078       __imp__IsValidCodePage@4   0045e078     kernel32:KERNEL32.dll
 0002:0000007c       __imp__GetOEMCP@0          0045e07c     kernel32:KERNEL32.dll
 0002:00000080       __imp__GetACP@0            0045e080     kernel32:KERNEL32.dll
 0002:00000084       __imp__SetFilePointer@16   0045e084     kernel32:KERNEL32.dll
 0002:00000088       __imp__InitializeCriticalSectionAndSpinCount@8 0045e088     kernel32:KERNEL32.dll
 0002:0000008c       __imp__LoadLibraryA@4      0045e08c     kernel32:KERNEL32.dll
 0002:00000090       __imp__FreeLibrary@4       0045e090     kernel32:KERNEL32.dll
 0002:00000094       __imp__SetConsoleCtrlHandler@8 0045e094     kernel32:KERNEL32.dll
 0002:00000098       __imp__ReadFile@20         0045e098     kernel32:KERNEL32.dll
 0002:0000009c       __imp__GetModuleFileNameA@12 0045e09c     kernel32:KERNEL32.dll
 0002:000000a0       __imp__HeapDestroy@4       0045e0a0     kernel32:KERNEL32.dll
 0002:000000a4       __imp__HeapCreate@12       0045e0a4     kernel32:KERNEL32.dll
 0002:000000a8       __imp__HeapReAlloc@16      0045e0a8     kernel32:KERNEL32.dll
 0002:000000ac       __imp__VirtualAlloc@16     0045e0ac     kernel32:KERNEL32.dll
 0002:000000b0       __imp__VirtualFree@12      0045e0b0     kernel32:KERNEL32.dll
 0002:000000b4       __imp__FatalAppExitA@8     0045e0b4     kernel32:KERNEL32.dll
 0002:000000b8       __imp__GetConsoleMode@8    0045e0b8     kernel32:KERNEL32.dll
 0002:000000bc       __imp__GetConsoleCP@0      0045e0bc     kernel32:KERNEL32.dll
 0002:000000c0       __imp__WriteFile@20        0045e0c0     kernel32:KERNEL32.dll
 0002:000000c4       __imp__HeapSize@12         0045e0c4     kernel32:KERNEL32.dll
 0002:000000c8       __imp__GetFileType@4       0045e0c8     kernel32:KERNEL32.dll
 0002:000000cc       __imp__GetStdHandle@4      0045e0cc     kernel32:KERNEL32.dll
 0002:000000d0       __imp__SetHandleCount@4    0045e0d0     kernel32:KERNEL32.dll
 0002:000000d4       __imp__CloseHandle@4       0045e0d4     kernel32:KERNEL32.dll
 0002:000000d8       __imp__GetModuleHandleA@4  0045e0d8     kernel32:KERNEL32.dll
 0002:000000dc       __imp__GetCurrentThread@0  0045e0dc     kernel32:KERNEL32.dll
 0002:000000e0       __imp__GetCurrentThreadId@0 0045e0e0     kernel32:KERNEL32.dll
 0002:000000e4       __imp__CreateFileA@28      0045e0e4     kernel32:KERNEL32.dll
 0002:000000e8       __imp__GlobalUnlock@4      0045e0e8     kernel32:KERNEL32.dll
 0002:000000ec       __imp__GlobalLock@4        0045e0ec     kernel32:KERNEL32.dll
 0002:000000f0       __imp__GlobalAlloc@8       0045e0f0     kernel32:KERNEL32.dll
 0002:000000f4       __imp__OutputDebugStringA@4 0045e0f4     kernel32:KERNEL32.dll
 0002:000000f8       __imp__SetCurrentDirectoryA@4 0045e0f8     kernel32:KERNEL32.dll
 0002:000000fc       __imp__GetTempPathA@8      0045e0fc     kernel32:KERNEL32.dll
 0002:00000100       __imp__LocalFree@4         0045e100     kernel32:KERNEL32.dll
 0002:00000104       __imp__FormatMessageA@28   0045e104     kernel32:KERNEL32.dll
 0002:00000108       __imp__Sleep@4             0045e108     kernel32:KERNEL32.dll
 0002:0000010c       __imp__lstrcpyA@8          0045e10c     kernel32:KERNEL32.dll
 0002:00000110       __imp__GetCurrentDirectoryA@8 0045e110     kernel32:KERNEL32.dll
 0002:00000114       __imp__TlsFree@4           0045e114     kernel32:KERNEL32.dll
 0002:00000118       __imp__TlsSetValue@8       0045e118     kernel32:KERNEL32.dll
 0002:0000011c       __imp__TlsAlloc@0          0045e11c     kernel32:KERNEL32.dll
 0002:00000120       __imp__TlsGetValue@4       0045e120     kernel32:KERNEL32.dll
 0002:00000124       __imp__LCMapStringW@24     0045e124     kernel32:KERNEL32.dll
 0002:00000128       __imp__LCMapStringA@24     0045e128     kernel32:KERNEL32.dll
 0002:0000012c       __imp__GetCPInfo@8         0045e12c     kernel32:KERNEL32.dll
 0002:00000130       __imp__GetStartupInfoA@4   0045e130     kernel32:KERNEL32.dll
 0002:00000134       __imp__GetCommandLineA@0   0045e134     kernel32:KERNEL32.dll
 0002:00000138       __imp__GetSystemTimeAsFileTime@4 0045e138     kernel32:KERNEL32.dll
 0002:0000013c       __imp__DeleteFileA@4       0045e13c     kernel32:KERNEL32.dll
 0002:00000140       __imp__ExitProcess@4       0045e140     kernel32:KERNEL32.dll
 0002:00000144       __imp__GetProcAddress@8    0045e144     kernel32:KERNEL32.dll
 0002:00000148       __imp__GetModuleHandleW@4  0045e148     kernel32:KERNEL32.dll
 0002:0000014c       __imp__HeapFree@12         0045e14c     kernel32:KERNEL32.dll
 0002:00000150       __imp__GetLastError@0      0045e150     kernel32:KERNEL32.dll
 0002:00000154       __imp__HeapAlloc@12        0045e154     kernel32:KERNEL32.dll
 0002:00000158       __imp__RtlUnwind@16        0045e158     kernel32:KERNEL32.dll
 0002:0000015c       __imp__RaiseException@16   0045e15c     kernel32:KERNEL32.dll
 0002:00000160       __imp__IsDebuggerPresent@0 0045e160     kernel32:KERNEL32.dll
 0002:00000164       __imp__SetUnhandledExceptionFilter@4 0045e164     kernel32:KERNEL32.dll
 0002:00000168       __imp__UnhandledExceptionFilter@4 0045e168     kernel32:KERNEL32.dll
 0002:0000016c       __imp__GetCurrentProcess@0 0045e16c     kernel32:KERNEL32.dll
 0002:00000170       __imp__TerminateProcess@8  0045e170     kernel32:KERNEL32.dll
 0002:00000174       __imp__LeaveCriticalSection@4 0045e174     kernel32:KERNEL32.dll
 0002:00000178       __imp__EnterCriticalSection@4 0045e178     kernel32:KERNEL32.dll
 0002:0000017c       __imp__DeleteCriticalSection@4 0045e17c     kernel32:KERNEL32.dll
 0002:00000180       __imp__InitializeCriticalSection@4 0045e180     kernel32:KERNEL32.dll
 0002:00000184       __imp__MultiByteToWideChar@24 0045e184     kernel32:KERNEL32.dll
 0002:00000188       __imp__InterlockedExchange@8 0045e188     kernel32:KERNEL32.dll
 0002:0000018c       __imp__InterlockedCompareExchange@12 0045e18c     kernel32:KERNEL32.dll
 0002:00000190       __imp__InterlockedDecrement@4 0045e190     kernel32:KERNEL32.dll
 0002:00000194       __imp__InterlockedIncrement@4 0045e194     kernel32:KERNEL32.dll
 0002:00000198       __imp__WideCharToMultiByte@32 0045e198     kernel32:KERNEL32.dll
 0002:0000019c       __imp__WriteConsoleA@20    0045e19c     kernel32:KERNEL32.dll
 0002:000001a0       __imp__GetProcessHeap@0    0045e1a0     kernel32:KERNEL32.dll
 0002:000001a4       __imp__GetConsoleOutputCP@0 0045e1a4     kernel32:KERNEL32.dll
 0002:000001a8       __imp__WriteConsoleW@20    0045e1a8     kernel32:KERNEL32.dll
 0002:000001ac       __imp__GetLocaleInfoW@16   0045e1ac     kernel32:KERNEL32.dll
 0002:000001b0       __imp__CompareStringA@24   0045e1b0     kernel32:KERNEL32.dll
 0002:000001b4       __imp__CompareStringW@24   0045e1b4     kernel32:KERNEL32.dll
 0002:000001b8       __imp__SetEnvironmentVariableA@8 0045e1b8     kernel32:KERNEL32.dll
 0002:000001bc       __imp__GetTimeZoneInformation@4 0045e1bc     kernel32:KERNEL32.dll
 0002:000001c0       __imp__SetEndOfFile@4      0045e1c0     kernel32:KERNEL32.dll
 0002:000001c4       __imp__SetLastError@4      0045e1c4     kernel32:KERNEL32.dll
 0002:000001c8       \177KERNEL32_NULL_THUNK_DATA 0045e1c8     kernel32:KERNEL32.dll
 0002:000001cc       __imp__glHint@8            0045e1cc     opengl32:OPENGL32.dll
 0002:000001d0       __imp__glLoadIdentity@0    0045e1d0     opengl32:OPENGL32.dll
 0002:000001d4       __imp__glMatrixMode@4      0045e1d4     opengl32:OPENGL32.dll
 0002:000001d8       __imp__glDisable@4         0045e1d8     opengl32:OPENGL32.dll
 0002:000001dc       __imp__glEnable@4          0045e1dc     opengl32:OPENGL32.dll
 0002:000001e0       __imp__glPolygonMode@8     0045e1e0     opengl32:OPENGL32.dll
 0002:000001e4       __imp__glVertex3f@12       0045e1e4     opengl32:OPENGL32.dll
 0002:000001e8       __imp__glPopAttrib@0       0045e1e8     opengl32:OPENGL32.dll
 0002:000001ec       __imp__glLineWidth@4       0045e1ec     opengl32:OPENGL32.dll
 0002:000001f0       __imp__glEnd@0             0045e1f0     opengl32:OPENGL32.dll
 0002:000001f4       __imp__glNormal3fv@4       0045e1f4     opengl32:OPENGL32.dll
 0002:000001f8       __imp__glBegin@4           0045e1f8     opengl32:OPENGL32.dll
 0002:000001fc       __imp__glColor3f@12        0045e1fc     opengl32:OPENGL32.dll
 0002:00000200       __imp__glCullFace@4        0045e200     opengl32:OPENGL32.dll
 0002:00000204       __imp__glVertex3fv@4       0045e204     opengl32:OPENGL32.dll
 0002:00000208       __imp__glTexCoord2fv@4     0045e208     opengl32:OPENGL32.dll
 0002:0000020c       __imp__glPushAttrib@4      0045e20c     opengl32:OPENGL32.dll
 0002:00000210       __imp__glBlendFunc@8       0045e210     opengl32:OPENGL32.dll
 0002:00000214       __imp__glLightfv@12        0045e214     opengl32:OPENGL32.dll
 0002:00000218       __imp__glMaterialfv@12     0045e218     opengl32:OPENGL32.dll
 0002:0000021c       __imp__glDepthFunc@4       0045e21c     opengl32:OPENGL32.dll
 0002:00000220       __imp__glPixelStorei@8     0045e220     opengl32:OPENGL32.dll
 0002:00000224       __imp__glClearDepth@8      0045e224     opengl32:OPENGL32.dll
 0002:00000228       __imp__glClearColor@16     0045e228     opengl32:OPENGL32.dll
 0002:0000022c       __imp__glGetError@0        0045e22c     opengl32:OPENGL32.dll
 0002:00000230       __imp__glBindTexture@8     0045e230     opengl32:OPENGL32.dll
 0002:00000234       __imp__glRotatef@16        0045e234     opengl32:OPENGL32.dll
 0002:00000238       __imp__glScalef@12         0045e238     opengl32:OPENGL32.dll
 0002:0000023c       __imp__glTranslatef@12     0045e23c     opengl32:OPENGL32.dll
 0002:00000240       __imp__glClear@4           0045e240     opengl32:OPENGL32.dll
 0002:00000244       __imp__glPopMatrix@0       0045e244     opengl32:OPENGL32.dll
 0002:00000248       __imp__glLineStipple@8     0045e248     opengl32:OPENGL32.dll
 0002:0000024c       __imp__glMultMatrixf@4     0045e24c     opengl32:OPENGL32.dll
 0002:00000250       __imp__glPushMatrix@0      0045e250     opengl32:OPENGL32.dll
 0002:00000254       __imp__glEndList@0         0045e254     opengl32:OPENGL32.dll
 0002:00000258       __imp__glBitmap@28         0045e258     opengl32:OPENGL32.dll
 0002:0000025c       __imp__glNewList@8         0045e25c     opengl32:OPENGL32.dll
 0002:00000260       __imp__glGenLists@4        0045e260     opengl32:OPENGL32.dll
 0002:00000264       __imp__glDeleteLists@8     0045e264     opengl32:OPENGL32.dll
 0002:00000268       __imp__wglDeleteContext@4  0045e268     opengl32:OPENGL32.dll
 0002:0000026c       __imp__wglCreateContext@4  0045e26c     opengl32:OPENGL32.dll
 0002:00000270       __imp__wglMakeCurrent@8    0045e270     opengl32:OPENGL32.dll
 0002:00000274       __imp__glReadPixels@28     0045e274     opengl32:OPENGL32.dll
 0002:00000278       __imp__glTexImage2D@36     0045e278     opengl32:OPENGL32.dll
 0002:0000027c       __imp__glTexParameterf@12  0045e27c     opengl32:OPENGL32.dll
 0002:00000280       __imp__glTexEnvf@12        0045e280     opengl32:OPENGL32.dll
 0002:00000284       __imp__glViewport@16       0045e284     opengl32:OPENGL32.dll
 0002:00000288       __imp__glGetIntegerv@8     0045e288     opengl32:OPENGL32.dll
 0002:0000028c       __imp__glRasterPos2i@8     0045e28c     opengl32:OPENGL32.dll
 0002:00000290       __imp__glGetBooleanv@8     0045e290     opengl32:OPENGL32.dll
 0002:00000294       __imp__glColor3ub@12       0045e294     opengl32:OPENGL32.dll
 0002:00000298       __imp__glRasterPos3f@12    0045e298     opengl32:OPENGL32.dll
 0002:0000029c       __imp__glListBase@4        0045e29c     opengl32:OPENGL32.dll
 0002:000002a0       __imp__glCallLists@12      0045e2a0     opengl32:OPENGL32.dll
 0002:000002a4       \177OPENGL32_NULL_THUNK_DATA 0045e2a4     opengl32:OPENGL32.dll
 0002:000002a8       __imp__CloseClipboard@0    0045e2a8     user32:USER32.dll
 0002:000002ac       __imp__SetClipboardData@8  0045e2ac     user32:USER32.dll
 0002:000002b0       __imp__EmptyClipboard@0    0045e2b0     user32:USER32.dll
 0002:000002b4       __imp__OpenClipboard@4     0045e2b4     user32:USER32.dll
 0002:000002b8       __imp__InvalidateRect@12   0045e2b8     user32:USER32.dll
 0002:000002bc       __imp__GetAsyncKeyState@4  0045e2bc     user32:USER32.dll
 0002:000002c0       __imp__MessageBoxA@16      0045e2c0     user32:USER32.dll
 0002:000002c4       __imp__SetCursor@4         0045e2c4     user32:USER32.dll
 0002:000002c8       __imp__LoadCursorA@8       0045e2c8     user32:USER32.dll
 0002:000002cc       __imp__AppendMenuA@16      0045e2cc     user32:USER32.dll
 0002:000002d0       __imp__GetSubMenu@8        0045e2d0     user32:USER32.dll
 0002:000002d4       __imp__GetMenu@4           0045e2d4     user32:USER32.dll
 0002:000002d8       __imp__DeleteMenu@12       0045e2d8     user32:USER32.dll
 0002:000002dc       __imp__SetCursorPos@8      0045e2dc     user32:USER32.dll
 0002:000002e0       __imp__DefWindowProcA@16   0045e2e0     user32:USER32.dll
 0002:000002e4       __imp__DrawMenuBar@4       0045e2e4     user32:USER32.dll
 0002:000002e8       __imp__GetMenuItemCount@4  0045e2e8     user32:USER32.dll
 0002:000002ec       __imp__CreateMenu@0        0045e2ec     user32:USER32.dll
 0002:000002f0       __imp__UpdateWindow@4      0045e2f0     user32:USER32.dll
 0002:000002f4       __imp__ShowWindow@8        0045e2f4     user32:USER32.dll
 0002:000002f8       __imp__CreateWindowExA@48  0045e2f8     user32:USER32.dll
 0002:000002fc       __imp__LoadMenuA@8         0045e2fc     user32:USER32.dll
 0002:00000300       __imp__RegisterClassA@4    0045e300     user32:USER32.dll
 0002:00000304       __imp__LoadIconA@8         0045e304     user32:USER32.dll
 0002:00000308       __imp__DispatchMessageA@4  0045e308     user32:USER32.dll
 0002:0000030c       __imp__LoadAcceleratorsA@8 0045e30c     user32:USER32.dll
 0002:00000310       __imp__TranslateAcceleratorA@12 0045e310     user32:USER32.dll
 0002:00000314       __imp__TranslateMessage@4  0045e314     user32:USER32.dll
 0002:00000318       __imp__PeekMessageA@20     0045e318     user32:USER32.dll
 0002:0000031c       __imp__GetDC@4             0045e31c     user32:USER32.dll
 0002:00000320       __imp__EndPaint@8          0045e320     user32:USER32.dll
 0002:00000324       __imp__ReleaseDC@8         0045e324     user32:USER32.dll
 0002:00000328       __imp__BeginPaint@8        0045e328     user32:USER32.dll
 0002:0000032c       __imp__GetClientRect@8     0045e32c     user32:USER32.dll
 0002:00000330       __imp__GetCursorPos@4      0045e330     user32:USER32.dll
 0002:00000334       __imp__ReleaseCapture@0    0045e334     user32:USER32.dll
 0002:00000338       __imp__SetCapture@4        0045e338     user32:USER32.dll
 0002:0000033c       __imp__LoadStringA@16      0045e33c     user32:USER32.dll
 0002:00000340       __imp__ShowCursor@4        0045e340     user32:USER32.dll
 0002:00000344       \177USER32_NULL_THUNK_DATA 0045e344     user32:USER32.dll
 0002:00000348       ___xc_a                    0045e348     LIBCMT:crt0init.obj
 0002:00000390       ___xc_z                    0045e390     LIBCMT:crt0init.obj
 0002:00000394       ___xi_a                    0045e394     LIBCMT:crt0init.obj
 0002:000003b8       ___xi_z                    0045e3b8     LIBCMT:crt0init.obj
 0002:000003bc       ___xp_a                    0045e3bc     LIBCMT:crt0init.obj
 0002:000003c8       ___xp_z                    0045e3c8     LIBCMT:crt0init.obj
 0002:000003cc       ___xt_a                    0045e3cc     LIBCMT:crt0init.obj
 0002:000003d0       ___xt_z                    0045e3d0     LIBCMT:crt0init.obj
 0002:000003fc       ??_C@_0P@GHFPNOJB@bad?5allocation?$AA@ 0045e3fc     animation.obj
 0002:0000040b       ?_Value@?$_Is_swap_move@U_Swap_move_tag@std@@@std@@2_NB 0045e40b     animation.obj
 0002:0000040c       ?collate@?$_Locbase@H@std@@2HB 0045e40c     animation.obj
 0002:00000410       ?ctype@?$_Locbase@H@std@@2HB 0045e410     animation.obj
 0002:00000414       ?monetary@?$_Locbase@H@std@@2HB 0045e414     animation.obj
 0002:00000418       ?numeric@?$_Locbase@H@std@@2HB 0045e418     animation.obj
 0002:0000041c       ?time@?$_Locbase@H@std@@2HB 0045e41c     animation.obj
 0002:00000420       ?messages@?$_Locbase@H@std@@2HB 0045e420     animation.obj
 0002:00000424       ?all@?$_Locbase@H@std@@2HB 0045e424     animation.obj
 0002:00000428       ?none@?$_Locbase@H@std@@2HB 0045e428     animation.obj
 0002:0000042c       ?table_size@?$ctype@D@std@@2IB 0045e42c     animation.obj
 0002:00000430       ?skipws@?$_Iosb@H@std@@2W4_Fmtflags@12@B 0045e430     animation.obj
 0002:00000434       ?unitbuf@?$_Iosb@H@std@@2W4_Fmtflags@12@B 0045e434     animation.obj
 0002:00000438       ?uppercase@?$_Iosb@H@std@@2W4_Fmtflags@12@B 0045e438     animation.obj
 0002:0000043c       ?showbase@?$_Iosb@H@std@@2W4_Fmtflags@12@B 0045e43c     animation.obj
 0002:00000440       ?showpoint@?$_Iosb@H@std@@2W4_Fmtflags@12@B 0045e440     animation.obj
 0002:00000444       ?showpos@?$_Iosb@H@std@@2W4_Fmtflags@12@B 0045e444     animation.obj
 0002:00000448       ?left@?$_Iosb@H@std@@2W4_Fmtflags@12@B 0045e448     animation.obj
 0002:0000044c       ?right@?$_Iosb@H@std@@2W4_Fmtflags@12@B 0045e44c     animation.obj
 0002:00000450       ?internal@?$_Iosb@H@std@@2W4_Fmtflags@12@B 0045e450     animation.obj
 0002:00000454       ?dec@?$_Iosb@H@std@@2W4_Fmtflags@12@B 0045e454     animation.obj
 0002:00000458       ?oct@?$_Iosb@H@std@@2W4_Fmtflags@12@B 0045e458     animation.obj
 0002:0000045c       ?hex@?$_Iosb@H@std@@2W4_Fmtflags@12@B 0045e45c     animation.obj
 0002:00000460       ?scientific@?$_Iosb@H@std@@2W4_Fmtflags@12@B 0045e460     animation.obj
 0002:00000464       ?fixed@?$_Iosb@H@std@@2W4_Fmtflags@12@B 0045e464     animation.obj
 0002:00000468       ?hexfloat@?$_Iosb@H@std@@2W4_Fmtflags@12@B 0045e468     animation.obj
 0002:0000046c       ?boolalpha@?$_Iosb@H@std@@2W4_Fmtflags@12@B 0045e46c     animation.obj
 0002:00000470       ?_Stdio@?$_Iosb@H@std@@2W4_Fmtflags@12@B 0045e470     animation.obj
 0002:00000474       ?adjustfield@?$_Iosb@H@std@@2W4_Fmtflags@12@B 0045e474     animation.obj
 0002:00000478       ?basefield@?$_Iosb@H@std@@2W4_Fmtflags@12@B 0045e478     animation.obj
 0002:0000047c       ?floatfield@?$_Iosb@H@std@@2W4_Fmtflags@12@B 0045e47c     animation.obj
 0002:00000480       ?goodbit@?$_Iosb@H@std@@2W4_Iostate@12@B 0045e480     animation.obj
 0002:00000484       ?eofbit@?$_Iosb@H@std@@2W4_Iostate@12@B 0045e484     animation.obj
 0002:00000488       ?failbit@?$_Iosb@H@std@@2W4_Iostate@12@B 0045e488     animation.obj
 0002:0000048c       ?badbit@?$_Iosb@H@std@@2W4_Iostate@12@B 0045e48c     animation.obj
 0002:00000490       ?_Hardfail@?$_Iosb@H@std@@2W4_Iostate@12@B 0045e490     animation.obj
 0002:00000494       ?in@?$_Iosb@H@std@@2W4_Openmode@12@B 0045e494     animation.obj
 0002:00000498       ?out@?$_Iosb@H@std@@2W4_Openmode@12@B 0045e498     animation.obj
 0002:0000049c       ?ate@?$_Iosb@H@std@@2W4_Openmode@12@B 0045e49c     animation.obj
 0002:000004a0       ?app@?$_Iosb@H@std@@2W4_Openmode@12@B 0045e4a0     animation.obj
 0002:000004a4       ?trunc@?$_Iosb@H@std@@2W4_Openmode@12@B 0045e4a4     animation.obj
 0002:000004a8       ?_Nocreate@?$_Iosb@H@std@@2W4_Openmode@12@B 0045e4a8     animation.obj
 0002:000004ac       ?_Noreplace@?$_Iosb@H@std@@2W4_Openmode@12@B 0045e4ac     animation.obj
 0002:000004b0       ?binary@?$_Iosb@H@std@@2W4_Openmode@12@B 0045e4b0     animation.obj
 0002:000004b4       ?beg@?$_Iosb@H@std@@2W4_Seekdir@12@B 0045e4b4     animation.obj
 0002:000004b8       ?cur@?$_Iosb@H@std@@2W4_Seekdir@12@B 0045e4b8     animation.obj
 0002:000004bc       ?end@?$_Iosb@H@std@@2W4_Seekdir@12@B 0045e4bc     animation.obj
 0002:000004c0       ?value@?$integral_constant@_N$0A@@tr1@std@@2_NB 0045e4c0     animation.obj
 0002:000004c1       ?value@?$integral_constant@_N$00@tr1@std@@2_NB 0045e4c1     animation.obj
 0002:000004c8       ??_7bad_alloc@std@@6B@     0045e4c8     animation.obj
 0002:000004d0       ??_C@_0IG@KNMLADEP@Model?5?3?5?$CC?$CFs?$CC?6?6?4?4?4?5has?5?$CFd?5frames?0@ 0045e4d0     animation.obj
 0002:00000558       ??_C@_0ID@EGKNAGNF@Model?5?3?5?$CC?$CFs?$CC?6?6?4?4?4?5has?5?$CFd?5frames?0@ 0045e558     animation.obj
 0002:000005e0       ??_7logic_error@std@@6B@   0045e5e0     animation.obj
 0002:000005ec       ??_7length_error@std@@6B@  0045e5ec     animation.obj
 0002:000005f8       ??_7out_of_range@std@@6B@  0045e5f8     animation.obj
 0002:00000600       ??_C@_0BM@NMJKDPPO@invalid?5vector?$DMT?$DO?5subscript?$AA@ 0045e600     animation.obj
 0002:0000061c       ??_C@_0BD@OLBABOEK@vector?$DMT?$DO?5too?5long?$AA@ 0045e61c     animation.obj
 0002:00000630       __real@3f800000            0045e630     animation.obj
 0002:00000634       __real@00000000            0045e634     animation.obj
 0002:00000638       __real@3f000000            0045e638     animation.obj
 0002:0000063c       __real@c2b40000            0045e63c     animation.obj
 0002:00000640       ??_C@_0P@GCNEOLOJ@?$CFs?5?$CI?$CFd?4?4?4?$CFd?$CJ?$CFs?$AA@ 0045e640     animation.obj
 0002:00000650       ??_C@_09ENEACFIC@?5?5Loop?5?$CFd?$AA@ 0045e650     animation.obj
 0002:0000065a       ??_C@_00CNPNBAHC@?$AA@     0045e65a     animation.obj
 0002:0000065c       ??_C@_01CLKCMJKC@?5?$AA@   0045e65c     animation.obj
 0002:00000660       ??_C@_0BK@NDMEOFBC@Error?5while?5reading?5?$CC?$CFs?$CC?$CB?$AA@ 0045e660     animation.obj
 0002:0000067c       ??_C@_05NBMLDPLF@BOTH_?$AA@ 0045e67c     animation.obj
 0002:00000684       ??_C@_05PDKOPCIE@LEGS_?$AA@ 0045e684     animation.obj
 0002:0000068c       ??_C@_06JGIJOCBN@TORSO_?$AA@ 0045e68c     animation.obj
 0002:00000694       ??_C@_02DKCKIIND@?$CFs?$AA@ 0045e694     animation.obj
 0002:00000698       ??_C@_0M@FMGEODLN@?$CFd?5?$CFd?5?$CFd?5?$CFd?$AA@ 0045e698     animation.obj
 0002:000006a4       ??_C@_0P@GOFAHLEL@?$CFs?5?$CFd?5?$CFd?5?$CFd?5?$CFd?$AA@ 0045e6a4     animation.obj
 0002:000006b4       ??_C@_09KKBJFDON@soundpath?$AA@ 0045e6b4     animation.obj
 0002:000006c0       ??_C@_0L@JPPMCFBB@headoffset?$AA@ 0045e6c0     animation.obj
 0002:000006cc       ??_C@_09IPEFJHNA@footsteps?$AA@ 0045e6cc     animation.obj
 0002:000006d8       ??_C@_03OMLNFKE@sex?$AA@   0045e6d8     animation.obj
 0002:000006dc       ??_C@_02CBLDBPFN@?1?1?$AA@ 0045e6dc     animation.obj
 0002:000006e0       ??_C@_02BMJICGCB@rt?$AA@   0045e6e0     animation.obj
 0002:000006e4       ??_C@_02GMLFBBN@wb?$AA@    0045e6e4     bmp.obj
 0002:000006e8       ??_C@_02JDPG@rb?$AA@       0045e6e8     bmp.obj
 0002:000006f0       ??_C@_0HM@FJJDMHED@ClipBoard_SendDIB?$CI?$CJ?3?5Dammit?0?5I?5c@ 0045e6f0     clipboard.obj
 0002:00000770       ??_C@_0EO@CKGCMDMI@ClipBoard_SendDIB?$CI?$CJ?3?5Dammit?0?5som@ 0045e770     clipboard.obj
 0002:000007c0       ??_C@_0HP@HNFDPJHA@Clipboard_SendString?$CI?$CJ?3?5Dammit?0?5@ 0045e7c0     clipboard.obj
 0002:00000840       ??_C@_0FB@NINHNIHK@Clipboard_SendString?$CI?$CJ?3?5Dammit?0?5@ 0045e840     clipboard.obj
 0002:000008a4       __real@447a0000            0045e8a4     drag.obj
 0002:000008a8       __real@408f400000000000    0045e8a8     drag.obj
 0002:000008b0       __real@c47a0000            0045e8b0     drag.obj
 0002:000008b8       __real@c08f400000000000    0045e8b8     drag.obj
 0002:000008c0       __real@c3b40000            0045e8c0     drag.obj
 0002:000008c8       __real@4076800000000000    0045e8c8     drag.obj
 0002:000008d0       __real@43b40000            0045e8d0     drag.obj
 0002:000008d8       __real@3fe0000000000000    0045e8d8     drag.obj
 0002:000008e0       __real@3fb99999a0000000    0045e8e0     drag.obj
 0002:000008e8       __real@4024000000000000    0045e8e8     drag.obj
 0002:000008f0       ??_C@_05NAOIJFC@Error?$AA@ 0045e8f0     Error.obj
 0002:000008f8       ??_C@_05GCIPIGEI@Debug?$AA@ 0045e8f8     Error.obj
 0002:00000900       ??_C@_0DD@FPPMEJLO@Error?$CB?5Unable?5to?5allocate?5?$CFd?5byt@ 0045e900     g2export.obj
 0002:00000934       ??_C@_04JPCGMMBO@_off?$AA@ 0045e934     g2export.obj
 0002:0000093c       ??_C@_08KPIGECMN@?$CKdefault?$AA@ 0045e93c     g2export.obj
 0002:00000948       ??_C@_0CC@HLCFIDGB@Error?3?5Unable?5to?5open?5file?5?8?$CFs?8?$CB@ 0045e948     g2export.obj
 0002:0000096c       ??_C@_0BE@GNNFBCFE@JPEG?5read?5error?3?5?$CFs?$AA@ 0045e96c     jpeg_interface.obj
 0002:00000980       ??_C@_0CH@EDMJJBJM@JPG?5?$CFs?5is?5unsupported?5color?5dept@ 0045e980     jpeg_interface.obj
 0002:000009a8       ??_C@_03OFAPEBGM@?$CFs?6?$AA@ 0045e9a8     jpeg_interface.obj
 0002:000009b0       __real@bf00004000000000    0045e9b0     MatComp.obj
 0002:000009b8       __real@c050000000000000    0045e9b8     MatComp.obj
 0002:000009c0       __real@3f00004000000000    0045e9c0     MatComp.obj
 0002:000009c8       __real@3f90000000000000    0045e9c8     MatComp.obj
 0002:000009d0       ?Pi@@3MB                   0045e9d0     matrix4.obj
 0002:000009d8       __real@3ff0000000000000    0045e9d8     matrix4.obj
 0002:000009e0       __real@3cd203af9ee75616    0045e9e0     matrix4.obj
 0002:000009e8       __real@3f1a36e2e0000000    0045e9e8     matrix4.obj
 0002:000009f0       __real@3a83126f            0045e9f0     matrix4.obj
 0002:000009f8       __real@3f50624de0000000    0045e9f8     matrix4.obj
 0002:00000a00       __real@bf800000            0045ea00     matrix4.obj
 0002:00000a08       __real@bff0000000000000    0045ea08     matrix4.obj
 0002:00000a10       __real@4008000000000000    0045ea10     matrix4.obj
 0002:00000a18       __real@3fb999999999999a    0045ea18     md3gl.obj
 0002:00000a20       __real@4080000000000000    0045ea20     md3gl.obj
 0002:00000a28       __real@0000000000000000    0045ea28     md3gl.obj
 0002:00000a30       ??_C@_0P@DFFIMAMI@?$CF?43f?5?$CF?43f?5?$CF?43f?$AA@ 0045ea30     md3gl.obj
 0002:00000a40       ??_C@_09EHPMMBMK@?$CF?43f?5?$CF?43f?$AA@ 0045ea40     md3gl.obj
 0002:00000a4c       ??_C@_09NPHMBDNC@?5Z?5?$DN?5?$CF?43f?$AA@ 0045ea4c     md3gl.obj
 0002:00000a58       ??_C@_09OGPBCPBH@?5Y?5?$DN?5?$CF?43f?$AA@ 0045ea58     md3gl.obj
 0002:00000a64       ??_C@_09PBIKDLFE@?5X?5?$DN?5?$CF?43f?$AA@ 0045ea64     md3gl.obj
 0002:00000a70       __real@40400000            0045ea70     md3gl.obj
 0002:00000a74       __real@3f4ccccd            0045ea74     md3gl.obj
 0002:00000a78       __real@40000000            0045ea78     md3gl.obj
 0002:00000a7c       ??_C@_0BF@ONFAKMIA@?6Surfaces?$CILOD?5?$CFd?$CJ?3?6?6?$AA@ 0045ea7c     md3gl.obj
 0002:00000a94       ??_C@_0O@DEBPEMND@?5?5?$CFs?5?$DN?5?$CFs?5?$CFs?6?$AA@ 0045ea94     md3gl.obj
 0002:00000aa4       ??_C@_0O@NLDABJHE@?$CI?5Not?5found?$CB?$CJ?$AA@ 0045eaa4     md3gl.obj
 0002:00000ab4       ??_C@_0BI@DGEBCLL@?6Surfaces?$CILOD?5?$CFd?1?$CFd?$CJ?3?6?6?$AA@ 0045eab4     md3gl.obj
 0002:00000acc       ??_C@_02PHMGELLB@?6?6?$AA@ 0045eacc     md3gl.obj
 0002:00000ad0       ??_C@_0DF@IFDALMHN@Code?5missing?5for?5new?5model?5type?5@ 0045ead0     md3gl.obj
 0002:00000b08       ??_C@_0L@CDEOHHKA@Model?3?5?$CFs?6?$AA@ 0045eb08     md3gl.obj
 0002:00000b14       ??_C@_0BB@NOFMEJOO@No?5model?5loaded?$CB?$AA@ 0045eb14     md3gl.obj
 0002:00000b28       ??_C@_0O@FBPIJODN@_default?4skin?$AA@ 0045eb28     md3gl.obj
 0002:00000b38       ??_C@_03NPMIAODO@?4md?$AA@ 0045eb38     md3gl.obj
 0002:00000b3c       ??_C@_0CM@HPPGKCEP@Unable?5to?5find?5model?5to?5apply?5sk@ 0045eb3c     md3gl.obj
 0002:00000b68       ??_C@_0BC@NMIGKHHO@No?5models?5loaded?$CB?$AA@ 0045eb68     md3gl.obj
 0002:00000b7c       ??_C@_0CN@CBBHIKMA@Unable?5to?5find?5surface?5name?5?$CC?$CFs?$CC@ 0045eb7c     md3gl.obj
 0002:00000bac       ??_C@_03HCMCBFLP@_?$CFd?$AA@ 0045ebac     md3gl.obj
 0002:00000bb0       ??_C@_0EA@CGGBIACL@Missing?5model?9type?5case?5statemen@ 0045ebb0     md3gl.obj
 0002:00000bf0       ??_C@_0CG@DLELGOKH@Error?5parsing?5line?5?$CC?$CFs?$CC?5in?5file?5@ 0045ebf0     md3gl.obj
 0002:00000c18       ??_C@_04MGKOECLF@tag_?$AA@ 0045ec18     md3gl.obj
 0002:00000c20       ??_C@_05KCPJJFH@head_?$AA@ 0045ec20     md3gl.obj
 0002:00000c28       ??_C@_05DMALNBOA@head?4?$AA@ 0045ec28     md3gl.obj
 0002:00000c30       ??_C@_0GB@HHANEDEE@This?5head?5model?5does?5not?5have?5a?5@ 0045ec30     md3gl.obj
 0002:00000c94       ??_C@_0L@KAPJMOCM@_?$CFs?$CFs?4skin?$AA@ 0045ec94     md3gl.obj
 0002:00000ca0       ??_C@_04LDFIJNFP@?9?$CF1d?$AA@ 0045eca0     md3gl.obj
 0002:00000ca8       ??_C@_04NEODDMOL@head?$AA@ 0045eca8     md3gl.obj
 0002:00000cb0       __real@41700000            0045ecb0     md3gl.obj
 0002:00000cb4       __real@42340000            0045ecb4     md3gl.obj
 0002:00000cb8       __real@c0a00000            0045ecb8     md3gl.obj
 0002:00000cbc       __real@c2480000            0045ecbc     md3gl.obj
 0002:00000cc0       __real@425c0000            0045ecc0     md3gl.obj
 0002:00000cc4       __real@41a00000            0045ecc4     md3gl.obj
 0002:00000cc8       __real@3f666666            0045ecc8     md3gl.obj
 0002:00000cd0       __real@4070000000000000    0045ecd0     md3gl.obj
 0002:00000cd8       __real@3d4ccccd            0045ecd8     md3gl.obj
 0002:00000cdc       ??_C@_02HAHPEGIA@?9Z?$AA@  0045ecdc     md3gl.obj
 0002:00000ce0       ??_C@_01POHCFINO@Z?$AA@    0045ece0     md3gl.obj
 0002:00000ce4       ??_C@_02FLFCBFED@?9Y?$AA@  0045ece4     md3gl.obj
 0002:00000ce8       ??_C@_01NFFPALBN@Y?$AA@    0045ece8     md3gl.obj
 0002:00000cec       ??_C@_02ECEJCEAC@?9X?$AA@  0045ecec     md3gl.obj
 0002:00000cf0       ??_C@_01MMEEDKFM@X?$AA@    0045ecf0     md3gl.obj
 0002:00000cf8       __real@3fe6aaaaa0000000    0045ecf8     md3IO.obj
 0002:00000d00       __real@400921fb54442d18    0045ed00     md3IO.obj
 0002:00000d08       __real@4066800000000000    0045ed08     md3IO.obj
 0002:00000d10       __real@3f80000000000000    0045ed10     md3IO.obj
 0002:00000d18       __real@c7c34f80            0045ed18     md3IO.obj
 0002:00000d1c       __real@47c34f80            0045ed1c     md3IO.obj
 0002:00000d20       ??_C@_0EI@PFGFBOEM@G2Exporter_Surface_GetName?$CI?$CJ?3?5Er@ 0045ed20     md3IO.obj
 0002:00000d68       ??_C@_0N@MKPEOKKN@?$FLNoMaterial?$FN?$AA@ 0045ed68     md3IO.obj
 0002:00000d78       ??_C@_0EO@HBCLHEGN@G2Exporter_Surface_GetShaderName@ 0045ed78     md3IO.obj
 0002:00000dc8       ??_C@_0EM@JFFLHGI@G2Exporter_Surface_GetNumVerts?$CI?$CJ@ 0045edc8     md3IO.obj
 0002:00000e18       ??_C@_0EL@LCFGFHCF@G2Exporter_Surface_GetNumTris?$CI?$CJ?3@ 0045ee18     md3IO.obj
 0002:00000e68       ??_C@_0EM@JNCBCCGJ@G2Exporter_Surface_GetTriIndex?$CI?$CJ@ 0045ee68     md3IO.obj
 0002:00000eb8       __real@408ff80000000000    0045eeb8     md3IO.obj
 0002:00000ec0       ??_C@_0EO@DDGGEBE@G2Exporter_Surface_GetVertNormal@ 0045eec0     md3IO.obj
 0002:00000f10       __real@4000000000000000    0045ef10     md3IO.obj
 0002:00000f18       ??_C@_0EO@DCIMHJNC@G2Exporter_Surface_GetVertCoords@ 0045ef18     md3IO.obj
 0002:00000f68       ??_C@_0EN@HNJKOLNH@G2Exporter_Surface_GetTexCoords?$CI@ 0045ef68     md3IO.obj
 0002:00000fb8       ??_C@_0DC@KNICEEAB@Error?5loading?5mesh?0?5found?5?$CC?$CFs?$CC?5i@ 0045efb8     md3IO.obj
 0002:00000fec       ??_C@_0CB@DKKPEOL@meshSize?$CI?$CFd?$CJ?5?$DM?$DN?5vertexStart?$CI?$CFd?$CJ?6@ 0045efec     md3IO.obj
 0002:00001010       ??_C@_0CB@CMHNJEGF@meshSize?$CI?$CFd?$CJ?5?$DM?$DN?5texvecStart?$CI?$CFd?$CJ?6@ 0045f010     md3IO.obj
 0002:00001034       ??_C@_0CD@KKELCMGN@meshSize?$CI?$CFd?$CJ?5?$DM?$DN?5triangleStart?$CI?$CFd@ 0045f034     md3IO.obj
 0002:00001058       ??_C@_0BH@OMMJFMMP@headerSize?$CI?$CFd?$CJ?5?$CB?$DN?5108?6?$AA@ 0045f058     md3IO.obj
 0002:00001070       ??_C@_0BJ@GMAFDGII@Error?$CIs?$CJ?5loading?5mesh?3?6?6?$AA@ 0045f070     md3IO.obj
 0002:0000108c       ??_C@_04OAJPLGDA@IDP3?$AA@ 0045f08c     md3IO.obj
 0002:00001094       ??_C@_0DL@BBAEMDG@R_LoadMD4?3?5?$CFs?5has?5more?5than?5?$CFi?5t@ 0045f094     md3IO.obj
 0002:000010d0       ??_C@_0DH@GOKANBIJ@R_LoadMD4?3?5?$CFs?5has?5more?5than?5?$CFi?5v@ 0045f0d0     md3IO.obj
 0002:00001108       ??_C@_0BN@PNDGAECH@R_LoadMD4?3?5?$CFs?5has?5no?5frames?6?$AA@ 0045f108     md3IO.obj
 0002:00001128       ??_C@_0DD@KJJDGJEK@R_LoadMD4?3?5?$CFs?5has?5wrong?5version?5@ 0045f128     md3IO.obj
 0002:0000115c       ??_C@_0DB@OMFBBCHA@Unable?5to?5work?5out?5model?5format?5@ 0045f15c     md3IO.obj
 0002:00001190       ??_C@_0BL@FGPPDHJE@Error?5mallocing?5?$CFd?5bytes?$CB?6?$AA@ 0045f190     md3IO.obj
 0002:000011ac       ??_C@_04LFALIHAG@RDM5?$AA@ 0045f1ac     md3IO.obj
 0002:000011b4       ??_C@_0BP@NIABGIJM@Bad?5header?5in?5MD3?5file?3?6?6?$CC?$CFs?$CC?6?$AA@ 0045f1b4     md3IO.obj
 0002:000011d4       ??_C@_0BP@GEJGAOFG@Error?5in?5?$CC?$CFs?$CC?0?5mesh?5?$CC?$CFs?$CC?3?6?6?$CFs?6?$AA@ 0045f1d4     md3IO.obj
 0002:000011f8       ??_C@_0FD@PBICCHKA@Internal?5logic?5error?3?5Not?5at?5sur@ 0045f1f8     md3IO.obj
 0002:00001250       ??_C@_0EP@FBJCJCAN@Internal?5logic?5error?3?5Not?5at?5tag@ 0045f250     md3IO.obj
 0002:000012a0       ??_C@_01EEMJAFIK@?6?$AA@   0045f2a0     md3IO.obj
 0002:000012a4       ??_C@_03JAIJOMNP@?$CFf?5?$AA@ 0045f2a4     md3IO.obj
 0002:000012a8       ??_C@_08BIGFFAHI@Object1?6?$AA@ 0045f2a8     md3IO.obj
 0002:000012b4       ??_C@_0BP@IAKCGCAM@Could?5not?5write?5to?5raw?5file?5?$CFs?$AA@ 0045f2b4     md3IO.obj
 0002:000012d4       ??_C@_02BKFDOEMK@wt?$AA@   0045f2d4     md3IO.obj
 0002:000012d8       ??_C@_0BB@MOGOBHAF@list?$DMT?$DO?5too?5long?$AA@ 0045f2d8     md3IO.obj
 0002:000012ec       ??_C@_0CC@JKLOJGDM@casedefault?3?5Unhandled?5model?5typ@ 0045f2ec     md3IO.obj
 0002:00001310       ??_C@_0CB@PIFBDCNN@Error?3?5Unable?5to?5write?5to?5?8?$CFs?8?$CB?6@ 0045f310     md3IO.obj
 0002:00001334       ??_C@_0O@KDKEBJ@MD3View_Raven?$AA@ 0045f334     md3IO.obj
 0002:00001348       __real@4050000000000000    0045f348     md3IO.obj
 0002:00001350       ??_C@_0CL@IKGFPGAM@Apply?5this?5decision?5to?5all?5futur@ 0045f350     md3IO.obj
 0002:0000137c       ??_C@_0CM@CPJCHEMA@Output?5file?5?$CC?$CFs?$CC?5already?5exists?0@ 0045f37c     md3IO.obj
 0002:000013a8       ??_C@_07BEDDCCPM@_?$CFd?4md3?$AA@ 0045f3a8     md3IO.obj
 0002:000013b0       ??_C@_0FJ@FIFFAPFK@Multi?9LOD?9export?5failure?3?6?6?$CFs?6?6D@ 0045f3b0     md3IO.obj
 0002:0000140c       ??_C@_0CE@KJCCJMGB@LOD?5?$CFd?5has?5more?5surfaces?5than?5LO@ 0045f40c     md3IO.obj
 0002:00001430       ??_C@_0BL@LCOONEAP@LOD?5?$CFd?5is?5not?5an?5MD3?5model?$AA@ 0045f430     md3IO.obj
 0002:00001450       ??_C@_0BEB@FLFCFBCJ@Multi?9LOD?9export?5issue?3?6?6LOD?5?$CFd?5@ 0045f450     md3IO.obj
 0002:00001594       ??_C@_07NBCGADJA@Unknown?$AA@ 0045f594     md3IO.obj
 0002:000015a0       ??_C@_0IL@HPLHHGAJ@Only?5MD3?5models?5with?51?5frame?5can@ 0045f5a0     md3IO.obj
 0002:0000162c       ??_C@_05BNKNJDAB@Query?$AA@ 0045f62c     md3IO.obj
 0002:00001638       ??_C@_0EO@GFOEMKIL@Error?$CB?5Currently?0?5this?5program?5w@ 0045f638     md3IO.obj
 0002:00001688       ??_C@_0M@FKDJJPDM@?6?6No?5errors?$AA@ 0045f688     md3IO.obj
 0002:00001694       ??_C@_0BB@MLGPPFDC@Files?5written?3?6?6?$AA@ 0045f694     md3IO.obj
 0002:000016a8       __real@c0000000            0045f6a8     md3view.obj
 0002:000016b0       ??_7KeyComparatorInfo@@6B@ 0045f6b0     md3view.obj
 0002:000016b8       ??_C@_0M@CAAEGCDN@tag_barrel4?$AA@ 0045f6b8     md3view.obj
 0002:000016c4       ??_C@_0M@GPEFPEPK@tag_barrel3?$AA@ 0045f6c4     md3view.obj
 0002:000016d0       ??_C@_0M@HGFOMFLL@tag_barrel2?$AA@ 0045f6d0     md3view.obj
 0002:000016dc       ??_C@_0L@EKFDHKMA@tag_barrel?$AA@ 0045f6dc     md3view.obj
 0002:000016e8       ??_C@_0L@FGMMEJDC@tag_weapon?$AA@ 0045f6e8     md3view.obj
 0002:000016f4       ??_C@_08PGAPCFON@tag_head?$AA@ 0045f6f4     md3view.obj
 0002:00001700       ??_C@_09FJEJHBEN@tag_torso?$AA@ 0045f700     md3view.obj
 0002:0000170c       ??_C@_07DLHCIBDH@default?$AA@ 0045f70c     md3view.obj
 0002:00001714       ??_C@_06PCLEKHAO@_2?4md3?$AA@ 0045f714     md3view.obj
 0002:0000171c       ??_C@_06HECANFKA@_1?4md3?$AA@ 0045f71c     md3view.obj
 0002:00001724       ??_C@_04DFNFLAJF@?4md3?$AA@ 0045f724     md3view.obj
 0002:00001730       ??_7StrKeyComparatorInfo@@6B@ 0045f730     md3view.obj
 0002:00001738       ??_C@_0BF@IOEJNMOI@w?3?2game?2base?2models?2?$AA@ 0045f738     md3view.obj
 0002:00001750       __real@4056800000000000    0045f750     md3view.obj
 0002:00001758       ??_C@_05LCKIIOJE@?$CFd?1?$CFd?$AA@ 0045f758     md3view.obj
 0002:00001760       ??_C@_0BB@NIGGEJBE@?$CIattached?3?5?$CC?$CFs?$CC?$CJ?$AA@ 0045f760     md3view.obj
 0002:00001774       ??_C@_0O@OGKJLPMM@?$CIV?3?$CF4d?5T?3?$CF4d?$CJ?$AA@ 0045f774     md3view.obj
 0002:00001784       ??_C@_09HFCCGDAE@?$CILOD?5?$CF1d?$CJ?$AA@ 0045f784     md3view.obj
 0002:00001790       ??_C@_0O@NOFJABAH@?$CILOD?5?$CF1d?1?$CF1d?$CJ?$AA@ 0045f790     md3view.obj
 0002:000017a0       ??_C@_0BD@HPAIKJPI@?$CFs?5?5?5?5?5?5?5?5?5?5?5?5?5?5?5?5?$AA@ 0045f7a0     md3view.obj
 0002:000017b4       ??_C@_0L@MBDCGHGN@?$CI?5totals?5?$CJ?$AA@ 0045f7b4     md3view.obj
 0002:000017c0       ??_C@_0BB@OEHMIOAP@?$CFs?5Frame?5?$CF4d?1?$CF4d?$AA@ 0045f7c0     md3view.obj
 0002:000017d4       ??_C@_04OEDFLLKD@?$CC?$CFs?$CC?$AA@ 0045f7d4     md3view.obj
 0002:000017dc       ??_C@_0BG@HFEMEGPH@?$CI?5LOD?5model?5missing?5?$CJ?$AA@ 0045f7dc     md3view.obj
 0002:000017f4       ??_C@_0P@MPGMJPKM@?$CI?5PICMIP?3?5?$CFd?5?$CJ?$AA@ 0045f7f4     md3view.obj
 0002:00001804       ??_C@_0BC@KOGDDNKC@?$CI?5SinglePlayer?5?$CJ?5?$AA@ 0045f804     md3view.obj
 0002:00001818       ??_C@_0BB@JGMKLHAB@?$CI?5MultiPlayer?5?$CJ?5?$AA@ 0045f818     md3view.obj
 0002:0000182c       ??_C@_0O@EKJHEFHJ@Head?5skin?3?5?$CFs?$AA@ 0045f82c     md3view.obj
 0002:0000183c       ??_C@_06LFELMJIL@?$CC?$CFs?$CFs?$CC?$AA@ 0045f83c     md3view.obj
 0002:00001844       ??_C@_09DGNOMKMM@?$CI?5Alpha?5?$CJ?$AA@ 0045f844     md3view.obj
 0002:00001850       ??_C@_0M@MFCJBDNO@?$CI?5FOV?3?5?$CFg?5?$CJ?$AA@ 0045f850     md3view.obj
 0002:0000185c       ??_C@_09MAPEANEB@?$CILOD?3?5?$CFd?$CJ?$AA@ 0045f85c     md3view.obj
 0002:00001868       ??_C@_0P@PNANDDIP@?$CIInterpolated?$CJ?$AA@ 0045f868     md3view.obj
 0002:00001878       ??_C@_0O@FKCGBNM@FPS?3?5?$CF2?42f?5?$CFs?$AA@ 0045f878     md3view.obj
 0002:00001888       ??_C@_09KLFEBMFA@?$CIStopped?$CJ?$AA@ 0045f888     md3view.obj
 0002:00001894       ??_C@_09PCAAOMDF@?$CIPlaying?$CJ?$AA@ 0045f894     md3view.obj
 0002:000018a0       ??_C@_0CK@LNDOFJDN@?$CI?5?$CFs?5anim?5?5?5?5?5?3?5?$CFs?5?5Frames?3?5?$CF4d?4@ 0045f8a0     md3view.obj
 0002:000018cc       ??_C@_04OELPMFKG@?$CFs?5?5?$AA@ 0045f8cc     md3view.obj
 0002:000018d4       ??_C@_0P@EFJKLFEF@?$CFs?5anim?5lock?3?5?$AA@ 0045f8d4     md3view.obj
 0002:000018e4       ??_C@_0CG@FKFFOJAB@?$CFs?5anim?5lock?3?5?$CFs?5?5Frames?3?5?$CF4d?4?4?4@ 0045f8e4     md3view.obj
 0002:0000190c       ??_C@_05IIDIPOEN@Lower?$AA@ 0045f90c     md3view.obj
 0002:00001914       ??_C@_05NDIGJFPE@Upper?$AA@ 0045f914     md3view.obj
 0002:0000191c       ??_C@_0BB@ONFKHJDJ@?5?5loop?3?5?$CF3d?$CI?$CF3d?$CJ?$AA@ 0045f91c     md3view.obj
 0002:00001930       ??_C@_0BI@INOCNKOP@Error?5opening?5file?5?$CC?$CFs?$CC?$AA@ 0045f930     md3view.obj
 0002:00001948       ??_C@_0BO@DAHFLMPA@No?5enum?5entries?5found?5in?5file?$AA@ 0045f948     md3view.obj
 0002:00001968       ??_C@_0DF@LFKODJLH@Couldn?8t?5find?5specified?5sequence@ 0045f968     md3view.obj
 0002:000019a0       ??_C@_05EEACBMDF@LOWER?$AA@ 0045f9a0     md3view.obj
 0002:000019a8       ??_C@_05BPLMHHIM@UPPER?$AA@ 0045f9a8     md3view.obj
 0002:000019b0       ??_C@_0CP@EPCAJCIP@First?5line?5of?5file?5must?5be?5?$CCuppe@ 0045f9b0     md3view.obj
 0002:000019e0       ??_C@_05IPJEPLHL@lower?$AA@ 0045f9e0     md3view.obj
 0002:000019e8       ??_C@_05NECKJAMC@upper?$AA@ 0045f9e8     md3view.obj
 0002:000019f4       ??_7facet@locale@std@@6B@  0045f9f4     nodedictionary.obj
 0002:000019fc       ??_7?$num_put@DV?$ostreambuf_iterator@DU?$char_traits@D@std@@@std@@@std@@6B@ 0045f9fc     nodedictionary.obj
 0002:00001a20       ??_C@_05LAPONLG@false?$AA@ 0045fa20     nodedictionary.obj
 0002:00001a28       ??_C@_04LOAJBDKD@true?$AA@ 0045fa28     nodedictionary.obj
 0002:00001a34       ??_7?$numpunct@D@std@@6B@  0045fa34     nodedictionary.obj
 0002:00001a50       ??_7runtime_error@std@@6B@ 0045fa50     nodedictionary.obj
 0002:00001a5c       ??_7failure@ios_base@std@@6B@ 0045fa5c     nodedictionary.obj
 0002:00001a64       ??_C@_0BF@OOHOMBOF@ios_base?3?3eofbit?5set?$AA@ 0045fa64     nodedictionary.obj
 0002:00001a7c       ??_C@_0BG@FMKFHCIL@ios_base?3?3failbit?5set?$AA@ 0045fa7c     nodedictionary.obj
 0002:00001a94       ??_C@_0BF@PHHKMMFD@ios_base?3?3badbit?5set?$AA@ 0045fa94     nodedictionary.obj
 0002:00001aac       ??_C@_08EPJLHIJG@bad?5cast?$AA@ 0045faac     nodedictionary.obj
 0002:00001ab8       ??_C@_01KGKMHCOC@e?$AA@    0045fab8     nodedictionary.obj
 0002:00001abc       ??_C@_01DDCIFGEA@E?$AA@    0045fabc     nodedictionary.obj
 0002:00001ac0       ??_C@_02EAOCLKAK@ld?$AA@   0045fac0     nodedictionary.obj
 0002:00001ac4       ??_C@_02BDDLJJBK@lu?$AA@   0045fac4     nodedictionary.obj
 0002:00001ac8       ??_C@_02HIKPPMOK@Ld?$AA@   0045fac8     nodedictionary.obj
 0002:00001acc       ??_C@_02CLHGNPPK@Lu?$AA@   0045facc     nodedictionary.obj
 0002:00001ad0       __real@38aa95a5b7f87a0f    0045fad0     nodedictionary.obj
 0002:00001ad8       __real@4202a05f20000000    0045fad8     nodedictionary.obj
 0002:00001ae0       __real@4733426172c74d82    0045fae0     nodedictionary.obj
 0002:00001ae8       ??_C@_02BBAHNLBA@?$CFp?$AA@ 0045fae8     nodedictionary.obj
 0002:00001aec       ??_C@_05GFCPGNHK@?5key?5?$AA@ 0045faec     nodedictionary.obj
 0002:00001af4       ??_C@_09ODCLAGKD@?5element?5?$AA@ 0045faf4     nodedictionary.obj
 0002:00001b00       ??_C@_06OMBOJAAC@?5prev?5?$AA@ 0045fb00     nodedictionary.obj
 0002:00001b08       ??_C@_06KGPFODFH@?5next?5?$AA@ 0045fb08     nodedictionary.obj
 0002:00001b10       ??_C@_0BF@KPMFLJNG@?5?5?5?5?5?5?5?5?5?5?5Position?5?$AA@ 0045fb10     nodedictionary.obj
 0002:00001b28       ??_C@_0BH@GKCFAJIB@Dictionary?5Dump?0?5size?5?$AA@ 0045fb28     nodedictionary.obj
 0002:00001b40       ??_C@_0N@GLHOIOOJ@?5?5?5Position?5?$AA@ 0045fb40     nodesequence.obj
 0002:00001b50       ??_C@_0BF@EFFLCBKA@Sequence?5Dump?0?5size?5?$AA@ 0045fb50     nodesequence.obj
 0002:00001b68       ??_C@_04BJPIHCBA@Info?$AA@ 0045fb68     oddbits.obj
 0002:00001b70       ??_C@_07KGMMFLDN@Warning?$AA@ 0045fb70     oddbits.obj
 0002:00001b78       ??_C@_01KDCPPGHE@r?$AA@    0045fb78     oddbits.obj
 0002:00001b7c       ??_C@_02GPIGINON@c?3?$AA@  0045fb7c     oddbits.obj
 0002:00001b80       ??_C@_0BH@IDAGGIIJ@Error?5reading?5file?5?$CFs?$CB?$AA@ 0045fb80     oddbits.obj
 0002:00001b98       ??_C@_0BK@LLBOGNOM@unknown?5command?5found?3?5?$CFs?$AA@ 0045fb98     Script.obj
 0002:00001bb4       ??_C@_0CO@DLOKCDPI@token?5expected?5after?5colorgen?0?5b@ 0045fbb4     Script.obj
 0002:00001be4       ??_C@_08FAOGEMMO@colorgen?$AA@ 0045fbe4     Script.obj
 0002:00001bf0       ??_C@_0CO@KHCGGGDL@token?5expected?5after?5alphagen?0?5b@ 0045fbf0     Script.obj
 0002:00001c20       ??_C@_08GKKEEIPL@alphagen?$AA@ 0045fc20     Script.obj
 0002:00001c2c       ??_C@_0CM@DHNICHGL@token?5expected?5after?5rgbgen?0?5but@ 0045fc2c     Script.obj
 0002:00001c58       ??_C@_06PMPEHKBE@rgbgen?$AA@ 0045fc58     Script.obj
 0002:00001c60       ??_C@_0CN@HDEDPJFO@token?5expected?5after?5animmap?0?5bu@ 0045fc60     Script.obj
 0002:00001c90       ??_C@_07LMCKKNFK@animmap?$AA@ 0045fc90     Script.obj
 0002:00001c98       ??_C@_0CO@CONFIFHG@token?5expected?5after?5alphamap?0?5b@ 0045fc98     Script.obj
 0002:00001cc8       ??_C@_08NGFBDPJM@alphamap?$AA@ 0045fcc8     Script.obj
 0002:00001cd4       ??_C@_0CJ@IEAIMCFP@token?5expected?5after?5map?0?5but?5no@ 0045fcd4     Script.obj
 0002:00001d00       ??_C@_03HBNNNHNM@map?$AA@  0045fd00     Script.obj
 0002:00001d04       ??_C@_0CB@CODDELPL@unknown?5tcgen?5command?5found?3?5?$CFs?5@ 0045fd04     Script.obj
 0002:00001d28       ??_C@_0M@PINLHHEI@environment?$AA@ 0045fd28     Script.obj
 0002:00001d34       ??_C@_0CL@BDGEJEKA@token?5expected?5after?5tcgen?0?5but?5@ 0045fd34     Script.obj
 0002:00001d60       ??_C@_05BDIPJMEO@tcgen?$AA@ 0045fd60     Script.obj
 0002:00001d68       ??_C@_0DA@HNNIIGOL@clamptexcoords?5followed?5by?5unexp@ 0045fd68     Script.obj
 0002:00001d98       ??_C@_0P@CHKLANB@clamptexcoords?$AA@ 0045fd98     Script.obj
 0002:00001da8       ??_C@_0CM@BMJDLGPH@depthwrite?5followed?5by?5unexpecte@ 0045fda8     Script.obj
 0002:00001dd4       ??_C@_0L@LLDCFDJB@depthwrite?$AA@ 0045fdd4     Script.obj
 0002:00001de0       ??_C@_0CI@JBDANHFH@detail?5followed?5by?5unexpected?5to@ 0045fde0     Script.obj
 0002:00001e08       ??_C@_06EENFNEPD@detail?$AA@ 0045fe08     Script.obj
 0002:00001e10       ??_C@_0CH@CILJNPPP@unknown?5depthfunc?5parameter?5foun@ 0045fe10     Script.obj
 0002:00001e38       ??_C@_05OAKNMNI@equal?$AA@ 0045fe38     Script.obj
 0002:00001e40       ??_C@_0CP@GLICFGDD@token?5expected?5after?5depthfunc?0?5@ 0045fe40     Script.obj
 0002:00001e70       ??_C@_09MEFHBDPK@depthfunc?$AA@ 0045fe70     Script.obj
 0002:00001e7c       ??_C@_0CH@KFPOGJOE@unknown?5alphafunc?5parameter?5foun@ 0045fe7c     Script.obj
 0002:00001ea4       ??_C@_05HCPJILEC@ge128?$AA@ 0045fea4     Script.obj
 0002:00001eac       __real@43000000            0045feac     Script.obj
 0002:00001eb0       ??_C@_05EFLOMFLD@lt128?$AA@ 0045feb0     Script.obj
 0002:00001eb8       ??_C@_03PEPEBJCG@gt0?$AA@  0045feb8     Script.obj
 0002:00001ebc       ??_C@_0CP@IAHHEDPK@token?5expected?5after?5alphafunc?0?5@ 0045febc     Script.obj
 0002:00001eec       ??_C@_09JKMMJJH@alphafunc?$AA@ 0045feec     Script.obj
 0002:00001ef8       ??_C@_0N@LHLHMEGE@gl_src_color?$AA@ 0045fef8     Script.obj
 0002:00001f08       ??_C@_0CH@OAGBICN@unknown?5blendfunc?5parameter?5foun@ 0045ff08     Script.obj
 0002:00001f30       ??_C@_0BG@DBOKJNLF@gl_src_alpha_saturate?$AA@ 0045ff30     Script.obj
 0002:00001f48       ??_C@_0BH@PFLOGBAC@gl_one_minus_dst_alpha?$AA@ 0045ff48     Script.obj
 0002:00001f60       ??_C@_0N@GHMHBGGP@gl_dst_alpha?$AA@ 0045ff60     Script.obj
 0002:00001f70       ??_C@_0BH@FBMJNHOC@gl_one_minus_src_alpha?$AA@ 0045ff70     Script.obj
 0002:00001f88       ??_C@_0N@MDLAKAIP@gl_src_alpha?$AA@ 0045ff88     Script.obj
 0002:00001f98       ??_C@_0BH@IBLJAFOJ@gl_one_minus_dst_color?$AA@ 0045ff98     Script.obj
 0002:00001fb0       ??_C@_0N@BDMAHCIE@gl_dst_color?$AA@ 0045ffb0     Script.obj
 0002:00001fc0       ??_C@_06NAHBFLEM@gl_one?$AA@ 0045ffc0     Script.obj
 0002:00001fc8       ??_C@_07PLLHCBIO@gl_zero?$AA@ 0045ffc8     Script.obj
 0002:00001fd0       ??_C@_0CP@EDCLKPPN@token?5expected?5after?5blendfunc?0?5@ 0045ffd0     Script.obj
 0002:00002000       ??_C@_09OFNNOJFC@blendfunc?$AA@ 00460000     Script.obj
 0002:0000200c       ??_C@_0CA@OJBMMEFP@unknown?5tcmod?5command?5found?5?$CFs?3?$AA@ 0046000c     Script.obj
 0002:0000202c       ??_C@_0CD@GMGKPEDD@unknown?5tcmod?5stretch?5function?3?5@ 0046002c     Script.obj
 0002:00002050       ??_C@_03BLEJJJBH@sin?$AA@  00460050     Script.obj
 0002:00002054       ??_C@_07LEPFLFDH@stretch?$AA@ 00460054     Script.obj
 0002:0000205c       ??_C@_04GJNAKLFI@turb?$AA@ 0046005c     Script.obj
 0002:00002064       ??_C@_06FJKBNFNG@scroll?$AA@ 00460064     Script.obj
 0002:0000206c       ??_C@_05MHMEBBGO@scale?$AA@ 0046006c     Script.obj
 0002:00002074       ??_C@_0CE@JMOGMPLH@?$CFs?5followed?5by?5unexpected?5token?3@ 00460074     Script.obj
 0002:00002098       ??_C@_06CEHMNFAL@rotate?$AA@ 00460098     Script.obj
 0002:000020a0       ??_C@_0BP@PMNGPDOE@unexpected?5end?5after?5token?3?5?$CFs?$AA@ 004600a0     Script.obj
 0002:000020c0       ??_C@_0DC@OHPFLFED@token?5expected?5after?5surfacepara@ 004600c0     Script.obj
 0002:000020f4       ??_C@_05CLHILOEI@tcMod?$AA@ 004600f4     Script.obj
 0002:000020fc       ??_C@_0BL@KCGDLLMN@unexpected?5token?5found?3?5?$CFs?$AA@ 004600fc     Script.obj
 0002:00002118       ??_C@_0BC@HKOPJLNO@unknown?5token?3?5?$CFs?$AA@ 00460118     Script.obj
 0002:0000212c       ??_C@_0M@FOHMFLOI@qer_nocarve?$AA@ 0046012c     Script.obj
 0002:00002138       ??_C@_09NNHDMKJA@lightning?$AA@ 00460138     Script.obj
 0002:00002144       ??_C@_0O@DGEGEFGN@polygonOffset?$AA@ 00460144     Script.obj
 0002:00002154       ??_C@_09LMLIDNFN@nomipmaps?$AA@ 00460154     Script.obj
 0002:00002160       ??_C@_07JLPNBKBD@fogonly?$AA@ 00460160     Script.obj
 0002:00002168       ??_C@_06JAELEMPN@portal?$AA@ 00460168     Script.obj
 0002:00002170       ??_C@_08GELBHDGD@blendMap?$AA@ 00460170     Script.obj
 0002:0000217c       ??_C@_06OLOEGAOK@fogGen?$AA@ 0046017c     Script.obj
 0002:00002184       ??_C@_09BFMCMBDI@q3map_sun?$AA@ 00460184     Script.obj
 0002:00002190       ??_C@_08FLAOJKGO@fogparms?$AA@ 00460190     Script.obj
 0002:0000219c       ??_C@_0P@FJMHOEJC@deformVertexes?$AA@ 0046019c     Script.obj
 0002:000021ac       ??_C@_08OPCHEDJ@skyparms?$AA@ 004601ac     Script.obj
 0002:000021b8       ??_C@_0L@KEFNKKMO@cloudparms?$AA@ 004601b8     Script.obj
 0002:000021c4       ??_C@_0DG@PIOBFFMP@token?5expected?5after?5q3map_light@ 004601c4     Script.obj
 0002:000021fc       ??_C@_0BB@JKONKNHL@q3map_lightimage?$AA@ 004601fc     Script.obj
 0002:00002210       ??_C@_0DF@OGEMOGFL@token?5expected?5after?5qer_editori@ 00460210     Script.obj
 0002:00002248       ??_C@_0BA@MKEPHHN@qer_editorimage?$AA@ 00460248     Script.obj
 0002:00002258       ??_C@_0CJ@PICACBIE@token?5expected?5after?5sky?0?5but?5no@ 00460258     Script.obj
 0002:00002284       ??_C@_0DI@PCOHCLKM@token?5expected?5after?5q3map_surfa@ 00460284     Script.obj
 0002:000022bc       ??_C@_0BD@NPOJHIOC@q3map_surfacelight?$AA@ 004602bc     Script.obj
 0002:000022d0       ??_C@_0DG@JHMOPKFP@token?5expected?5after?5q3map_backs@ 004602d0     Script.obj
 0002:00002308       ??_C@_0BB@HKLAKBOK@q3map_backsplash?$AA@ 00460308     Script.obj
 0002:0000231c       ??_C@_0CP@DEFLHCPM@token?5expected?5after?5qer_trans?0?5@ 0046031c     Script.obj
 0002:0000234c       ??_C@_09POICBCHG@qer_trans?$AA@ 0046034c     Script.obj
 0002:00002358       ??_C@_0CK@IPHNOFBC@token?5expected?5after?5sort?0?5but?5n@ 00460358     Script.obj
 0002:00002384       ??_C@_04PIMMHFGE@sort?$AA@ 00460384     Script.obj
 0002:0000238c       ??_C@_0CO@LGNELMFJ@token?5expected?5after?5tesssize?0?5b@ 0046038c     Script.obj
 0002:000023bc       ??_C@_08MFDEDCHM@tesssize?$AA@ 004603bc     Script.obj
 0002:000023c8       ??_C@_0CL@MJOLPJEC@token?5expected?5after?5light?0?5but?5@ 004603c8     Script.obj
 0002:000023f4       ??_C@_05OEPGNJB@light?$AA@ 004603f4     Script.obj
 0002:000023fc       ??_C@_0BK@BAEHGLNF@unknown?5cull?5variable?3?5?$CFs?$AA@ 004603fc     Script.obj
 0002:00002418       ??_C@_04JFCNHLLM@back?$AA@ 00460418     Script.obj
 0002:00002420       ??_C@_09LHPHMEAL@backsided?$AA@ 00460420     Script.obj
 0002:0000242c       ??_C@_08INIPHAGC@twosided?$AA@ 0046042c     Script.obj
 0002:00002438       ??_C@_07DBNODEFN@disable?$AA@ 00460438     Script.obj
 0002:00002440       ??_C@_04CGFJFPFD@none?$AA@ 00460440     Script.obj
 0002:00002448       ??_C@_0CK@MNIHCDGN@token?5expected?5after?5cull?0?5but?5n@ 00460448     Script.obj
 0002:00002474       ??_C@_04DDCLEDDO@cull?$AA@ 00460474     Script.obj
 0002:0000247c       ??_C@_0CC@JJKKJDHH@unknown?5surfaceparam?5variable?3?5?$CF@ 0046047c     Script.obj
 0002:000024a0       ??_C@_03KJMBPJEB@fog?$AA@  004604a0     Script.obj
 0002:000024a4       ??_C@_03BNEOMJOP@sky?$AA@  004604a4     Script.obj
 0002:000024a8       ??_C@_04MKBPEMMM@lava?$AA@ 004604a8     Script.obj
 0002:000024b0       ??_C@_05JIFNPOFN@trans?$AA@ 004604b0     Script.obj
 0002:000024b8       ??_C@_05BFPPMEOD@slick?$AA@ 004604b8     Script.obj
 0002:000024c0       ??_C@_05IBOCMEGH@slime?$AA@ 004604c0     Script.obj
 0002:000024c8       ??_C@_05ELAABIKM@water?$AA@ 004604c8     Script.obj
 0002:000024d0       ??_C@_06MEFHFNAK@nodraw?$AA@ 004604d0     Script.obj
 0002:000024d8       ??_C@_06IBIIOGMH@nodrop?$AA@ 004604d8     Script.obj
 0002:000024e0       ??_C@_06NHCMNMEH@origin?$AA@ 004604e0     Script.obj
 0002:000024e8       ??_C@_07LDNMIKIJ@nomarks?$AA@ 004604e8     Script.obj
 0002:000024f0       ??_C@_08POKGLNIM@nonsolid?$AA@ 004604f0     Script.obj
 0002:000024fc       ??_C@_08IPOHNGKE@nodamage?$AA@ 004604fc     Script.obj
 0002:00002508       ??_C@_08FFFCKPOA@noimpact?$AA@ 00460508     Script.obj
 0002:00002514       ??_C@_0L@MKEHCLJM@nolightmap?$AA@ 00460514     Script.obj
 0002:00002520       ??_C@_0L@BIBBDCEB@metalsteps?$AA@ 00460520     Script.obj
 0002:0000252c       ??_C@_0L@PPDFKPM@areaportal?$AA@ 0046052c     Script.obj
 0002:00002538       ??_C@_0L@GMELLABP@structural?$AA@ 00460538     Script.obj
 0002:00002544       ??_C@_0L@BLJOELF@playerclip?$AA@ 00460544     Script.obj
 0002:00002550       ??_C@_0M@FCGGILAO@lightfilter?$AA@ 00460550     Script.obj
 0002:0000255c       ??_C@_0N@KBJBOPN@surfaceparam?$AA@ 0046055c     Script.obj
 0002:0000256c       ??_C@_0BK@NBMDIJJM@surface?5expected?0?5got?3?5?$CFs?$AA@ 0046056c     Script.obj
 0002:00002588       ??_C@_0CD@IBDOMFKL@?$HL?5followed?5by?5unexpected?5token?3?5@ 00460588     Script.obj
 0002:000025ac       ??_C@_0CO@BNEFPAGO@surface?5name?5followed?5by?5unexpec@ 004605ac     Script.obj
 0002:000025dc       ??_C@_0BH@HBEHIGAB@failed?5to?5make?5surface?$AA@ 004605dc     Script.obj
 0002:000025f4       ??_C@_0CE@BNMBJHPL@?$HN?5followed?5by?5unexpected?5token?3?5@ 004605f4     Script.obj
 0002:00002618       ??_C@_0BH@CFIIDOJD@unexpected?5end?5of?5file?$AA@ 00460618     Script.obj
 0002:00002630       ??_C@_01CELHOKLL@?$HN?$AA@ 00460630     Script.obj
 0002:00002634       ??_C@_01HCONENDN@?$HL?$AA@ 00460634     Script.obj
 0002:00002638       ??_C@_0BP@DHLEJHFA@Coulnd?8t?5open?5file?5for?5writing?$AA@ 00460638     targa.obj
 0002:00002658       ??_C@_0EE@KPGPALO@Texture_LoadTGA?3?5Only?532?5or?524?5b@ 00460658     targa.obj
 0002:0000269c       ??_C@_0DI@MGBHFPOC@LoadTGA?3?5Only?5type?52?5and?510?5targ@ 0046069c     targa.obj
 0002:000026d4       ??_C@_04GNPKBLNA@?4jpg?$AA@ 004606d4     targa.obj
 0002:000026dc       ??_C@_04JCAPCJAP@?4tga?$AA@ 004606dc     targa.obj
 0002:000026e4       __real@41000000            004606e4     TEXT.obj
 0002:000026e8       ??_C@_0DO@BKDMJNIM@malloc?$CI?$CJ?3?5Failed?5to?5alloc?5?$CFd?5byt@ 004606e8     texture_res.obj
 0002:00002728       __real@3fe8000000000000    00460728     texture_res.obj
 0002:00002730       __real@3fd0000000000000    00460730     texture_res.obj
 0002:00002738       __real@46040000            00460738     texture_res.obj
 0002:0000273c       __real@46180400            0046073c     texture_res.obj
 0002:00002740       __real@46180000            00460740     texture_res.obj
 0002:00002744       ??_C@_0BH@HJBDPEJO@texture?5?$CC?$CFs?$CC?5not?5found?$AA@ 00460744     texture_res.obj
 0002:0000275c       ??_C@_01KMDKNFGN@?1?$AA@   0046075c     texture_res.obj
 0002:00002760       ??_C@_04EEOGCCFB@?4png?$AA@ 00460760     texture_res.obj
 0002:00002768       ??_C@_0FA@GBMPDPDK@Error?3?5TextureList_ReMip?$CI?$CJ?3?3glGe@ 00460768     texture_res.obj
 0002:000027b8       ??_C@_0BN@DIBFHPD@loadTexture?3?3glGetError?5?$DN?5?$CFd?$AA@ 004607b8     texture_res.obj
 0002:000027d8       ??_C@_0CD@KDOLIOLI@refreshTextureRes?3?3glGetError?5?$DN?5@ 004607d8     texture_res.obj
 0002:000027fc       __real@41200000            004607fc     widgets.obj
 0002:00002800       ??_C@_03KHICJKCI@?4?4?4?$AA@ 00460800     win32_driver.obj
 0002:00002804       ??_C@_06GGPOMPNM@?$CInone?$CJ?$AA@ 00460804     win32_driver.obj
 0002:0000280c       ??_C@_0BH@PJKPJLGC@?$CK?$CK?5Choose?5Multi?9Seq?5?$CK?$CK?$AA@ 0046080c     win32_driver.obj
 0002:00002824       ??_C@_0BB@DHNNMKAK@?$CK?$CK?5Choose?5Seq?5?$CK?$CK?$AA@ 00460824     win32_driver.obj
 0002:00002838       ??_C@_0BH@LECDJLMA@?$CILower?5Anim?5Sequences?$CJ?$AA@ 00460838     win32_driver.obj
 0002:00002850       ??_C@_0BH@FFAKKIBA@?$CIUpper?5Anim?5Sequences?$CJ?$AA@ 00460850     win32_driver.obj
 0002:00002868       ??_C@_0O@MIOACJMM@MD3View?5v1?462?$AA@ 00460868     win32_driver.obj
 0002:00002878       ??_C@_0L@HMIGDMOL@mainWindow?$AA@ 00460878     win32_driver.obj
 0002:00002898       ??_C@_0BG@MNIDFICG@SetPixelFormat?5failed?$AA@ 00460898     win32_msg.obj
 0002:000028b0       ??_C@_0CA@PJCPKJGF@ChoosePixelFormat?5needs?5palette?$AA@ 004608b0     win32_msg.obj
 0002:000028d0       ??_C@_0BJ@IFHPNGHJ@ChoosePixelFormat?5failed?$AA@ 004608d0     win32_msg.obj
 0002:000028ec       ??_C@_0CA@FJLHLOEE@?4?4?4hardware?5acceleration?5found?6?$AA@ 004608ec     win32_msg.obj
 0002:0000290c       ??_C@_0BL@GLEAHEND@?4?4?4MCD?5acceleration?5found?6?$AA@ 0046090c     win32_msg.obj
 0002:00002928       ??_C@_0BN@NPGHGFAF@?4?4?4using?5software?5emulation?6?$AA@ 00460928     win32_msg.obj
 0002:00002948       ??_C@_0BH@KNJDOEBB@No?5decent?5mode?5found?$CB?6?$AA@ 00460948     win32_msg.obj
 0002:00002960       ??_C@_0O@OMHBHNFP@Bestmode?3?5?$CFd?6?$AA@ 00460960     win32_msg.obj
 0002:00002970       ??_C@_0CO@PHIEICEP@?4?4?4PFD?5?$CFd?5rejected?0?5depth?5bits?5o@ 00460970     win32_msg.obj
 0002:000029a0       ??_C@_0DL@EMECPBBI@?4?4?4PFD?5?$CFd?5rejected?0?5improper?5fla@ 004609a0     win32_msg.obj
 0002:000029dc       ??_C@_0BO@IIFIFIHJ@?4?4?4PFD?5?$CFd?5rejected?0?5not?5RGBA?6?$AA@ 004609dc     win32_msg.obj
 0002:000029fc       ??_C@_0CL@NNOBGMMI@?4?4?4PFD?5?$CFd?5rejected?0?5software?5acc@ 004609fc     win32_msg.obj
 0002:00002a28       ??_C@_0BB@MFNGKC@?$CIbestMatch?3?5?$CFd?$CJ?6?$AA@ 00460a28     win32_msg.obj
 0002:00002a3c       ??_C@_0BB@PCDBMONN@Depth?5?5bits?3?5?$CFd?6?$AA@ 00460a3c     win32_msg.obj
 0002:00002a50       ??_C@_0BB@CNGGDLKH@Colour?5bits?3?5?$CFd?6?$AA@ 00460a50     win32_msg.obj
 0002:00002a64       ??_C@_0BL@PDGMKDPI@NOT?5RGBA?5mode?$CB?$CB?$CB?$CB?$CB?$CB?$CB?$CB?$CB?$CB?$CB?$CB?6?$AA@ 00460a64     win32_msg.obj
 0002:00002a80       ??_C@_0BH@DNGDNLNE@PFD_SUPPORT_DIRECTDRAW?$AA@ 00460a80     win32_msg.obj
 0002:00002a98       ??_C@_0BI@CKEJPACI@PFD_GENERIC_ACCELERATED?$AA@ 00460a98     win32_msg.obj
 0002:00002ab0       ??_C@_0BH@GFEGABHN@PFD_SWAP_LAYER_BUFFERS?$AA@ 00460ab0     win32_msg.obj
 0002:00002ac8       ??_C@_0O@GIMPIEPD@PFD_SWAP_COPY?$AA@ 00460ac8     win32_msg.obj
 0002:00002ad8       ??_C@_0BC@LPEANJ@PFD_SWAP_EXCHANGE?$AA@ 00460ad8     win32_msg.obj
 0002:00002aec       ??_C@_0BI@OAENMPFE@PFD_NEED_SYSTEM_PALETTE?$AA@ 00460aec     win32_msg.obj
 0002:00002b04       ??_C@_0BB@LPPJPIHH@PFD_NEED_PALETTE?$AA@ 00460b04     win32_msg.obj
 0002:00002b18       ??_C@_0BD@KIGJHNAD@PFD_GENERIC_FORMAT?$AA@ 00460b18     win32_msg.obj
 0002:00002b2c       ??_C@_0BD@IJOJKCKE@PFD_SUPPORT_OPENGL?$AA@ 00460b2c     win32_msg.obj
 0002:00002b40       ??_C@_0BA@PFPJPMLL@PFD_SUPPORT_GDI?$AA@ 00460b40     win32_msg.obj
 0002:00002b50       ??_C@_0BD@ELPCGEGB@PFD_DRAW_TO_BITMAP?$AA@ 00460b50     win32_msg.obj
 0002:00002b64       ??_C@_0BD@GMJDKMGM@PFD_DRAW_TO_WINDOW?$AA@ 00460b64     win32_msg.obj
 0002:00002b78       ??_C@_0L@FJPOCIL@PFD_STEREO?$AA@ 00460b78     win32_msg.obj
 0002:00002b84       ??_C@_0M@MOPMNFJP@?$CIflag?3?5?$CFs?$CJ?6?$AA@ 00460b84     win32_msg.obj
 0002:00002b90       ??_C@_0BB@NNIJGCJM@PFD_DOUBLEBUFFER?$AA@ 00460b90     win32_msg.obj
 0002:00002ba4       ??_C@_0L@NHMBDCEK@?$DN?$DN?$DN?$DN?$DN?$DN?$DN?$DN?$DN?6?$AA@ 00460ba4     win32_msg.obj
 0002:00002bb0       ??_C@_0L@GKMGODFF@PFD?5?$CFd?1?$CFd?6?$AA@ 00460bb0     win32_msg.obj
 0002:00002bbc       ??_C@_0BB@KCDHGKJJ@Total?5PFDs?3?5?$CFd?6?6?$AA@ 00460bbc     win32_msg.obj
 0002:00002bd0       ??_C@_0BG@DKFPNAMC@MD3View_GL_report?4txt?$AA@ 00460bd0     win32_msg.obj
 0002:00002be8       ??_C@_0BC@PCEJAFPG@?4?4?4?$CFd?5PFDs?5found?6?$AA@ 00460be8     win32_msg.obj
 0002:00002bfc       ??_C@_0CB@BNBOIMIK@?4?4?4numPFDs?5?$DO?5MAX_PFDS?5?$CI?$CFd?5?$DO?5?$CFd?$CJ?6@ 00460bfc     win32_msg.obj
 0002:00002c20       ??_C@_0CA@MIGGKPBC@?4?4?4GLW_ChoosePFD?$CI?5?$CFd?0?5?$CFd?0?5?$CFd?5?$CJ?6?$AA@ 00460c20     win32_msg.obj
 0002:00002c40       ??_C@_0BN@DDMMAOOJ@Failed?5on?5wglMakeCurrent?$CI?4?4?$CJ?$AA@ 00460c40     win32_msg.obj
 0002:00002c60       ??_C@_0CH@EHDIENLJ@Failed?5on?5wglCreateContext?$CI?5HDC?5@ 00460c60     win32_msg.obj
 0002:00002c88       ??_C@_0BE@EHBOHOKM@Ignore?5this?5for?5now?$AA@ 00460c88     win32_msg.obj
 0002:00002c9c       ??_C@_04BHIIPFEC@base?$AA@ 00460c9c     win32_msg.obj
 0002:00002ca4       ??_C@_04HDOCAJNK@?$CFs?$CFs?$AA@ 00460ca4     win32_msg.obj
 0002:00002cac       ??_C@_04HAEDHBJD@?4glm?$AA@ 00460cac     win32_msg.obj
 0002:00002cb4       ??_C@_0BG@PONPIKGL@Exporting?5model?5?$CC?$CFs?$CC?6?$AA@ 00460cb4     win32_msg.obj
 0002:00002ccc       ??_C@_0CJ@JDAHMJNO@Errors?5occured?0?5unable?5to?5export@ 00460ccc     win32_msg.obj
 0002:00002cf8       ??_C@_0BN@MDOEGGHC@Export?5as?5MD3?0?5are?5you?5sure?$DP?$AA@ 00460cf8     win32_msg.obj
 0002:00002d18       ??_C@_0CM@PGMJGDAM@Errors?5occured?0?5unable?5to?5export@ 00460d18     win32_msg.obj
 0002:00002d44       ??_C@_0DC@HGIEJGPB@Export?5as?5Ghoul2?5?4GLM?1?4GLA?5files@ 00460d44     win32_msg.obj
 0002:00002d78       ??_C@_0BO@CABCBCBH@?5?$CI?5?$CKwithout?$CK?590?9degree?5skew?5?$CJ?$AA@ 00460d78     win32_msg.obj
 0002:00002d98       ??_C@_0BC@EEJPODOK@?$CFs?2?$CFs_barrel4?4md3?$AA@ 00460d98     win32_msg.obj
 0002:00002dac       ??_C@_0BC@FJJKNDFC@?$CFs?2?$CFs_barrel3?4md3?$AA@ 00460dac     win32_msg.obj
 0002:00002dc0       ??_C@_0BC@JCMGAAPH@?$CFs?2?$CFs_barrel2?4md3?$AA@ 00460dc0     win32_msg.obj
 0002:00002dd4       ??_C@_0BB@HNMEHAJG@?$CFs?2?$CFs_barrel?4md3?$AA@ 00460dd4     win32_msg.obj
 0002:00002de8       ??_C@_09GCJNJHKH@?$CFs?2?$CFs?4md3?$AA@ 00460de8     win32_msg.obj
 0002:00002df4       ??_C@_09OLHEALFG@_hand?4md3?$AA@ 00460df4     win32_msg.obj
 0002:00002e00       ??_C@_06GEPNGEJI@weapon?$AA@ 00460e00     win32_msg.obj
 0002:00002e08       ??_C@_0BB@DIOJDIEF@?$CFs?2animation?4cfg?$AA@ 00460e08     win32_msg.obj
 0002:00002e1c       ??_C@_0M@NEMPIEF@?$CFs?2head?4md3?$AA@ 00460e1c     win32_msg.obj
 0002:00002e28       ??_C@_0M@JLAOFLBI@?$CFs?2upper?4?$CFs?$AA@ 00460e28     win32_msg.obj
 0002:00002e34       ??_C@_03EFCAHHLF@mdr?$AA@  00460e34     win32_msg.obj
 0002:00002e38       ??_C@_03KMECAJPB@md3?$AA@  00460e38     win32_msg.obj
 0002:00002e3c       ??_C@_09IIOPKMDA@lower?4mdr?$AA@ 00460e3c     win32_msg.obj
 0002:00002e48       ??_C@_09GBINNCHE@lower?4md3?$AA@ 00460e48     win32_msg.obj
 0002:00002e58       __real@3ff4000000000000    00460e58     win32_msg.obj
 0002:00002e60       __real@42b40000            00460e60     win32_msg.obj
 0002:00002e68       __real@4054000000000000    00460e68     win32_msg.obj
 0002:00002e70       __real@42a00000            00460e70     win32_msg.obj
 0002:00002e78       ??_C@_0EL@FMDFGEGE@No?5model?5load?5to?5work?5out?5path?5f@ 00460e78     win32_msg.obj
 0002:00002ec4       ??_C@_0CA@NMECPOGE@Couldn?8t?5find?5a?5free?5save?5slot?$CB?$AA@ 00460ec4     win32_msg.obj
 0002:00002ee4       ??_C@_0P@PJFIGPIC@c?3?2?$CFs_?$CF03d?4bmp?$AA@ 00460ee4     win32_msg.obj
 0002:00002ef4       ??_C@_0BI@IEHBKBOE@?$CIC?$CJ?5Raven?5Software?52000?$AA@ 00460ef4     win32_msg.obj
 0002:00002f10       ??_C@_0CAF@NGIOJGAE@?6?6?5MD3View?5v1?462?7?6?6A?5Quake?5III?5m@ 00460f10     win32_msg.obj
 0002:00003118       ??_C@_05BDOHFCKE@About?$AA@ 00461118     win32_msg.obj
 0002:000031e0       ??_C@_0CL@OCGBAKPF@Application?5transferred?5too?5many@ 004611e0     jerror.obj
 0002:0000320c       ??_C@_0CL@BAKCGOKJ@Invalid?5SOS?5parameters?5for?5seque@ 0046120c     jerror.obj
 0002:00003238       ??_C@_0DI@NFMBADOH@Corrupt?5JPEG?5data?3?5found?5marker?5@ 00461238     jerror.obj
 0002:00003270       ??_C@_0BL@DPFPFMLM@Premature?5end?5of?5JPEG?5file?$AA@ 00461270     jerror.obj
 0002:0000328c       ??_C@_0CO@ODCCEDLN@Warning?3?5unknown?5JFIF?5revision?5n@ 0046128c     jerror.obj
 0002:000032bc       ??_C@_0CE@PBLDOPKB@Corrupt?5JPEG?5data?3?5bad?5Huffman?5c@ 004612bc     jerror.obj
 0002:000032e0       ??_C@_0DB@PGMEPGHN@Corrupt?5JPEG?5data?3?5premature?5end@ 004612e0     jerror.obj
 0002:00003314       ??_C@_0DM@PCOGCKJB@Corrupt?5JPEG?5data?3?5?$CFu?5extraneous@ 00461314     jerror.obj
 0002:00003350       ??_C@_0EC@CBCJOINE@Inconsistent?5progression?5sequenc@ 00461350     jerror.obj
 0002:00003394       ??_C@_0CG@KEGHCDOM@Unknown?5Adobe?5color?5transform?5co@ 00461394     jerror.obj
 0002:000033bc       ??_C@_0BH@LJLGPEFF@Obtained?5XMS?5handle?5?$CFu?$AA@ 004613bc     jerror.obj
 0002:000033d4       ??_C@_0BE@FOGGKKAO@Freed?5XMS?5handle?5?$CFu?$AA@ 004613d4     jerror.obj
 0002:000033e8       ??_C@_0DE@EEJCDLOO@Unrecognized?5component?5IDs?5?$CFd?5?$CFd@ 004613e8     jerror.obj
 0002:0000341c       ??_C@_0BJ@GOCABEP@Opened?5temporary?5file?5?$CFs?$AA@ 0046141c     jerror.obj
 0002:00003438       ??_C@_0BJ@KDCGAOJB@Closed?5temporary?5file?5?$CFs?$AA@ 00461438     jerror.obj
 0002:00003454       ??_C@_0BN@GAMIJLDC@?5?5Ss?$DN?$CFd?0?5Se?$DN?$CFd?0?5Ah?$DN?$CFd?0?5Al?$DN?$CFd?$AA@ 00461454     jerror.obj
 0002:00003474       ??_C@_0BO@CDEKFGLC@?5?5?5?5Component?5?$CFd?3?5dc?$DN?$CFd?5ac?$DN?$CFd?$AA@ 00461474     jerror.obj
 0002:00003494       ??_C@_0BN@BLOOHNC@Start?5Of?5Scan?3?5?$CFd?5components?$AA@ 00461494     jerror.obj
 0002:000034b4       ??_C@_0P@JLCHJELA@Start?5of?5Image?$AA@ 004614b4     jerror.obj
 0002:000034c4       ??_C@_0BP@EDCAMHHE@?5?5?5?5Component?5?$CFd?3?5?$CFdhx?$CFdv?5q?$DN?$CFd?$AA@ 004614c4     jerror.obj
 0002:000034e4       ??_C@_0DK@DMINKOGN@Start?5Of?5Frame?50x?$CF02x?3?5width?$DN?$CFu?0@ 004614e4     jerror.obj
 0002:00003520       ??_C@_0DJ@PCBCLFML@Smoothing?5not?5supported?5with?5non@ 00461520     jerror.obj
 0002:0000355c       ??_C@_05LLAPAOG@RST?$CFd?$AA@ 0046155c     jerror.obj
 0002:00003564       ??_C@_0CF@NIMOLBCP@At?5marker?50x?$CF02x?0?5recovery?5actio@ 00461564     jerror.obj
 0002:0000358c       ??_C@_0CE@FDPBEAOO@Selected?5?$CFd?5colors?5for?5quantizat@ 0046158c     jerror.obj
 0002:000035b0       ??_C@_0BI@NEIBNACE@Quantizing?5to?5?$CFd?5colors?$AA@ 004615b0     jerror.obj
 0002:000035c8       ??_C@_0CD@CNNAOOFA@Quantizing?5to?5?$CFd?5?$DN?5?$CFd?$CK?$CFd?$CK?$CFd?5colo@ 004615c8     jerror.obj
 0002:000035ec       ??_C@_0CI@GHPOCOCL@?5?5?5?5?5?5?5?5?$CF4u?5?$CF4u?5?$CF4u?5?$CF4u?5?$CF4u?5?$CF4u?5@ 004615ec     jerror.obj
 0002:00003614       ??_C@_0BJ@COPODLDN@Unexpected?5marker?50x?$CF02x?$AA@ 00461614     jerror.obj
 0002:00003630       ??_C@_0CC@KHCAAFMC@Skipping?5marker?50x?$CF02x?0?5length?5?$CF@ 00461630     jerror.obj
 0002:00003654       ??_C@_0CB@BADBMAAB@?5?5?5?5with?5?$CFd?5x?5?$CFd?5thumbnail?5image@ 00461654     jerror.obj
 0002:00003678       ??_C@_0CL@BJMGIDLN@Unknown?5JFIF?5minor?5revision?5numb@ 00461678     jerror.obj
 0002:000036a4       ??_C@_0DM@JLHNPIBE@Warning?3?5thumbnail?5image?5size?5do@ 004616a4     jerror.obj
 0002:000036e0       ??_C@_0CE@MKDBBMLI@JFIF?5APP0?5marker?0?5density?5?$CFdx?$CFd?5@ 004616e0     jerror.obj
 0002:00003704       ??_C@_0CI@FKGPAJC@?5?5?5?5?5?5?5?5?$CF3d?5?$CF3d?5?$CF3d?5?$CF3d?5?$CF3d?5?$CF3d?5@ 00461704     jerror.obj
 0002:0000372c       ??_C@_0N@HJHFKELG@End?5Of?5Image?$AA@ 0046172c     jerror.obj
 0002:0000373c       ??_C@_0BH@GIPOLIGC@Obtained?5EMS?5handle?5?$CFu?$AA@ 0046173c     jerror.obj
 0002:00003754       ??_C@_0BE@IPCOOGDJ@Freed?5EMS?5handle?5?$CFu?$AA@ 00461754     jerror.obj
 0002:00003768       ??_C@_0BL@EMFIKBEK@Define?5Restart?5Interval?5?$CFu?$AA@ 00461768     jerror.obj
 0002:00003784       ??_C@_0CL@KLDOJIKN@Define?5Quantization?5Table?5?$CFd?5?5pr@ 00461784     jerror.obj
 0002:000037b0       ??_C@_0BM@MDIEILCE@Define?5Huffman?5Table?50x?$CF02x?$AA@ 004617b0     jerror.obj
 0002:000037cc       ??_C@_0CH@KIJGKPAA@Define?5Arithmetic?5Table?50x?$CF02x?3?5@ 004617cc     jerror.obj
 0002:000037f4       ??_C@_0CM@CAEPHFAA@Unknown?5APP14?5marker?5?$CInot?5Adobe?$CJ@ 004617f4     jerror.obj
 0002:00003820       ??_C@_0CK@HCPFFNKJ@Unknown?5APP0?5marker?5?$CInot?5JFIF?$CJ?0?5@ 00461820     jerror.obj
 0002:00003850       ??_C@_0EC@EHPKAOHA@Adobe?5APP14?5marker?3?5version?5?$CFd?0?5@ 00461850     jerror.obj
 0002:00003894       ??_C@_0DO@EGLODMBB@Caution?3?5quantization?5tables?5are@ 00461894     jerror.obj
 0002:000038d4       ??_C@_0M@JNBJJLAI@6?5?52?9Aug?995?$AA@ 004618d4     jerror.obj
 0002:000038e0       ??_C@_0CD@HPLBEMMI@Copyright?5?$CIC?$CJ?51995?0?5Thomas?5G?4?5La@ 004618e0     jerror.obj
 0002:00003904       ??_C@_0BE@FDPDCBIN@Write?5to?5XMS?5failed?$AA@ 00461904     jerror.obj
 0002:00003918       ??_C@_0BF@EKLGFGNM@Read?5from?5XMS?5failed?$AA@ 00461918     jerror.obj
 0002:00003930       ??_C@_0CH@LJLHCCHC@Image?5too?5wide?5for?5this?5implemen@ 00461930     jerror.obj
 0002:00003958       ??_C@_0CD@GCLFJCHC@Virtual?5array?5controller?5messed?5@ 00461958     jerror.obj
 0002:0000397c       ??_C@_0BP@BPKOBOIP@Unsupported?5marker?5type?50x?$CF02x?$AA@ 0046197c     jerror.obj
 0002:0000399c       ??_C@_0CK@EPADOAKC@Application?5transferred?5too?5few?5@ 0046199c     jerror.obj
 0002:000039c8       ??_C@_0DG@KALDLIJB@Write?5failed?5on?5temporary?5file?5?9@ 004619c8     jerror.obj
 0002:00003a00       ??_C@_0BO@GOBJOAAI@Seek?5failed?5on?5temporary?5file?$AA@ 00461a00     jerror.obj
 0002:00003a20       ??_C@_0BO@EEPJGHHI@Read?5failed?5on?5temporary?5file?$AA@ 00461a20     jerror.obj
 0002:00003a40       ??_C@_0CD@POKNOPOF@Failed?5to?5create?5temporary?5file?5@ 00461a40     jerror.obj
 0002:00003a64       ??_C@_0CM@HONLBDPH@Invalid?5JPEG?5file?5structure?3?5SOS@ 00461a64     jerror.obj
 0002:00003a90       ??_C@_0CN@HGJCMLNE@Invalid?5JPEG?5file?5structure?3?5two@ 00461a90     jerror.obj
 0002:00003ac0       ??_C@_0CK@HMKECJK@Unsupported?5JPEG?5process?3?5SOF?5ty@ 00461ac0     jerror.obj
 0002:00003aec       ??_C@_0DA@GJIJGINK@Invalid?5JPEG?5file?5structure?3?5mis@ 00461aec     jerror.obj
 0002:00003b1c       ??_C@_0CN@IHJJJAFJ@Invalid?5JPEG?5file?5structure?3?5two@ 00461b1c     jerror.obj
 0002:00003b4c       ??_C@_0CH@NHMNHHIB@Cannot?5quantize?5to?5more?5than?5?$CFd?5@ 00461b4c     jerror.obj
 0002:00003b74       ??_C@_0CI@PLMPLCNO@Cannot?5quantize?5to?5fewer?5than?5?$CFd@ 00461b74     jerror.obj
 0002:00003b9c       ??_C@_0CO@HPDBAEEA@Cannot?5quantize?5more?5than?5?$CFd?5col@ 00461b9c     jerror.obj
 0002:00003bcc       ??_C@_0BO@DJPLELIB@Insufficient?5memory?5?$CIcase?5?$CFd?$CJ?$AA@ 00461bcc     jerror.obj
 0002:00003bec       ??_C@_0CL@GNLFDFCL@Not?5a?5JPEG?5file?3?5starts?5with?50x?$CF@ 00461bec     jerror.obj
 0002:00003c18       ??_C@_0CK@CCHKIENB@Quantization?5table?50x?$CF02x?5was?5no@ 00461c18     jerror.obj
 0002:00003c44       ??_C@_0CC@BKPLBDLJ@JPEG?5datastream?5contains?5no?5imag@ 00461c44     jerror.obj
 0002:00003c68       ??_C@_0CF@BKANFCCL@Huffman?5table?50x?$CF02x?5was?5not?5def@ 00461c68     jerror.obj
 0002:00003c90       ??_C@_0BM@HJHFKLAF@Backing?5store?5not?5supported?$AA@ 00461c90     jerror.obj
 0002:00003cac       ??_C@_0CO@BEHINNOI@Requested?5feature?5was?5omitted?5at@ 00461cac     jerror.obj
 0002:00003cdc       ??_C@_0BE@EOAAHHJ@Not?5implemented?5yet?$AA@ 00461cdc     jerror.obj
 0002:00003cf0       ??_C@_0CH@EFBBPPCK@Invalid?5color?5quantization?5mode?5@ 00461cf0     jerror.obj
 0002:00003d18       ??_C@_0CH@NIBDNILP@Scan?5script?5does?5not?5transmit?5al@ 00461d18     jerror.obj
 0002:00003d40       ??_C@_0DO@OPNPKGO@Cannot?5transcode?5due?5to?5multiple@ 00461d40     jerror.obj
 0002:00003d80       ??_C@_0BM@KEKMMNGA@Premature?5end?5of?5input?5file?$AA@ 00461d80     jerror.obj
 0002:00003d9c       ??_C@_0BB@JJAIKFBB@Empty?5input?5file?$AA@ 00461d9c     jerror.obj
 0002:00003db0       ??_C@_0CP@EKFPGPNP@Maximum?5supported?5image?5dimensio@ 00461db0     jerror.obj
 0002:00003de0       ??_C@_0CB@LFBMFPHI@Missing?5Huffman?5code?5table?5entry@ 00461de0     jerror.obj
 0002:00003e04       ??_C@_0CB@LLDOGNPJ@Huffman?5code?5size?5table?5overflow@ 00461e04     jerror.obj
 0002:00003e28       ??_C@_0CI@EKDDDHFF@Fractional?5sampling?5not?5implemen@ 00461e28     jerror.obj
 0002:00003e50       ??_C@_0CP@IDOBLGGD@Output?5file?5write?5error?5?9?9?9?5out?5@ 00461e50     jerror.obj
 0002:00003e80       ??_C@_0BG@BALCKDNL@Input?5file?5read?5error?$AA@ 00461e80     jerror.obj
 0002:00003e98       ??_C@_0CB@DMGINPNE@Didn?8t?5expect?5more?5than?5one?5scan@ 00461e98     jerror.obj
 0002:00003ebc       ??_C@_0BE@DGJBKIEB@Write?5to?5EMS?5failed?$AA@ 00461ebc     jerror.obj
 0002:00003ed0       ??_C@_0BF@CPNENPBA@Read?5from?5EMS?5failed?$AA@ 00461ed0     jerror.obj
 0002:00003ee8       ??_C@_0CF@DAGGEAPM@Empty?5JPEG?5image?5?$CIDNL?5not?5suppor@ 00461ee8     jerror.obj
 0002:00003f10       ??_C@_0BD@DIMECAOP@Bogus?5DQT?5index?5?$CFd?$AA@ 00461f10     jerror.obj
 0002:00003f24       ??_C@_0BD@KJHFPHIC@Bogus?5DHT?5index?5?$CFd?$AA@ 00461f24     jerror.obj
 0002:00003f38       ??_C@_0BB@GDNEPMHL@Bogus?5DHT?5counts?$AA@ 00461f38     jerror.obj
 0002:00003f4c       ??_C@_0BF@CLIOOJFM@Bogus?5DAC?5value?50x?$CFx?$AA@ 00461f4c     jerror.obj
 0002:00003f64       ??_C@_0BD@LDBBBMFL@Bogus?5DAC?5index?5?$CFd?$AA@ 00461f64     jerror.obj
 0002:00003f78       ??_C@_0CF@JDLOPNGO@Unsupported?5color?5conversion?5req@ 00461f78     jerror.obj
 0002:00003fa0       ??_C@_0CG@BEBDNOCG@Too?5many?5color?5components?3?5?$CFd?0?5m@ 00461fa0     jerror.obj
 0002:00003fc8       ??_C@_0CF@LAEFHNAH@CCIR601?5sampling?5not?5implemented@ 00461fc8     jerror.obj
 0002:00003ff0       ??_C@_0BM@PKHCPJDH@Suspension?5not?5allowed?5here?$AA@ 00461ff0     jerror.obj
 0002:0000400c       ??_C@_0CL@JKHIPJLJ@Buffer?5passed?5to?5JPEG?5library?5is@ 0046200c     jerror.obj
 0002:00004038       ??_C@_0BL@CBOEEPLK@Bogus?5virtual?5array?5access?$AA@ 00462038     jerror.obj
 0002:00004054       ??_C@_0CK@BAMFIBMM@Improper?5call?5to?5JPEG?5library?5in@ 00462054     jerror.obj
 0002:00004080       ??_C@_0CA@MJDDICLK@Invalid?5scan?5script?5at?5entry?5?$CFd?$AA@ 00462080     jerror.obj
 0002:000040a0       ??_C@_0BH@HMMHPOPE@Bogus?5sampling?5factors?$AA@ 004620a0     jerror.obj
 0002:000040b8       ??_C@_0DH@HIKEGPKP@Invalid?5progressive?5parameters?5a@ 004620b8     jerror.obj
 0002:000040f0       ??_C@_0DH@LNGGEGOL@Invalid?5progressive?5parameters?5S@ 004620f0     jerror.obj
 0002:00004128       ??_C@_0CD@LDBDNLHK@Unsupported?5JPEG?5data?5precision?5@ 00462128     jerror.obj
 0002:0000414c       ??_C@_0BM@OEMICEFD@Invalid?5memory?5pool?5code?5?$CFd?$AA@ 0046214c     jerror.obj
 0002:00004168       ??_C@_0DA@HLEOHNPA@Sampling?5factors?5too?5large?5for?5i@ 00462168     jerror.obj
 0002:00004198       ??_C@_0BE@OGLAEMOG@Bogus?5marker?5length?$AA@ 00462198     jerror.obj
 0002:000041ac       ??_C@_0BG@NEGIHEMC@Bogus?5JPEG?5colorspace?$AA@ 004621ac     jerror.obj
 0002:000041c4       ??_C@_0BH@BGDIGLHC@Bogus?5input?5colorspace?$AA@ 004621c4     jerror.obj
 0002:000041dc       ??_C@_0CI@MBJANLAP@IDCT?5output?5block?5size?5?$CFd?5not?5su@ 004621dc     jerror.obj
 0002:00004204       ??_C@_0BP@ONFLCDHG@Invalid?5component?5ID?5?$CFd?5in?5SOS?$AA@ 00462204     jerror.obj
 0002:00004224       ??_C@_0BK@DKALDNKG@Bogus?5buffer?5control?5mode?$AA@ 00462224     jerror.obj
 0002:00004240       ??_C@_0CF@DENLILGA@MAX_ALLOC_CHUNK?5is?5wrong?0?5please@ 00462240     jerror.obj
 0002:00004268       ??_C@_0CA@FDMPGPNI@ALIGN_TYPE?5is?5wrong?0?5please?5fix?$AA@ 00462268     jerror.obj
 0002:00004288       ??_C@_0DJ@KONAFFHE@Sorry?0?5there?5are?5legal?5restricti@ 00462288     jerror.obj
 0002:000042c4       ??_C@_0BG@MIBALFBH@Bogus?5message?5code?5?$CFd?$AA@ 004622c4     jerror.obj
 0002:000042e0       _jpeg_std_message_table    004622e0     jerror.obj
 0002:000044c0       __real@4004e7aea0000000    004624c0     jidctflt.obj
 0002:000044c8       __real@3ff1517a80000000    004624c8     jidctflt.obj
 0002:000044d0       __real@3ffd906bc0000000    004624d0     jidctflt.obj
 0002:000044d8       __real@3ff6a09e60000000    004624d8     jidctflt.obj
 0002:000044f0       ??_C@_05IBIMIMKO@?$CFld?$CFc?$AA@ 004624f0     jmemmgr.obj
 0002:000044f8       ??_C@_07OOOLPGAB@JPEGMEM?$AA@ 004624f8     jmemmgr.obj
 0002:00004500       _jpeg_zigzag_order         00462500     jutils.obj
 0002:00004600       _jpeg_natural_order        00462600     jutils.obj
 0002:00004740       ??_C@_0BH@KIOHFCFE@Error?5writing?5to?5file?4?$AA@ 00462740     png.obj
 0002:00004758       ??_C@_0BH@MCBIIHEK@Could?5not?5create?5file?4?$AA@ 00462758     png.obj
 0002:00004770       ??_C@_0BC@GALNKHEN@Failed?5CRC?5check?4?$AA@ 00462770     png.obj
 0002:00004784       ??_C@_0CE@IDNEAJDP@Invalid?5filter?5or?5compression?5ty@ 00462784     png.obj
 0002:000047a8       ??_C@_0BL@NEGGJPBI@Image?5is?5not?524?5or?532?5bit?4?$AA@ 004627a8     png.obj
 0002:000047c4       ??_C@_0BO@DKLMMBFM@Height?5is?5not?5a?5power?5of?5two?4?$AA@ 004627c4     png.obj
 0002:000047e4       ??_C@_0BN@GOKGMCHK@Width?5is?5not?5a?5power?5of?5two?4?$AA@ 004627e4     png.obj
 0002:00004804       ??_C@_0BM@BODLAIBF@Image?5is?5too?5small?5to?5load?4?$AA@ 00462804     png.obj
 0002:00004820       ??_C@_0BJ@BCLHHFGK@PNG?5signature?5not?5found?4?$AA@ 00462820     png.obj
 0002:0000483c       ??_C@_0BJ@KKDIICKJ@Error?5allocating?5memory?4?$AA@ 0046283c     png.obj
 0002:00004858       ??_C@_0BO@BBPDFEGH@Error?5compressing?5image?5data?4?$AA@ 00462858     png.obj
 0002:00004878       ??_C@_0CA@PMOFABPK@Error?5decompressing?5image?5data?4?$AA@ 00462878     png.obj
 0002:00004898       ??_C@_03GKAEADIF@OK?4?$AA@ 00462898     png.obj
 0002:000048c8       ??_C@_05HBMFIKCP@1?41?43?$AA@ 004628c8     png.obj
 0002:000048d0       ??_C@_0BM@EHBKEACE@?6All?5chunks?5processed?5OK?4?6?6?$AA@ 004628d0     png.obj
 0002:000048ec       ??_C@_0BL@EKFMLEAF@?6Dimensions?3?5?$CFd?5x?5?$CFd?5x?5?$CFd?6?$AA@ 004628ec     png.obj
 0002:00004908       ??_C@_07GLGIIGGC@failed?6?$AA@ 00462908     png.obj
 0002:00004910       ??_C@_07JBEBJPGA@passed?6?$AA@ 00462910     png.obj
 0002:00004918       ??_C@_09MIKBFAKN@CRC?50x?$CFx?5?$AA@ 00462918     png.obj
 0002:00004924       ??_C@_0N@BFMOMJJL@Length?3?5?$CF8d?5?$AA@ 00462924     png.obj
 0002:00004934       ??_C@_09BKCNEPPJ@?$CFc?$CFc?$CFc?$CFc?5?$AA@ 00462934     png.obj
 0002:00004940       ??_C@_07KICEIGKC@Chunk?3?5?$AA@ 00462940     png.obj
 0002:00004948       ??_C@_04FIBDHFBK@OK?6?6?$AA@ 00462948     png.obj
 0002:00004950       ??_C@_0BI@HIACIJMM@Checking?5signature?4?4?4?4?4?$AA@ 00462950     png.obj
 0002:00004968       ??_C@_0BG@MIJFPNKO@Error?5parsing?5?$CFs?3?5?$CFs?6?$AA@ 00462968     png.obj
 0002:00004980       ??_C@_0BC@NBJILMHD@Couldn?8t?5read?5?$CFs?6?$AA@ 00462980     png.obj
 0002:00004d98       _deflate_copyright         00462d98     deflate.obj
 0002:00004e94       ??_C@_0BK@BMMPFBBH@invalid?5bit?5length?5repeat?$AA@ 00462e94     infblock.obj
 0002:00004eb0       ??_C@_0CE@GMIGFPBB@too?5many?5length?5or?5distance?5symb@ 00462eb0     infblock.obj
 0002:00004ed4       ??_C@_0BN@LGAADGOK@invalid?5stored?5block?5lengths?$AA@ 00462ed4     infblock.obj
 0002:00004ef4       ??_C@_0BD@PJCBIDD@invalid?5block?5type?$AA@ 00462ef4     infblock.obj
 0002:00004f08       ??_C@_0BM@FFFLPBBC@invalid?5literal?1length?5code?$AA@ 00462f08     infcodes.obj
 0002:00004f24       ??_C@_0BG@LBKINIKP@invalid?5distance?5code?$AA@ 00462f24     infcodes.obj
 0002:00004f40       ??_C@_0BA@MOKMMFOD@need?5dictionary?$AA@ 00462f40     inflate.obj
 0002:00004f50       ??_C@_0BF@MEIGEHBE@incorrect?5data?5check?$AA@ 00462f50     inflate.obj
 0002:00004f68       ??_C@_0BH@LIBMMIGA@incorrect?5header?5check?$AA@ 00462f68     inflate.obj
 0002:00004f80       ??_C@_0BE@EMOGCLGO@invalid?5window?5size?$AA@ 00462f80     inflate.obj
 0002:00004f94       ??_C@_0BL@IHKGDAEE@unknown?5compression?5method?$AA@ 00462f94     inflate.obj
 0002:00004fb0       _inflate_copyright         00462fb0     inftrees.obj
 0002:000051d0       ??_C@_0CE@LOHAHEGK@incomplete?5dynamic?5bit?5lengths?5t@ 004631d0     inftrees.obj
 0002:000051f4       ??_C@_0CI@CGMOPDPD@oversubscribed?5dynamic?5bit?5lengt@ 004631f4     inftrees.obj
 0002:0000521c       ??_C@_0BP@NEEEJJNA@incomplete?5literal?1length?5tree?$AA@ 0046321c     inftrees.obj
 0002:0000523c       ??_C@_0CD@GJIDGCKE@oversubscribed?5literal?1length?5tr@ 0046323c     inftrees.obj
 0002:00005260       ??_C@_0CB@KPKKKLFO@empty?5distance?5tree?5with?5lengths@ 00463260     inftrees.obj
 0002:00005284       ??_C@_0BJ@CBCPDPJF@incomplete?5distance?5tree?$AA@ 00463284     inftrees.obj
 0002:000052a0       ??_C@_0BN@KBLCDIAI@oversubscribed?5distance?5tree?$AA@ 004632a0     inftrees.obj
 0002:00005908       __dist_code                00463908     trees.obj
 0002:00005b08       __length_code              00463b08     trees.obj
 0002:00005cf8       ??_C@_0BF@CJFPCCEG@incompatible?5version?$AA@ 00463cf8     zutil.obj
 0002:00005d10       ??_C@_0N@DFPGLBGC@buffer?5error?$AA@ 00463d10     zutil.obj
 0002:00005d20       ??_C@_0BE@OGGJBMCE@insufficient?5memory?$AA@ 00463d20     zutil.obj
 0002:00005d34       ??_C@_0L@HAHMBNLP@data?5error?$AA@ 00463d34     zutil.obj
 0002:00005d40       ??_C@_0N@MKKNPMJD@stream?5error?$AA@ 00463d40     zutil.obj
 0002:00005d50       ??_C@_0L@KIJFAKBJ@file?5error?$AA@ 00463d50     zutil.obj
 0002:00005d5c       ??_C@_0L@FNAOCBOG@stream?5end?$AA@ 00463d5c     zutil.obj
 0002:00005d6c       ??_7invalid_argument@std@@6B@ 00463d6c     libcpmt:string.obj
 0002:00005d74       ??_C@_0BA@JFNIOLAK@string?5too?5long?$AA@ 00463d74     libcpmt:string.obj
 0002:00005d84       ??_C@_0BI@CFPLBAOH@invalid?5string?5position?$AA@ 00463d84     libcpmt:string.obj
 0002:00005d9c       ??_C@_0BI@ILCMCLF@invalid?5string?5argument?$AA@ 00463d9c     libcpmt:string.obj
 0002:00005db8       ??_7_Locimp@locale@std@@6B@ 00463db8     libcpmt:locale0.obj
 0002:00005dbc       ??_C@_01NBENCBCI@?$CK?$AA@ 00463dbc     libcpmt:locale0.obj
 0002:00005dc0       ??_C@_01GFHCPBMG@C?$AA@    00463dc0     libcpmt:locale0.obj
 0002:00005dc8       ??_7ctype_base@std@@6B@    00463dc8     libcpmt:cout.obj
 0002:00005dd0       ??_7ios_base@std@@6B@      00463dd0     libcpmt:cout.obj
 0002:00005dd8       ??_7?$basic_ostream@DU?$char_traits@D@std@@@std@@6B@ 00463dd8     libcpmt:cout.obj
 0002:00005de0       ??_7?$basic_ios@DU?$char_traits@D@std@@@std@@6B@ 00463de0     libcpmt:cout.obj
 0002:00005de8       ??_7?$ctype@D@std@@6B@     00463de8     libcpmt:cout.obj
 0002:00005e18       ??_7?$basic_streambuf@DU?$char_traits@D@std@@@std@@6B@ 00463e18     libcpmt:cout.obj
 0002:00005e54       ??_7?$basic_filebuf@DU?$char_traits@D@std@@@std@@6B@ 00463e54     libcpmt:cout.obj
 0002:00005e90       ??_7codecvt_base@std@@6B@  00463e90     libcpmt:cout.obj
 0002:00005ea4       ??_7?$codecvt@DDH@std@@6B@ 00463ea4     libcpmt:cout.obj
 0002:00005ec4       ??_8?$basic_ostream@DU?$char_traits@D@std@@@std@@7B@ 00463ec4     libcpmt:cout.obj
 0002:00005ecc       ?_BADOFF@std@@3JB          00463ecc     libcpmt:ios.obj
 0002:00005ed4       ??_7exception@std@@6B@     00463ed4     LIBCMT:stdexcpt.obj
 0002:00005edc       ??_C@_0BC@EOODALEL@Unknown?5exception?$AA@ 00463edc     LIBCMT:stdexcpt.obj
 0002:00005ef4       ??_7bad_cast@std@@6B@      00463ef4     LIBCMT:stdexcpt.obj
 0002:00005f00       ??_7bad_typeid@std@@6B@    00463f00     LIBCMT:stdexcpt.obj
 0002:00005f0c       ??_7__non_rtti_object@std@@6B@ 00463f0c     LIBCMT:stdexcpt.obj
 0002:00005f18       ??_7type_info@@6B@         00463f18     LIBCMT:typinfo.obj
 0002:00005f1c       ?ProcessDetach@NativeDll@<CrtImplementationDetails>@@0IB 00463f1c     LIBCMT:invarg.obj
 0002:00005f20       ?ProcessAttach@NativeDll@<CrtImplementationDetails>@@0IB 00463f20     LIBCMT:invarg.obj
 0002:00005f24       ?ThreadAttach@NativeDll@<CrtImplementationDetails>@@0IB 00463f24     LIBCMT:invarg.obj
 0002:00005f28       ?ThreadDetach@NativeDll@<CrtImplementationDetails>@@0IB 00463f28     LIBCMT:invarg.obj
 0002:00005f2c       ?ProcessVerifier@NativeDll@<CrtImplementationDetails>@@0IB 00463f2c     LIBCMT:invarg.obj
 0002:00005f50       __FPinit                   00463f50     LIBCMT:_fpinit_.obj
 0002:00005f54       __FPmtinit                 00463f54     LIBCMT:_fpinit_.obj
 0002:00005f58       __FPmtterm                 00463f58     LIBCMT:_fpinit_.obj
 0002:00005f5c       ??_C@_0P@MIGLKIOC@CorExitProcess?$AA@ 00463f5c     LIBCMT:crt0dat.obj
 0002:00005f6c       ??_C@_1BI@BGOHAHKC@?$AAm?$AAs?$AAc?$AAo?$AAr?$AAe?$AAe?$AA?4?$AAd?$AAl?$AAl?$AA?$AA@ 00463f6c     LIBCMT:crt0dat.obj
 0002:00005fe0       ??_C@_07LCBHPJJN@LC_TIME?$AA@ 00463fe0     LIBCMT:setlocal.obj
 0002:00005fe8       ??_C@_0L@DLHIECNL@LC_NUMERIC?$AA@ 00463fe8     LIBCMT:setlocal.obj
 0002:00005ff4       ??_C@_0M@MIENIKLA@LC_MONETARY?$AA@ 00463ff4     LIBCMT:setlocal.obj
 0002:00006000       ??_C@_08EADHIDAD@LC_CTYPE?$AA@ 00464000     LIBCMT:setlocal.obj
 0002:0000600c       ??_C@_0L@KFJHEKIK@LC_COLLATE?$AA@ 0046400c     LIBCMT:setlocal.obj
 0002:00006018       ??_C@_06NEFDFEKB@LC_ALL?$AA@ 00464018     LIBCMT:setlocal.obj
 0002:00006020       ___lc_category             00464020     LIBCMT:setlocal.obj
 0002:000060e8       ??_C@_03EGDHDPFD@_?4?0?$AA@ 004640e8     LIBCMT:setlocal.obj
 0002:000060ec       ??_C@_01LFCBOECM@?4?$AA@   004640ec     LIBCMT:setlocal.obj
 0002:000060f0       ??_C@_01IDAFKMJL@_?$AA@    004640f0     LIBCMT:setlocal.obj
 0002:000060f4       ??_C@_01ICJEACDI@?$DL?$AA@ 004640f4     LIBCMT:setlocal.obj
 0002:000060f8       ??_C@_01NEMOKFLO@?$DN?$AA@ 004640f8     LIBCMT:setlocal.obj
 0002:000060fc       ??_C@_02BALPLPBG@?$DN?$DL?$AA@ 004640fc     LIBCMT:setlocal.obj
 0002:00006100       __pDestructExceptionObject 00464100     LIBCMT:frame.obj
 0002:00006108       ??_7bad_exception@std@@6B@ 00464108     LIBCMT:frame.obj
 0002:00006110       ??_C@_0O@DPKOEFFH@bad?5exception?$AA@ 00464110     LIBCMT:frame.obj
 0002:00006120       ___newctype                00464120     LIBCMT:ctype.obj
 0002:00006420       __wctype                   00464420     LIBCMT:ctype.obj
 0002:00006628       ___newclmap                00464628     LIBCMT:ctype.obj
 0002:000067a8       ___newcumap                004647a8     LIBCMT:ctype.obj
 0002:00006928       ??_C@_13NOLLCAOD@?$AA?$AA?$AA?$AA@ 00464928     LIBCMT:a_map.obj
 0002:0000692c       ??_C@_0O@NLDKAIKN@EncodePointer?$AA@ 0046492c     LIBCMT:tidtable.obj
 0002:0000693c       ??_C@_1BK@DBDEIDLH@?$AAK?$AAE?$AAR?$AAN?$AAE?$AAL?$AA3?$AA2?$AA?4?$AAD?$AAL?$AAL?$AA?$AA@ 0046493c     LIBCMT:tidtable.obj
 0002:00006958       ??_C@_0O@KBPMFGHI@DecodePointer?$AA@ 00464958     LIBCMT:tidtable.obj
 0002:00006968       ??_C@_07PEJMOBNF@FlsFree?$AA@ 00464968     LIBCMT:tidtable.obj
 0002:00006970       ??_C@_0M@JCPCPOEF@FlsSetValue?$AA@ 00464970     LIBCMT:tidtable.obj
 0002:0000697c       ??_C@_0M@GDNOONDI@FlsGetValue?$AA@ 0046497c     LIBCMT:tidtable.obj
 0002:00006988       ??_C@_08KNHFBNJ@FlsAlloc?$AA@ 00464988     LIBCMT:tidtable.obj
 0002:0000699c       ??_C@_05KLBDPFGC@e?$CL000?$AA@ 0046499c     LIBCMT:cvt.obj
 0002:000069a8       __real@4150017ec0000000    004649a8     LIBCMT:_testfdiv_.obj
 0002:000069b0       __real@4147ffff80000000    004649b0     LIBCMT:_testfdiv_.obj
 0002:000069b8       ??_C@_0BK@NHEOCAHP@IsProcessorFeaturePresent?$AA@ 004649b8     LIBCMT:_testfdiv_.obj
 0002:000069d4       ??_C@_08CPNIBGIE@KERNEL32?$AA@ 004649d4     LIBCMT:_testfdiv_.obj
 0002:000069e0       ??_C@_1O@CEDCILHN@?$AA?$CI?$AAn?$AAu?$AAl?$AAl?$AA?$CJ?$AA?$AA@ 004649e0     LIBCMT:output.obj
 0002:000069f0       ??_C@_06OJHGLDPL@?$CInull?$CJ?$AA@ 004649f0     LIBCMT:output.obj
 0002:000069f8       ___lookuptable             004649f8     LIBCMT:output.obj
 0002:00006a74       ??_C@_0P@GGKDKEEG@runtime?5error?5?$AA@ 00464a74     LIBCMT:crt0msg.obj
 0002:00006a84       ??_C@_02PCIJFNDE@?$AN?6?$AA@ 00464a84     LIBCMT:crt0msg.obj
 0002:00006a88       ??_C@_0O@MJNIPGOH@TLOSS?5error?$AN?6?$AA@ 00464a88     LIBCMT:crt0msg.obj
 0002:00006a98       ??_C@_0N@BONNPDHF@SING?5error?$AN?6?$AA@ 00464a98     LIBCMT:crt0msg.obj
 0002:00006aa8       ??_C@_0P@MBDAJNE@DOMAIN?5error?$AN?6?$AA@ 00464aa8     LIBCMT:crt0msg.obj
 0002:00006ab8       ??_C@_0JL@DFDOOABL@R6034?$AN?6An?5application?5has?5made?5a@ 00464ab8     LIBCMT:crt0msg.obj
 0002:00006b58       ??_C@_0PH@EPAFIJ@R6033?$AN?6?9?5Attempt?5to?5use?5MSIL?5cod@ 00464b58     LIBCMT:crt0msg.obj
 0002:00006c50       ??_C@_0DD@BKEEABMM@R6032?$AN?6?9?5not?5enough?5space?5for?5lo@ 00464c50     LIBCMT:crt0msg.obj
 0002:00006c88       ??_C@_0GD@OFKILIED@R6031?$AN?6?9?5Attempt?5to?5initialize?5t@ 00464c88     LIBCMT:crt0msg.obj
 0002:00006cec       ??_C@_0BP@LPMHJOKI@R6030?$AN?6?9?5CRT?5not?5initialized?$AN?6?$AA@ 00464cec     LIBCMT:crt0msg.obj
 0002:00006d0c       ??_C@_0CF@KJDAIALP@R6028?$AN?6?9?5unable?5to?5initialize?5he@ 00464d0c     LIBCMT:crt0msg.obj
 0002:00006d34       ??_C@_0DF@GAKBPDFP@R6027?$AN?6?9?5not?5enough?5space?5for?5lo@ 00464d34     LIBCMT:crt0msg.obj
 0002:00006d6c       ??_C@_0DF@IBLNNAIG@R6026?$AN?6?9?5not?5enough?5space?5for?5st@ 00464d6c     LIBCMT:crt0msg.obj
 0002:00006da4       ??_C@_0CG@IOHKGFNJ@R6025?$AN?6?9?5pure?5virtual?5function?5c@ 00464da4     LIBCMT:crt0msg.obj
 0002:00006dcc       ??_C@_0DF@JIJJFJDC@R6024?$AN?6?9?5not?5enough?5space?5for?5_o@ 00464dcc     LIBCMT:crt0msg.obj
 0002:00006e04       ??_C@_0CJ@EGEJHFME@R6019?$AN?6?9?5unable?5to?5open?5console?5@ 00464e04     LIBCMT:crt0msg.obj
 0002:00006e30       ??_C@_0CB@GNHNIELH@R6018?$AN?6?9?5unexpected?5heap?5error?$AN?6@ 00464e30     LIBCMT:crt0msg.obj
 0002:00006e54       ??_C@_0CN@FOLDKNG@R6017?$AN?6?9?5unexpected?5multithread?5@ 00464e54     LIBCMT:crt0msg.obj
 0002:00006e84       ??_C@_0CM@FAHFJNHO@R6016?$AN?6?9?5not?5enough?5space?5for?5th@ 00464e84     LIBCMT:crt0msg.obj
 0002:00006eb0       ??_C@_0JG@LBKMGKLD@?$AN?6This?5application?5has?5requested@ 00464eb0     LIBCMT:crt0msg.obj
 0002:00006f48       ??_C@_0CM@FLCNIPKK@R6009?$AN?6?9?5not?5enough?5space?5for?5en@ 00464f48     LIBCMT:crt0msg.obj
 0002:00006f74       ??_C@_0CK@KMMJOAPP@R6008?$AN?6?9?5not?5enough?5space?5for?5ar@ 00464f74     LIBCMT:crt0msg.obj
 0002:00006fa0       ??_C@_0CN@LEKKICBM@R6002?$AN?6?9?5floating?5point?5support?5@ 00464fa0     LIBCMT:crt0msg.obj
 0002:00006fd0       ??_C@_0CF@GOGNBNAK@Microsoft?5Visual?5C?$CL?$CL?5Runtime?5Lib@ 00464fd0     LIBCMT:crt0msg.obj
 0002:00006ff8       ??_C@_0BH@DNAGHKFM@?$DMprogram?5name?5unknown?$DO?$AA@ 00464ff8     LIBCMT:crt0msg.obj
 0002:00007010       ??_C@_0BK@OFGJDLJJ@Runtime?5Error?$CB?6?6Program?3?5?$AA@ 00465010     LIBCMT:crt0msg.obj
 0002:00007030       __XcptActTab               00465030     LIBCMT:winxfltr.obj
 0002:000070a8       ??_C@_0BC@JEAENNKH@SystemFunction036?$AA@ 004650a8     LIBCMT:rand_s.obj
 0002:000070bc       ??_C@_0N@JJPEKNFO@ADVAPI32?4DLL?$AA@ 004650bc     LIBCMT:rand_s.obj
 0002:00007988       __DEFAULT_CW_in_mem        00465988     LIBCMT:_common_.obj
 0002:0000798a       __pi_by_2_to_61            0046598a     LIBCMT:_common_.obj
 0002:00007a30       ??_C@_03IIINPABG@tan?$AA@  00465a30     LIBCMT:_libm_error_.obj
 0002:00007a34       ??_C@_03LALBNOCG@cos?$AA@  00465a34     LIBCMT:_libm_error_.obj
 0002:00007a38       ??_C@_04EHEDPDJG@modf?$AA@ 00465a38     LIBCMT:_libm_error_.obj
 0002:00007a40       ??_C@_05PBJFFIGL@floor?$AA@ 00465a40     LIBCMT:_libm_error_.obj
 0002:00007a48       ??_C@_04GFPJNGEK@ceil?$AA@ 00465a48     LIBCMT:_libm_error_.obj
 0002:00007a50       ??_C@_04MLLJIGOK@atan?$AA@ 00465a50     LIBCMT:_libm_error_.obj
 0002:00007a58       ??_C@_05EOHGHCHD@exp10?$AA@ 00465a58     LIBCMT:_libm_error_.obj
 0002:00007a60       ??_C@_04PDIFKINK@acos?$AA@ 00465a60     LIBCMT:_libm_error_.obj
 0002:00007a68       ??_C@_04FIHNOPOL@asin?$AA@ 00465a68     LIBCMT:_libm_error_.obj
 0002:00007a70       ??_C@_03MGHMBJCF@log?$AA@  00465a70     LIBCMT:_libm_error_.obj
 0002:00007a74       ??_C@_05HGHHAHAP@log10?$AA@ 00465a74     LIBCMT:_libm_error_.obj
 0002:00007a7c       ??_C@_03KHJOGHMM@exp?$AA@  00465a7c     LIBCMT:_libm_error_.obj
 0002:00007a80       ??_C@_03JGHBODFD@pow?$AA@  00465a80     LIBCMT:_libm_error_.obj
 0002:0000d4c0       ??_C@_08JCCMCCIL@HH?3mm?3ss?$AA@ 0046b4c0     LIBCMT:strftime.obj
 0002:0000d4cc       ??_C@_0BE@CKGJFCPC@dddd?0?5MMMM?5dd?0?5yyyy?$AA@ 0046b4cc     LIBCMT:strftime.obj
 0002:0000d4e0       ??_C@_08BPBNCDIB@MM?1dd?1yy?$AA@ 0046b4e0     LIBCMT:strftime.obj
 0002:0000d4ec       ??_C@_02CJNFDJBF@PM?$AA@   0046b4ec     LIBCMT:strftime.obj
 0002:0000d4f0       ??_C@_02DEDBPAFC@AM?$AA@   0046b4f0     LIBCMT:strftime.obj
 0002:0000d4f4       ??_C@_08EDHMEBNP@December?$AA@ 0046b4f4     LIBCMT:strftime.obj
 0002:0000d500       ??_C@_08HCHEGEOA@November?$AA@ 0046b500     LIBCMT:strftime.obj
 0002:0000d50c       ??_C@_07JJNFCEND@October?$AA@ 0046b50c     LIBCMT:strftime.obj
 0002:0000d514       ??_C@_09BHHEALKD@September?$AA@ 0046b514     LIBCMT:strftime.obj
 0002:0000d520       ??_C@_06LBBHFDDG@August?$AA@ 0046b520     LIBCMT:strftime.obj
 0002:0000d528       ??_C@_04MIEPOIFP@July?$AA@ 0046b528     LIBCMT:strftime.obj
 0002:0000d530       ??_C@_04CNLMGBGM@June?$AA@ 0046b530     LIBCMT:strftime.obj
 0002:0000d538       ??_C@_05DMJDNLEJ@April?$AA@ 0046b538     LIBCMT:strftime.obj
 0002:0000d540       ??_C@_05HPCKOFNC@March?$AA@ 0046b540     LIBCMT:strftime.obj
 0002:0000d548       ??_C@_08GNJGEPFN@February?$AA@ 0046b548     LIBCMT:strftime.obj
 0002:0000d554       ??_C@_07CGJPFGJA@January?$AA@ 0046b554     LIBCMT:strftime.obj
 0002:0000d55c       ??_C@_03MKABNOCG@Dec?$AA@  0046b55c     LIBCMT:strftime.obj
 0002:0000d560       ??_C@_03JPJOFNIA@Nov?$AA@  0046b560     LIBCMT:strftime.obj
 0002:0000d564       ??_C@_03BMAOKBAD@Oct?$AA@  0046b564     LIBCMT:strftime.obj
 0002:0000d568       ??_C@_03GGCAPAJC@Sep?$AA@  0046b568     LIBCMT:strftime.obj
 0002:0000d56c       ??_C@_03IFJFEIGA@Aug?$AA@  0046b56c     LIBCMT:strftime.obj
 0002:0000d570       ??_C@_03LBGABGKK@Jul?$AA@  0046b570     LIBCMT:strftime.obj
 0002:0000d574       ??_C@_03IDFGHECI@Jun?$AA@  0046b574     LIBCMT:strftime.obj
 0002:0000d578       ??_C@_03CNMDKL@May?$AA@    0046b578     LIBCMT:strftime.obj
 0002:0000d57c       ??_C@_03LEOLGMJP@Apr?$AA@  0046b57c     LIBCMT:strftime.obj
 0002:0000d580       ??_C@_03ODNJBKGA@Mar?$AA@  0046b580     LIBCMT:strftime.obj
 0002:0000d584       ??_C@_03HJBDCHOM@Feb?$AA@  0046b584     LIBCMT:strftime.obj
 0002:0000d588       ??_C@_03JIHJHPIE@Jan?$AA@  0046b588     LIBCMT:strftime.obj
 0002:0000d58c       ??_C@_08INBOOONO@Saturday?$AA@ 0046b58c     LIBCMT:strftime.obj
 0002:0000d598       ??_C@_06JECMNKMI@Friday?$AA@ 0046b598     LIBCMT:strftime.obj
 0002:0000d5a0       ??_C@_08HACCIKIA@Thursday?$AA@ 0046b5a0     LIBCMT:strftime.obj
 0002:0000d5ac       ??_C@_09DLIGFAKA@Wednesday?$AA@ 0046b5ac     LIBCMT:strftime.obj
 0002:0000d5b8       ??_C@_07BAAGCFCM@Tuesday?$AA@ 0046b5b8     LIBCMT:strftime.obj
 0002:0000d5c0       ??_C@_06JLEDEDGH@Monday?$AA@ 0046b5c0     LIBCMT:strftime.obj
 0002:0000d5c8       ??_C@_06OOPIFAJ@Sunday?$AA@ 0046b5c8     LIBCMT:strftime.obj
 0002:0000d5d0       ??_C@_03FEFJNEK@Sat?$AA@   0046b5d0     LIBCMT:strftime.obj
 0002:0000d5d4       ??_C@_03IDIOELNC@Fri?$AA@  0046b5d4     LIBCMT:strftime.obj
 0002:0000d5d8       ??_C@_03IOFIKPDN@Thu?$AA@  0046b5d8     LIBCMT:strftime.obj
 0002:0000d5dc       ??_C@_03MHOMLAJA@Wed?$AA@  0046b5dc     LIBCMT:strftime.obj
 0002:0000d5e0       ??_C@_03NAGEINEP@Tue?$AA@  0046b5e0     LIBCMT:strftime.obj
 0002:0000d5e4       ??_C@_03PDAGKDH@Mon?$AA@   0046b5e4     LIBCMT:strftime.obj
 0002:0000d5e8       ??_C@_03KOEHGMDN@Sun?$AA@  0046b5e8     LIBCMT:strftime.obj
 0002:0000d5ec       ??_C@_03EBAPMIKO@a?1p?$AA@ 0046b5ec     LIBCMT:strftime.obj
 0002:0000d5f0       ??_C@_05JAMEPDIN@am?1pm?$AA@ 0046b5f0     LIBCMT:strftime.obj
 0002:0000d5f8       ??_C@_0O@FMJNFNKE@united?9states?$AA@ 0046b5f8     LIBCMT:getqloc.obj
 0002:0000d608       ??_C@_0P@NDHFFKCA@united?9kingdom?$AA@ 0046b608     LIBCMT:getqloc.obj
 0002:0000d618       ??_C@_0BC@HHDADLGF@trinidad?5?$CG?5tobago?$AA@ 0046b618     LIBCMT:getqloc.obj
 0002:0000d62c       ??_C@_0M@IOAEBDAC@south?9korea?$AA@ 0046b62c     LIBCMT:getqloc.obj
 0002:0000d638       ??_C@_0N@FIELFKIJ@south?9africa?$AA@ 0046b638     LIBCMT:getqloc.obj
 0002:0000d648       ??_C@_0M@OPNDHCMC@south?5korea?$AA@ 0046b648     LIBCMT:getqloc.obj
 0002:0000d654       ??_C@_0N@MDEOEPFI@south?5africa?$AA@ 0046b654     LIBCMT:getqloc.obj
 0002:0000d664       ??_C@_06FKAPCJLB@slovak?$AA@ 0046b664     LIBCMT:getqloc.obj
 0002:0000d66c       ??_C@_0M@EFJANOAL@puerto?9rico?$AA@ 0046b66c     LIBCMT:getqloc.obj
 0002:0000d678       ??_C@_08PGOJKDAI@pr?9china?$AA@ 0046b678     LIBCMT:getqloc.obj
 0002:0000d684       ??_C@_08JHDOMCMI@pr?5china?$AA@ 0046b684     LIBCMT:getqloc.obj
 0002:0000d690       ??_C@_02JHCHFBLL@nz?$AA@   0046b690     LIBCMT:getqloc.obj
 0002:0000d694       ??_C@_0M@LINHDHKP@new?9zealand?$AA@ 0046b694     LIBCMT:getqloc.obj
 0002:0000d6a0       ??_C@_09IIIPPBDB@hong?9kong?$AA@ 0046b6a0     LIBCMT:getqloc.obj
 0002:0000d6ac       ??_C@_07HJLCKBG@holland?$AA@ 0046b6ac     LIBCMT:getqloc.obj
 0002:0000d6b4       ??_C@_0O@LEHGMHAG@great?5britain?$AA@ 0046b6b4     LIBCMT:getqloc.obj
 0002:0000d6c4       ??_C@_07FACOMELA@england?$AA@ 0046b6c4     LIBCMT:getqloc.obj
 0002:0000d6cc       ??_C@_05JIHCEICB@czech?$AA@ 0046b6cc     LIBCMT:getqloc.obj
 0002:0000d6d4       ??_C@_05BBJOBLGB@china?$AA@ 0046b6d4     LIBCMT:getqloc.obj
 0002:0000d6dc       ??_C@_07GPKPHICP@britain?$AA@ 0046b6dc     LIBCMT:getqloc.obj
 0002:0000d6e4       ??_C@_07MHIPBHMG@america?$AA@ 0046b6e4     LIBCMT:getqloc.obj
 0002:0000d6ec       ??_C@_03KIALPMKC@usa?$AA@  0046b6ec     LIBCMT:getqloc.obj
 0002:0000d6f0       ??_C@_02FGJGKGGD@us?$AA@   0046b6f0     LIBCMT:getqloc.obj
 0002:0000d6f4       ??_C@_02NEINDODK@uk?$AA@   0046b6f4     LIBCMT:getqloc.obj
 0002:0000d6f8       ??_C@_05JMPCFJFJ@swiss?$AA@ 0046b6f8     LIBCMT:getqloc.obj
 0002:0000d700       ??_C@_0BA@HLOCPIOD@swedish?9finland?$AA@ 0046b700     LIBCMT:getqloc.obj
 0002:0000d710       ??_C@_0BC@PKCNIABK@spanish?9venezuela?$AA@ 0046b710     LIBCMT:getqloc.obj
 0002:0000d724       ??_C@_0BA@GBHHMIJI@spanish?9uruguay?$AA@ 0046b724     LIBCMT:getqloc.obj
 0002:0000d734       ??_C@_0BE@BHDOHPMC@spanish?9puerto?5rico?$AA@ 0046b734     LIBCMT:getqloc.obj
 0002:0000d748       ??_C@_0N@KMOIDGGN@spanish?9peru?$AA@ 0046b748     LIBCMT:getqloc.obj
 0002:0000d758       ??_C@_0BB@HMHLPGPH@spanish?9paraguay?$AA@ 0046b758     LIBCMT:getqloc.obj
 0002:0000d76c       ??_C@_0P@MCPKNGFD@spanish?9panama?$AA@ 0046b76c     LIBCMT:getqloc.obj
 0002:0000d77c       ??_C@_0BC@IHOHGAIL@spanish?9nicaragua?$AA@ 0046b77c     LIBCMT:getqloc.obj
 0002:0000d790       ??_C@_0P@KLMJDNFJ@spanish?9modern?$AA@ 0046b790     LIBCMT:getqloc.obj
 0002:0000d7a0       ??_C@_0BA@BPAPGBCM@spanish?9mexican?$AA@ 0046b7a0     LIBCMT:getqloc.obj
 0002:0000d7b0       ??_C@_0BB@PDECHHHE@spanish?9honduras?$AA@ 0046b7b0     LIBCMT:getqloc.obj
 0002:0000d7c4       ??_C@_0BC@KLHKFGDB@spanish?9guatemala?$AA@ 0046b7c4     LIBCMT:getqloc.obj
 0002:0000d7d8       ??_C@_0BE@MFOOKJAI@spanish?9el?5salvador?$AA@ 0046b7d8     LIBCMT:getqloc.obj
 0002:0000d7ec       ??_C@_0BA@FCOKFPFC@spanish?9ecuador?$AA@ 0046b7ec     LIBCMT:getqloc.obj
 0002:0000d7fc       ??_C@_0BL@PLMGIMOO@spanish?9dominican?5republic?$AA@ 0046b7fc     LIBCMT:getqloc.obj
 0002:0000d818       ??_C@_0BD@HLGDNMHB@spanish?9costa?5rica?$AA@ 0046b818     LIBCMT:getqloc.obj
 0002:0000d82c       ??_C@_0BB@PKCBKCPE@spanish?9colombia?$AA@ 0046b82c     LIBCMT:getqloc.obj
 0002:0000d840       ??_C@_0O@MCBIJGNE@spanish?9chile?$AA@ 0046b840     LIBCMT:getqloc.obj
 0002:0000d850       ??_C@_0BA@BEFEIGJJ@spanish?9bolivia?$AA@ 0046b850     LIBCMT:getqloc.obj
 0002:0000d860       ??_C@_0BC@EMECMPD@spanish?9argentina?$AA@ 0046b860     LIBCMT:getqloc.obj
 0002:0000d874       ??_C@_0BF@EALFLENP@portuguese?9brazilian?$AA@ 0046b874     LIBCMT:getqloc.obj
 0002:0000d88c       ??_C@_0BC@HBLEBLNN@norwegian?9nynorsk?$AA@ 0046b88c     LIBCMT:getqloc.obj
 0002:0000d8a0       ??_C@_0BB@HMACDDCK@norwegian?9bokmal?$AA@ 0046b8a0     LIBCMT:getqloc.obj
 0002:0000d8b4       ??_C@_09BAFFPPHE@norwegian?$AA@ 0046b8b4     LIBCMT:getqloc.obj
 0002:0000d8c0       ??_C@_0O@EAJFJDFG@italian?9swiss?$AA@ 0046b8c0     LIBCMT:getqloc.obj
 0002:0000d8d0       ??_C@_0O@CNOMPGD@irish?9english?$AA@ 0046b8d0     LIBCMT:getqloc.obj
 0002:0000d8e0       ??_C@_0N@EDHBGCKG@german?9swiss?$AA@ 0046b8e0     LIBCMT:getqloc.obj
 0002:0000d8f0       ??_C@_0BC@JACMHNBP@german?9luxembourg?$AA@ 0046b8f0     LIBCMT:getqloc.obj
 0002:0000d904       ??_C@_0BE@HBGMGFEG@german?9lichtenstein?$AA@ 0046b904     LIBCMT:getqloc.obj
 0002:0000d918       ??_C@_0BA@HKKBIBKL@german?9austrian?$AA@ 0046b918     LIBCMT:getqloc.obj
 0002:0000d928       ??_C@_0N@GCAEPEBK@french?9swiss?$AA@ 0046b928     LIBCMT:getqloc.obj
 0002:0000d938       ??_C@_0BC@DJFJJCK@french?9luxembourg?$AA@ 0046b938     LIBCMT:getqloc.obj
 0002:0000d94c       ??_C@_0BA@NNCEDFIC@french?9canadian?$AA@ 0046b94c     LIBCMT:getqloc.obj
 0002:0000d95c       ??_C@_0P@CMPOCLM@french?9belgian?$AA@ 0046b95c     LIBCMT:getqloc.obj
 0002:0000d96c       ??_C@_0M@GHHDJOK@english?9usa?$AA@ 0046b96c     LIBCMT:getqloc.obj
 0002:0000d978       ??_C@_0L@PLDJKEIL@english?9us?$AA@ 0046b978     LIBCMT:getqloc.obj
 0002:0000d984       ??_C@_0L@HJCCDMNC@english?9uk?$AA@ 0046b984     LIBCMT:getqloc.obj
 0002:0000d990       ??_C@_0BK@CKLIAGJB@english?9trinidad?5y?5tobago?$AA@ 0046b990     LIBCMT:getqloc.obj
 0002:0000d9ac       ??_C@_0BF@JMJMGNNF@english?9south?5africa?$AA@ 0046b9ac     LIBCMT:getqloc.obj
 0002:0000d9c4       ??_C@_0L@DKIIFDFD@english?9nz?$AA@ 0046b9c4     LIBCMT:getqloc.obj
 0002:0000d9d0       ??_C@_0BA@ONHGJCLH@english?9jamaica?$AA@ 0046b9d0     LIBCMT:getqloc.obj
 0002:0000d9e0       ??_C@_0M@HJBGHOPO@english?9ire?$AA@ 0046b9e0     LIBCMT:getqloc.obj
 0002:0000d9ec       ??_C@_0BC@LFEKMIFB@english?9caribbean?$AA@ 0046b9ec     LIBCMT:getqloc.obj
 0002:0000da00       ??_C@_0M@OLDPFKHI@english?9can?$AA@ 0046ba00     LIBCMT:getqloc.obj
 0002:0000da0c       ??_C@_0P@OMDEHBMP@english?9belize?$AA@ 0046ba0c     LIBCMT:getqloc.obj
 0002:0000da1c       ??_C@_0M@KFHFPFED@english?9aus?$AA@ 0046ba1c     LIBCMT:getqloc.obj
 0002:0000da28       ??_C@_0BB@MNMBKDFE@english?9american?$AA@ 0046ba28     LIBCMT:getqloc.obj
 0002:0000da3c       ??_C@_0O@KIDLNNBA@dutch?9belgian?$AA@ 0046ba3c     LIBCMT:getqloc.obj
 0002:0000da4c       ??_C@_0BE@JBKABBMH@chinese?9traditional?$AA@ 0046ba4c     LIBCMT:getqloc.obj
 0002:0000da60       ??_C@_0BC@MJJMPKCG@chinese?9singapore?$AA@ 0046ba60     LIBCMT:getqloc.obj
 0002:0000da74       ??_C@_0BD@FDKADDCP@chinese?9simplified?$AA@ 0046ba74     LIBCMT:getqloc.obj
 0002:0000da88       ??_C@_0BB@DBEFDDME@chinese?9hongkong?$AA@ 0046ba88     LIBCMT:getqloc.obj
 0002:0000da9c       ??_C@_07DHNMFMCI@chinese?$AA@ 0046ba9c     LIBCMT:getqloc.obj
 0002:0000daa4       ??_C@_03FNDDCHI@chi?$AA@   0046baa4     LIBCMT:getqloc.obj
 0002:0000daa8       ??_C@_03BMMIADDJ@chh?$AA@  0046baa8     LIBCMT:getqloc.obj
 0002:0000daac       ??_C@_08OAIPJDGI@canadian?$AA@ 0046baac     LIBCMT:getqloc.obj
 0002:0000dab8       ??_C@_07HBPMNPNJ@belgian?$AA@ 0046bab8     LIBCMT:getqloc.obj
 0002:0000dac0       ??_C@_0L@OEKOPBEL@australian?$AA@ 0046bac0     LIBCMT:getqloc.obj
 0002:0000dacc       ??_C@_0BB@MEIMBEDG@american?9english?$AA@ 0046bacc     LIBCMT:getqloc.obj
 0002:0000dae0       ??_C@_0BB@DFMDPDGB@american?5english?$AA@ 0046bae0     LIBCMT:getqloc.obj
 0002:0000daf4       ??_C@_08IJLOKOLL@american?$AA@ 0046baf4     LIBCMT:getqloc.obj
 0002:0000db00       ___rg_language             0046bb00     LIBCMT:getqloc.obj
 0002:0000dd08       ___rg_country              0046bd08     LIBCMT:getqloc.obj
 0002:0000ddc0       ___rglangidNotDefault      0046bdc0     LIBCMT:getqloc.obj
 0002:0000ddd4       ??_C@_01GBGANLPD@0?$AA@    0046bdd4     LIBCMT:getqloc.obj
 0002:0000ddd8       ??_C@_03NFKLAGEF@OCP?$AA@  0046bdd8     LIBCMT:getqloc.obj
 0002:0000dddc       ??_C@_03DFHEHBHG@ACP?$AA@  0046bddc     LIBCMT:getqloc.obj
 0002:0000dde0       ??_C@_0BC@NFIEMBLL@Norwegian?9Nynorsk?$AA@ 0046bde0     LIBCMT:getqloc.obj
 0002:0000ddf4       ??_C@_0BK@CFCOFLF@?5Complete?5Object?5Locator?8?$AA@ 0046bdf4     LIBCMT:undname.obj
 0002:0000de10       ??_C@_0BN@MECKDCOJ@?5Class?5Hierarchy?5Descriptor?8?$AA@ 0046be10     LIBCMT:undname.obj
 0002:0000de30       ??_C@_0BD@LGICGFMM@?5Base?5Class?5Array?8?$AA@ 0046be30     LIBCMT:undname.obj
 0002:0000de44       ??_C@_0BM@LDKODKLH@?5Base?5Class?5Descriptor?5at?5?$CI?$AA@ 0046be44     LIBCMT:undname.obj
 0002:0000de60       ??_C@_0BC@DAFEJGAK@?5Type?5Descriptor?8?$AA@ 0046be60     LIBCMT:undname.obj
 0002:0000de74       ??_C@_0BM@PMGGMLDN@?$GAlocal?5static?5thread?5guard?8?$AA@ 0046be74     LIBCMT:undname.obj
 0002:0000de90       ??_C@_0CL@FGIJHLCE@?$GAmanaged?5vector?5copy?5constructor@ 0046be90     LIBCMT:undname.obj
 0002:0000debc       ??_C@_0CJ@GJELGAMM@?$GAvector?5vbase?5copy?5constructor?5i@ 0046bebc     LIBCMT:undname.obj
 0002:0000dee8       ??_C@_0CD@CGAJBKEJ@?$GAvector?5copy?5constructor?5iterato@ 0046bee8     LIBCMT:undname.obj
 0002:0000df0c       ??_C@_0CB@PDBIFEP@?$GAdynamic?5atexit?5destructor?5for?5?8@ 0046bf0c     LIBCMT:undname.obj
 0002:0000df30       ??_C@_0BL@CLIPGLGB@?$GAdynamic?5initializer?5for?5?8?$AA@ 0046bf30     LIBCMT:undname.obj
 0002:0000df4c       ??_C@_0CM@FCBBDIGB@?$GAeh?5vector?5vbase?5copy?5constructo@ 0046bf4c     LIBCMT:undname.obj
 0002:0000df78       ??_C@_0CG@HLDDJMAG@?$GAeh?5vector?5copy?5constructor?5iter@ 0046bf78     LIBCMT:undname.obj
 0002:0000dfa0       ??_C@_0CF@IMGKMJNO@?$GAmanaged?5vector?5destructor?5itera@ 0046bfa0     LIBCMT:undname.obj
 0002:0000dfc8       ??_C@_0CG@CFDHKGGD@?$GAmanaged?5vector?5constructor?5iter@ 0046bfc8     LIBCMT:undname.obj
 0002:0000dff0       ??_C@_0BN@CKNJLHMB@?$GAplacement?5delete?$FL?$FN?5closure?8?$AA@ 0046bff0     LIBCMT:undname.obj
 0002:0000e010       ??_C@_0BL@CNOONJFP@?$GAplacement?5delete?5closure?8?$AA@ 0046c010     LIBCMT:undname.obj
 0002:0000e02c       ??_C@_0P@HJKNJFNN@?$GAomni?5callsig?8?$AA@ 0046c02c     LIBCMT:undname.obj
 0002:0000e03c       ??_C@_09LBNFPBCA@?5delete?$FL?$FN?$AA@ 0046c03c     LIBCMT:undname.obj
 0002:0000e048       ??_C@_06FHBGPFGH@?5new?$FL?$FN?$AA@ 0046c048     LIBCMT:undname.obj
 0002:0000e050       ??_C@_0CE@IIHCMGGL@?$GAlocal?5vftable?5constructor?5closu@ 0046c050     LIBCMT:undname.obj
 0002:0000e074       ??_C@_0BA@KKLDJDLB@?$GAlocal?5vftable?8?$AA@ 0046c074     LIBCMT:undname.obj
 0002:0000e084       ??_C@_05KHLCHHI@?$GARTTI?$AA@ 0046c084     LIBCMT:undname.obj
 0002:0000e08c       ??_C@_03KLGMFNMG@?$GAEH?$AA@ 0046c08c     LIBCMT:undname.obj
 0002:0000e090       ??_C@_0BA@KBCDOMBN@?$GAudt?5returning?8?$AA@ 0046c090     LIBCMT:undname.obj
 0002:0000e0a0       ??_C@_0BL@LLKPOHJI@?$GAcopy?5constructor?5closure?8?$AA@ 0046c0a0     LIBCMT:undname.obj
 0002:0000e0bc       ??_C@_0CH@OOJPLCPH@?$GAeh?5vector?5vbase?5constructor?5ite@ 0046c0bc     LIBCMT:undname.obj
 0002:0000e0e4       ??_C@_0CA@GCEOPDGL@?$GAeh?5vector?5destructor?5iterator?8?$AA@ 0046c0e4     LIBCMT:undname.obj
 0002:0000e104       ??_C@_0CB@JONCMFFK@?$GAeh?5vector?5constructor?5iterator?8@ 0046c104     LIBCMT:undname.obj
 0002:0000e128       ??_C@_0BL@NILFHHPC@?$GAvirtual?5displacement?5map?8?$AA@ 0046c128     LIBCMT:undname.obj
 0002:0000e144       ??_C@_0CE@IKBNEHA@?$GAvector?5vbase?5constructor?5iterat@ 0046c144     LIBCMT:undname.obj
 0002:0000e168       ??_C@_0BN@LFPFMEDL@?$GAvector?5destructor?5iterator?8?$AA@ 0046c168     LIBCMT:undname.obj
 0002:0000e188       ??_C@_0BO@PFGOCPJJ@?$GAvector?5constructor?5iterator?8?$AA@ 0046c188     LIBCMT:undname.obj
 0002:0000e1a8       ??_C@_0BN@IMDCHIKM@?$GAscalar?5deleting?5destructor?8?$AA@ 0046c1a8     LIBCMT:undname.obj
 0002:0000e1c8       ??_C@_0BO@OBMKPJIG@?$GAdefault?5constructor?5closure?8?$AA@ 0046c1c8     LIBCMT:undname.obj
 0002:0000e1e8       ??_C@_0BN@DEGPLNFK@?$GAvector?5deleting?5destructor?8?$AA@ 0046c1e8     LIBCMT:undname.obj
 0002:0000e208       ??_C@_0BD@JDLKDPAB@?$GAvbase?5destructor?8?$AA@ 0046c208     LIBCMT:undname.obj
 0002:0000e21c       ??_C@_08OBABFOLI@?$GAstring?8?$AA@ 0046c21c     LIBCMT:undname.obj
 0002:0000e228       ??_C@_0BF@KDPPACIK@?$GAlocal?5static?5guard?8?$AA@ 0046c228     LIBCMT:undname.obj
 0002:0000e240       ??_C@_08LLFFHHDJ@?$GAtypeof?8?$AA@ 0046c240     LIBCMT:undname.obj
 0002:0000e24c       ??_C@_07FEEIOKP@?$GAvcall?8?$AA@ 0046c24c     LIBCMT:undname.obj
 0002:0000e254       ??_C@_09BLBHBJP@?$GAvbtable?8?$AA@ 0046c254     LIBCMT:undname.obj
 0002:0000e260       ??_C@_09IFPLHPGF@?$GAvftable?8?$AA@ 0046c260     LIBCMT:undname.obj
 0002:0000e26c       ??_C@_02MHEGNOJ@?$FO?$DN?$AA@ 0046c26c     LIBCMT:undname.obj
 0002:0000e270       ??_C@_02DHLNPPGH@?$HM?$DN?$AA@ 0046c270     LIBCMT:undname.obj
 0002:0000e274       ??_C@_02FGJGFEAB@?$CG?$DN?$AA@ 0046c274     LIBCMT:undname.obj
 0002:0000e278       ??_C@_03CDNPDDLA@?$DM?$DM?$DN?$AA@ 0046c278     LIBCMT:undname.obj
 0002:0000e27c       ??_C@_03IKFCCPFF@?$DO?$DO?$DN?$AA@ 0046c27c     LIBCMT:undname.obj
 0002:0000e280       ??_C@_02FENAOKFI@?$CF?$DN?$AA@ 0046c280     LIBCMT:undname.obj
 0002:0000e284       ??_C@_02FJEHGPIO@?1?$DN?$AA@ 0046c284     LIBCMT:undname.obj
 0002:0000e288       ??_C@_02FKMDLLOA@?9?$DN?$AA@ 0046c288     LIBCMT:undname.obj
 0002:0000e28c       ??_C@_02FOEOMHFC@?$CL?$DN?$AA@ 0046c28c     LIBCMT:undname.obj
 0002:0000e290       ??_C@_02FPIMKNGF@?$CK?$DN?$AA@ 0046c290     LIBCMT:undname.obj
 0002:0000e294       ??_C@_02NONPIBCD@?$HM?$HM?$AA@ 0046c294     LIBCMT:undname.obj
 0002:0000e298       ??_C@_02PPKAJPJL@?$CG?$CG?$AA@ 0046c298     LIBCMT:undname.obj
 0002:0000e29c       ??_C@_01DNKMNLPK@?$HM?$AA@ 0046c29c     LIBCMT:undname.obj
 0002:0000e2a0       ??_C@_01JKBOJNNK@?$FO?$AA@ 0046c2a0     LIBCMT:undname.obj
 0002:0000e2a4       ??_C@_01PJKLJHI@?$HO?$AA@  0046c2a4     LIBCMT:undname.obj
 0002:0000e2a8       ??_C@_02HCKGKOFO@?$CI?$CJ?$AA@ 0046c2a8     LIBCMT:undname.obj
 0002:0000e2ac       ??_C@_01IHBHIGKO@?0?$AA@   0046c2ac     LIBCMT:undname.obj
 0002:0000e2b0       ??_C@_02EEKDKGMJ@?$DO?$DN?$AA@ 0046c2b0     LIBCMT:undname.obj
 0002:0000e2b4       ??_C@_01PPODPGHN@?$DO?$AA@ 0046c2b4     LIBCMT:undname.obj
 0002:0000e2b8       ??_C@_02EHCHHCKH@?$DM?$DN?$AA@ 0046c2b8     LIBCMT:undname.obj
 0002:0000e2bc       ??_C@_01MNNFJEPP@?$DM?$AA@ 0046c2bc     LIBCMT:undname.obj
 0002:0000e2c0       ??_C@_01FGNFDNOH@?$CF?$AA@ 0046c2c0     LIBCMT:undname.obj
 0002:0000e2c4       ??_C@_03MNHNFDLC@?9?$DO?$CK?$AA@ 0046c2c4     LIBCMT:undname.obj
 0002:0000e2c8       ??_C@_01HNPIGOCE@?$CG?$AA@ 0046c2c8     LIBCMT:undname.obj
 0002:0000e2cc       ??_C@_01MIFGBAGJ@?$CL?$AA@ 0046c2cc     LIBCMT:undname.obj
 0002:0000e2d0       ??_C@_01JOAMLHOP@?9?$AA@   0046c2d0     LIBCMT:undname.obj
 0002:0000e2d4       ??_C@_02BAABKJLB@?9?9?$AA@ 0046c2d4     LIBCMT:undname.obj
 0002:0000e2d8       ??_C@_02ECNGHCIF@?$CL?$CL?$AA@ 0046c2d8     LIBCMT:undname.obj
 0002:0000e2dc       ??_C@_02HBOOOICD@?9?$DO?$AA@ 0046c2dc     LIBCMT:undname.obj
 0002:0000e2e0       ??_C@_08LHJFAFGD@operator?$AA@ 0046c2e0     LIBCMT:undname.obj
 0002:0000e2ec       ??_C@_02GPECMEKF@?$FL?$FN?$AA@ 0046c2ec     LIBCMT:undname.obj
 0002:0000e2f0       ??_C@_02FDNJECIE@?$CB?$DN?$AA@ 0046c2f0     LIBCMT:undname.obj
 0002:0000e2f4       ??_C@_02EGOFBIJA@?$DN?$DN?$AA@ 0046c2f4     LIBCMT:undname.obj
 0002:0000e2f8       ??_C@_01DCLJPIOD@?$CB?$AA@ 0046c2f8     LIBCMT:undname.obj
 0002:0000e2fc       ??_C@_02FODMEDOG@?$DM?$DM?$AA@ 0046c2fc     LIBCMT:undname.obj
 0002:0000e300       ??_C@_02GPIOPFAK@?$DO?$DO?$AA@ 0046c300     LIBCMT:undname.obj
 0002:0000e304       ??_C@_07FPCDHGMM@?5delete?$AA@ 0046c304     LIBCMT:undname.obj
 0002:0000e30c       ??_C@_04NIHEBCM@?5new?$AA@ 0046c30c     LIBCMT:undname.obj
 0002:0000e314       ??_C@_0M@GFIIJFMG@__unaligned?$AA@ 0046c314     LIBCMT:undname.obj
 0002:0000e320       ??_C@_0L@PILCLIHE@__restrict?$AA@ 0046c320     LIBCMT:undname.obj
 0002:0000e32c       ??_C@_07JOMMBBKO@__ptr64?$AA@ 0046c32c     LIBCMT:undname.obj
 0002:0000e334       ??_C@_09HIJEGCPM@__clrcall?$AA@ 0046c334     LIBCMT:undname.obj
 0002:0000e340       ??_C@_0L@JMKHOMEK@__fastcall?$AA@ 0046c340     LIBCMT:undname.obj
 0002:0000e34c       ??_C@_0L@NPHFGOKO@__thiscall?$AA@ 0046c34c     LIBCMT:undname.obj
 0002:0000e358       ??_C@_09IFJBGAPI@__stdcall?$AA@ 0046c358     LIBCMT:undname.obj
 0002:0000e364       ??_C@_08GHMPAG@__pascal?$AA@ 0046c364     LIBCMT:undname.obj
 0002:0000e370       ??_C@_07KOLFKCDI@__cdecl?$AA@ 0046c370     LIBCMT:undname.obj
 0002:0000e378       ??_C@_08EHJDFFNH@__based?$CI?$AA@ 0046c378     LIBCMT:undname.obj
 0002:0000e508       ??_7DNameNode@@6B@         0046c508     LIBCMT:undname.obj
 0002:0000e514       ??_7charNode@@6B@          0046c514     LIBCMT:undname.obj
 0002:0000e520       ??_7pDNameNode@@6B@        0046c520     LIBCMT:undname.obj
 0002:0000e52c       ??_7DNameStatusNode@@6B@   0046c52c     LIBCMT:undname.obj
 0002:0000e538       ??_7pairNode@@6B@          0046c538     LIBCMT:undname.obj
 0002:0000e544       ??_7pcharNode@@6B@         0046c544     LIBCMT:undname.obj
 0002:0000e550       ??_C@_04OKOHEJBO@?5?$DP?$DP?5?$AA@ 0046c550     LIBCMT:undname.obj
 0002:0000e558       ??_C@_06EEGAIFAK@?$HLflat?$HN?$AA@ 0046c558     LIBCMT:undname.obj
 0002:0000e560       ??_C@_05JIBOFOHK@?$HLfor?5?$AA@ 0046c560     LIBCMT:undname.obj
 0002:0000e568       ??_C@_0BN@IBLMMFAP@?$GAnon?9type?9template?9parameter?$AA@ 0046c568     LIBCMT:undname.obj
 0002:0000e588       ??_C@_09EBBEKKIH@unsigned?5?$AA@ 0046c588     LIBCMT:undname.obj
 0002:0000e594       ??_C@_05CJIMAING@long?5?$AA@ 0046c594     LIBCMT:undname.obj
 0002:0000e59c       ??_C@_04LAHKHJMA@int?5?$AA@ 0046c59c     LIBCMT:undname.obj
 0002:0000e5a4       ??_C@_06EHJMALKF@short?5?$AA@ 0046c5a4     LIBCMT:undname.obj
 0002:0000e5ac       ??_C@_05CIHEBHNO@char?5?$AA@ 0046c5ac     LIBCMT:undname.obj
 0002:0000e5b4       ??_C@_04GKJNKENE@void?$AA@ 0046c5b4     LIBCMT:undname.obj
 0002:0000e5bc       ??_C@_0L@EGPHHEKN@?$DMellipsis?$DO?$AA@ 0046c5bc     LIBCMT:undname.obj
 0002:0000e5c8       ??_C@_0M@ELJOJFFH@?0?$DMellipsis?$DO?$AA@ 0046c5c8     LIBCMT:undname.obj
 0002:0000e5d4       ??_C@_04EENFHACM@?0?4?4?4?$AA@ 0046c5d4     LIBCMT:undname.obj
 0002:0000e5dc       ??_C@_07HDJPLPEK@?5throw?$CI?$AA@ 0046c5dc     LIBCMT:undname.obj
 0002:0000e5e4       ??_C@_02GOGNNPBN@?$CJ?$FL?$AA@ 0046c5e4     LIBCMT:undname.obj
 0002:0000e5e8       ??_C@_02MDINNEEG@s?5?$AA@  0046c5e8     LIBCMT:undname.obj
 0002:0000e5ec       ??_C@_0BE@EODMJLIF@?$GAtemplate?9parameter?$AA@ 0046c5ec     LIBCMT:undname.obj
 0002:0000e600       ??_C@_01GEODFPGF@?8?$AA@   0046c600     LIBCMT:undname.obj
 0002:0000e604       ??_C@_04HIBGFPH@NULL?$AA@  0046c604     LIBCMT:undname.obj
 0002:0000e60c       ??_C@_0O@GKABPPIF@cli?3?3pin_ptr?$DM?$AA@ 0046c60c     LIBCMT:undname.obj
 0002:0000e61c       ??_C@_0M@EALIELKG@cli?3?3array?$DM?$AA@ 0046c61c     LIBCMT:undname.obj
 0002:0000e628       ??_C@_05BEFAKPML@void?5?$AA@ 0046c628     LIBCMT:undname.obj
 0002:0000e630       ??_C@_02OHHJMEON@?8?8?$AA@ 0046c630     LIBCMT:undname.obj
 0002:0000e634       ??_C@_0BG@JNJLAMPM@?$GAanonymous?5namespace?8?$AA@ 0046c634     LIBCMT:undname.obj
 0002:0000e64c       ??_C@_01NLNLIGKH@?$GA?$AA@ 0046c64c     LIBCMT:undname.obj
 0002:0000e650       ??_C@_0O@KHGCOMHP@generic?9type?9?$AA@ 0046c650     LIBCMT:undname.obj
 0002:0000e660       ??_C@_0BE@JAEOCHPE@template?9parameter?9?$AA@ 0046c660     LIBCMT:undname.obj
 0002:0000e674       ??_C@_02MOLJINC@?3?3?$AA@  0046c674     LIBCMT:undname.obj
 0002:0000e678       ??_C@_0P@GCIFDJCJ@?$GAunknown?5ecsu?8?$AA@ 0046c678     LIBCMT:undname.obj
 0002:0000e688       ??_C@_06MOJHIBMG@union?5?$AA@ 0046c688     LIBCMT:undname.obj
 0002:0000e690       ??_C@_07DIBCDNGL@struct?5?$AA@ 0046c690     LIBCMT:undname.obj
 0002:0000e698       ??_C@_06LJBABKPM@class?5?$AA@ 0046c698     LIBCMT:undname.obj
 0002:0000e6a0       ??_C@_05LJGMCFOG@enum?5?$AA@ 0046c6a0     LIBCMT:undname.obj
 0002:0000e6a8       ??_C@_08KOFANOFK@coclass?5?$AA@ 0046c6a8     LIBCMT:undname.obj
 0002:0000e6b4       ??_C@_0N@DLIEFKNA@cointerface?5?$AA@ 0046c6b4     LIBCMT:undname.obj
 0002:0000e6c4       ??_C@_02KCKGHPCA@?$CJ?5?$AA@ 0046c6c4     LIBCMT:undname.obj
 0002:0000e6c8       ??_C@_0M@DHNBOJMP@extern?5?$CCC?$CC?5?$AA@ 0046c6c8     LIBCMT:undname.obj
 0002:0000e6d4       ??_C@_08KJLFOPNE@?$FLthunk?$FN?3?$AA@ 0046c6d4     LIBCMT:undname.obj
 0002:0000e6e0       ??_C@_08GPDDCMKI@public?3?5?$AA@ 0046c6e0     LIBCMT:undname.obj
 0002:0000e6ec       ??_C@_0M@GAIFPFIP@protected?3?5?$AA@ 0046c6ec     LIBCMT:undname.obj
 0002:0000e6f8       ??_C@_09LAPHOOG@private?3?5?$AA@ 0046c6f8     LIBCMT:undname.obj
 0002:0000e704       ??_C@_08NIEOINHE@virtual?5?$AA@ 0046c704     LIBCMT:undname.obj
 0002:0000e710       ??_C@_07PGOEDBHP@static?5?$AA@ 0046c710     LIBCMT:undname.obj
 0002:0000e718       ??_C@_0DA@HGFJFBBE@?$GAtemplate?5static?5data?5member?5des@ 0046c718     LIBCMT:undname.obj
 0002:0000e748       ??_C@_0DB@ILEFOCIJ@?$GAtemplate?5static?5data?5member?5con@ 0046c748     LIBCMT:undname.obj
 0002:0000e77c       ??_C@_0CB@KJDOOODE@?$GAlocal?5static?5destructor?5helper?8@ 0046c77c     LIBCMT:undname.obj
 0002:0000e7a0       ??_C@_0L@HNGCOGAE@?$GAadjustor?$HL?$AA@ 0046c7a0     LIBCMT:undname.obj
 0002:0000e7ac       ??_C@_0L@GHPFDFH@?$GAvtordisp?$HL?$AA@ 0046c7ac     LIBCMT:undname.obj
 0002:0000e7b8       ??_C@_0N@CBHHHENL@?$GAvtordispex?$HL?$AA@ 0046c7b8     LIBCMT:undname.obj
 0002:0000e7c8       ??_C@_02IGFCGPIL@?$HN?8?$AA@ 0046c7c8     LIBCMT:undname.obj
 0002:0000e7cc       ??_C@_03OPGICMGF@?$HN?8?5?$AA@ 0046c7cc     LIBCMT:undname.obj
 0002:0000e7d0       ??_C@_06LIJLOJAG@const?5?$AA@ 0046c7d0     LIBCMT:undname.obj
 0002:0000e7d8       ??_C@_09GAIEOBLP@volatile?5?$AA@ 0046c7d8     LIBCMT:undname.obj
 0002:0000e7e4       ??_C@_04HEJADOOB@CV?3?5?$AA@ 0046c7e4     LIBCMT:undname.obj
 0002:0000e7ec       ??_C@_08PABEKFH@volatile?$AA@ 0046c7ec     LIBCMT:undname.obj
 0002:0000e7f8       ??_C@_09EFNPDFFP@?5volatile?$AA@ 0046c7f8     LIBCMT:undname.obj
 0002:0000e804       ??_C@_05BNCCCJPP@const?$AA@ 0046c804     LIBCMT:undname.obj
 0002:0000e80c       ??_C@_07EDHNAJHC@signed?5?$AA@ 0046c80c     LIBCMT:undname.obj
 0002:0000e814       ??_C@_06BNJCAIGJ@double?$AA@ 0046c814     LIBCMT:undname.obj
 0002:0000e81c       ??_C@_07NFANNNEC@UNKNOWN?$AA@ 0046c81c     LIBCMT:undname.obj
 0002:0000e824       ??_C@_08GAHOLHEO@__int128?$AA@ 0046c824     LIBCMT:undname.obj
 0002:0000e830       ??_C@_04DDKJGDCM@bool?$AA@ 0046c830     LIBCMT:undname.obj
 0002:0000e838       ??_C@_07CLGGIAMF@wchar_t?$AA@ 0046c838     LIBCMT:undname.obj
 0002:0000e840       ??_C@_07LFCOJCAC@__int64?$AA@ 0046c840     LIBCMT:undname.obj
 0002:0000e848       ??_C@_07ICFHOGAF@__int16?$AA@ 0046c848     LIBCMT:undname.obj
 0002:0000e850       ??_C@_07OFLPPHGP@__int32?$AA@ 0046c850     LIBCMT:undname.obj
 0002:0000e858       ??_C@_06EBGKOKIG@__int8?$AA@ 0046c858     LIBCMT:undname.obj
 0002:0000e860       ??_C@_06GCICPBLB@__w64?5?$AA@ 0046c860     LIBCMT:undname.obj
 0002:0000e868       ??_C@_05KNFBNCOH@float?$AA@ 0046c868     LIBCMT:undname.obj
 0002:0000e870       ??_C@_04GOKPGOLB@long?$AA@ 0046c870     LIBCMT:undname.obj
 0002:0000e878       ??_C@_03JBIPMCLC@int?$AA@  0046c878     LIBCMT:undname.obj
 0002:0000e87c       ??_C@_05BFKKPKCG@short?$AA@ 0046c87c     LIBCMT:undname.obj
 0002:0000e884       ??_C@_04ENMBGAPA@char?$AA@ 0046c884     LIBCMT:undname.obj
 0002:0000e890       ___lookuptable_s           0046c890     LIBCMT:outputs.obj
 0002:0000e8ec       ??_C@_0BI@DFKBFLJE@GetProcessWindowStation?$AA@ 0046c8ec     LIBCMT:crtmbox.obj
 0002:0000e904       ??_C@_0BK@CIDNPOGP@GetUserObjectInformationA?$AA@ 0046c904     LIBCMT:crtmbox.obj
 0002:0000e920       ??_C@_0BD@HHGDFDBJ@GetLastActivePopup?$AA@ 0046c920     LIBCMT:crtmbox.obj
 0002:0000e934       ??_C@_0BA@HNOPNCHB@GetActiveWindow?$AA@ 0046c934     LIBCMT:crtmbox.obj
 0002:0000e944       ??_C@_0M@CHKKJDAI@MessageBoxA?$AA@ 0046c944     LIBCMT:crtmbox.obj
 0002:0000e950       ??_C@_0L@NDEGIDAG@USER32?4DLL?$AA@ 0046c950     LIBCMT:crtmbox.obj
 0002:0000e95c       ??_C@_0L@KDOEJCKC@_nextafter?$AA@ 0046c95c     LIBCMT:_fpexcept_.obj
 0002:0000e968       ??_C@_05JGDBENOH@_logb?$AA@ 0046c968     LIBCMT:_fpexcept_.obj
 0002:0000e970       ??_C@_03ONILCKOB@_yn?$AA@  0046c970     LIBCMT:_fpexcept_.obj
 0002:0000e974       ??_C@_03NAKIGLHK@_y1?$AA@  0046c974     LIBCMT:_fpexcept_.obj
 0002:0000e978       ??_C@_03MJLDFKDL@_y0?$AA@  0046c978     LIBCMT:_fpexcept_.obj
 0002:0000e97c       ??_C@_05GKKHEGJL@frexp?$AA@ 0046c97c     LIBCMT:_fpexcept_.obj
 0002:0000e984       ??_C@_04KEPJIHGP@fmod?$AA@ 0046c984     LIBCMT:_fpexcept_.obj
 0002:0000e98c       ??_C@_06MEIMCGCF@_hypot?$AA@ 0046c98c     LIBCMT:_fpexcept_.obj
 0002:0000e994       ??_C@_05KBKMEMPO@_cabs?$AA@ 0046c994     LIBCMT:_fpexcept_.obj
 0002:0000e99c       ??_C@_05CEJMAHNP@ldexp?$AA@ 0046c99c     LIBCMT:_fpexcept_.obj
 0002:0000e9a4       ??_C@_04ODHECPBC@fabs?$AA@ 0046c9a4     LIBCMT:_fpexcept_.obj
 0002:0000e9ac       ??_C@_04EIAKFFMI@sqrt?$AA@ 0046c9ac     LIBCMT:_fpexcept_.obj
 0002:0000e9b4       ??_C@_05KNGEOGJB@atan2?$AA@ 0046c9b4     LIBCMT:_fpexcept_.obj
 0002:0000e9bc       ??_C@_04FJHINJAO@tanh?$AA@ 0046c9bc     LIBCMT:_fpexcept_.obj
 0002:0000e9c4       ??_C@_04HPJJNFIM@cosh?$AA@ 0046c9c4     LIBCMT:_fpexcept_.obj
 0002:0000e9cc       ??_C@_04COOMCNPB@sinh?$AA@ 0046c9cc     LIBCMT:_fpexcept_.obj
 0002:0000e9d4       ___dnames                  0046c9d4     LIBCMT:timeset.obj
 0002:0000e9ec       ___mnames                  0046c9ec     LIBCMT:timeset.obj
 0002:0000ea14       ??_C@_02CLFPBFFP@TZ?$AA@   0046ca14     LIBCMT:tzset.obj
 0002:0000ea18       ??_C@_06IMKFLFPG@1?$CDQNAN?$AA@ 0046ca18     LIBCMT:_x10fout_.obj
 0002:0000ea20       ??_C@_05DNEBIAHO@1?$CDINF?$AA@ 0046ca20     LIBCMT:_x10fout_.obj
 0002:0000ea28       ??_C@_05PHHOCPM@1?$CDIND?$AA@ 0046ca28     LIBCMT:_x10fout_.obj
 0002:0000ea30       ??_C@_06PGGFOGJG@1?$CDSNAN?$AA@ 0046ca30     LIBCMT:_x10fout_.obj
 0002:0000ea38       ??_C@_06GDENEHCP@CONIN$?$AA@ 0046ca38     LIBCMT:initcon.obj
 0002:0000ea40       ??_C@_07GPDNMNG@CONOUT$?$AA@ 0046ca40     LIBCMT:initcon.obj
 0002:0000ea48       __load_config_used         0046ca48     LIBCMT:loadcfg.obj
 0002:0000eb04       ??_R4bad_alloc@std@@6B@    0046cb04     animation.obj
 0002:0000eb18       ??_R3bad_alloc@std@@8      0046cb18     animation.obj
 0002:0000eb28       ??_R2bad_alloc@std@@8      0046cb28     animation.obj
 0002:0000eb34       ??_R1A@?0A@EA@bad_alloc@std@@8 0046cb34     animation.obj
 0002:0000eb50       ??_R1A@?0A@EA@exception@std@@8 0046cb50     animation.obj
 0002:0000eb6c       ??_R3exception@std@@8      0046cb6c     animation.obj
 0002:0000eb7c       ??_R2exception@std@@8      0046cb7c     animation.obj
 0002:0000eb84       ??_R4logic_error@std@@6B@  0046cb84     animation.obj
 0002:0000eb98       ??_R3logic_error@std@@8    0046cb98     animation.obj
 0002:0000eba8       ??_R2logic_error@std@@8    0046cba8     animation.obj
 0002:0000ebb4       ??_R1A@?0A@EA@logic_error@std@@8 0046cbb4     animation.obj
 0002:0000ebd0       ??_R4length_error@std@@6B@ 0046cbd0     animation.obj
 0002:0000ebe4       ??_R3length_error@std@@8   0046cbe4     animation.obj
 0002:0000ebf4       ??_R2length_error@std@@8   0046cbf4     animation.obj
 0002:0000ec04       ??_R1A@?0A@EA@length_error@std@@8 0046cc04     animation.obj
 0002:0000ec20       ??_R4out_of_range@std@@6B@ 0046cc20     animation.obj
 0002:0000ec34       ??_R3out_of_range@std@@8   0046cc34     animation.obj
 0002:0000ec44       ??_R2out_of_range@std@@8   0046cc44     animation.obj
 0002:0000ec54       ??_R1A@?0A@EA@out_of_range@std@@8 0046cc54     animation.obj
 0002:0000ec70       ??_R4KeyComparatorInfo@@6B@ 0046cc70     md3view.obj
 0002:0000ec84       ??_R3KeyComparatorInfo@@8  0046cc84     md3view.obj
 0002:0000ec94       ??_R2KeyComparatorInfo@@8  0046cc94     md3view.obj
 0002:0000ec9c       ??_R1A@?0A@EA@KeyComparatorInfo@@8 0046cc9c     md3view.obj
 0002:0000ecb8       ??_R4StrKeyComparatorInfo@@6B@ 0046ccb8     md3view.obj
 0002:0000eccc       ??_R3StrKeyComparatorInfo@@8 0046cccc     md3view.obj
 0002:0000ecdc       ??_R2StrKeyComparatorInfo@@8 0046ccdc     md3view.obj
 0002:0000ece8       ??_R1A@?0A@EA@StrKeyComparatorInfo@@8 0046cce8     md3view.obj
 0002:0000ed04       ??_R4facet@locale@std@@6B@ 0046cd04     nodedictionary.obj
 0002:0000ed18       ??_R3facet@locale@std@@8   0046cd18     nodedictionary.obj
 0002:0000ed28       ??_R2facet@locale@std@@8   0046cd28     nodedictionary.obj
 0002:0000ed30       ??_R1A@?0A@EA@facet@locale@std@@8 0046cd30     nodedictionary.obj
 0002:0000ed4c       ??_R4?$num_put@DV?$ostreambuf_iterator@DU?$char_traits@D@std@@@std@@@std@@6B@ 0046cd4c     nodedictionary.obj
 0002:0000ed60       ??_R3?$num_put@DV?$ostreambuf_iterator@DU?$char_traits@D@std@@@std@@@std@@8 0046cd60     nodedictionary.obj
 0002:0000ed70       ??_R2?$num_put@DV?$ostreambuf_iterator@DU?$char_traits@D@std@@@std@@@std@@8 0046cd70     nodedictionary.obj
 0002:0000ed7c       ??_R1A@?0A@EA@?$num_put@DV?$ostreambuf_iterator@DU?$char_traits@D@std@@@std@@@std@@8 0046cd7c     nodedictionary.obj
 0002:0000ed98       ??_R4?$numpunct@D@std@@6B@ 0046cd98     nodedictionary.obj
 0002:0000edac       ??_R3?$numpunct@D@std@@8   0046cdac     nodedictionary.obj
 0002:0000edbc       ??_R2?$numpunct@D@std@@8   0046cdbc     nodedictionary.obj
 0002:0000edc8       ??_R1A@?0A@EA@?$numpunct@D@std@@8 0046cdc8     nodedictionary.obj
 0002:0000ede4       ??_R4runtime_error@std@@6B@ 0046cde4     nodedictionary.obj
 0002:0000edf8       ??_R3runtime_error@std@@8  0046cdf8     nodedictionary.obj
 0002:0000ee08       ??_R2runtime_error@std@@8  0046ce08     nodedictionary.obj
 0002:0000ee14       ??_R1A@?0A@EA@runtime_error@std@@8 0046ce14     nodedictionary.obj
 0002:0000ee30       ??_R4failure@ios_base@std@@6B@ 0046ce30     nodedictionary.obj
 0002:0000ee44       ??_R3failure@ios_base@std@@8 0046ce44     nodedictionary.obj
 0002:0000ee54       ??_R2failure@ios_base@std@@8 0046ce54     nodedictionary.obj
 0002:0000ee64       ??_R1A@?0A@EA@failure@ios_base@std@@8 0046ce64     nodedictionary.obj
 0002:0000ee80       ??_R4invalid_argument@std@@6B@ 0046ce80     libcpmt:string.obj
 0002:0000ee94       ??_R3invalid_argument@std@@8 0046ce94     libcpmt:string.obj
 0002:0000eea4       ??_R2invalid_argument@std@@8 0046cea4     libcpmt:string.obj
 0002:0000eeb4       ??_R1A@?0A@EA@invalid_argument@std@@8 0046ceb4     libcpmt:string.obj
 0002:0000eed0       ??_R4_Locimp@locale@std@@6B@ 0046ced0     libcpmt:locale0.obj
 0002:0000eee4       ??_R3_Locimp@locale@std@@8 0046cee4     libcpmt:locale0.obj
 0002:0000eef4       ??_R2_Locimp@locale@std@@8 0046cef4     libcpmt:locale0.obj
 0002:0000ef00       ??_R1A@?0A@EA@_Locimp@locale@std@@8 0046cf00     libcpmt:locale0.obj
 0002:0000ef1c       ??_R4ctype_base@std@@6B@   0046cf1c     libcpmt:cout.obj
 0002:0000ef30       ??_R3ctype_base@std@@8     0046cf30     libcpmt:cout.obj
 0002:0000ef40       ??_R2ctype_base@std@@8     0046cf40     libcpmt:cout.obj
 0002:0000ef4c       ??_R1A@?0A@EA@ctype_base@std@@8 0046cf4c     libcpmt:cout.obj
 0002:0000ef68       ??_R4ios_base@std@@6B@     0046cf68     libcpmt:cout.obj
 0002:0000ef7c       ??_R3ios_base@std@@8       0046cf7c     libcpmt:cout.obj
 0002:0000ef8c       ??_R2ios_base@std@@8       0046cf8c     libcpmt:cout.obj
 0002:0000ef98       ??_R1A@?0A@EA@ios_base@std@@8 0046cf98     libcpmt:cout.obj
 0002:0000efb4       ??_R13?0A@EA@?$_Iosb@H@std@@8 0046cfb4     libcpmt:cout.obj
 0002:0000efd0       ??_R3?$_Iosb@H@std@@8      0046cfd0     libcpmt:cout.obj
 0002:0000efe0       ??_R2?$_Iosb@H@std@@8      0046cfe0     libcpmt:cout.obj
 0002:0000efe8       ??_R1A@?0A@EA@?$_Iosb@H@std@@8 0046cfe8     libcpmt:cout.obj
 0002:0000f004       ??_R4?$basic_ostream@DU?$char_traits@D@std@@@std@@6B@ 0046d004     libcpmt:cout.obj
 0002:0000f018       ??_R3?$basic_ostream@DU?$char_traits@D@std@@@std@@8 0046d018     libcpmt:cout.obj
 0002:0000f028       ??_R2?$basic_ostream@DU?$char_traits@D@std@@@std@@8 0046d028     libcpmt:cout.obj
 0002:0000f03c       ??_R1A@?0A@EA@?$basic_ostream@DU?$char_traits@D@std@@@std@@8 0046d03c     libcpmt:cout.obj
 0002:0000f058       ??_R1A@A@3FA@?$basic_ios@DU?$char_traits@D@std@@@std@@8 0046d058     libcpmt:cout.obj
 0002:0000f074       ??_R3?$basic_ios@DU?$char_traits@D@std@@@std@@8 0046d074     libcpmt:cout.obj
 0002:0000f084       ??_R2?$basic_ios@DU?$char_traits@D@std@@@std@@8 0046d084     libcpmt:cout.obj
 0002:0000f094       ??_R1A@?0A@EA@?$basic_ios@DU?$char_traits@D@std@@@std@@8 0046d094     libcpmt:cout.obj
 0002:0000f0b0       ??_R1A@A@3EA@ios_base@std@@8 0046d0b0     libcpmt:cout.obj
 0002:0000f0cc       ??_R13A@3EA@?$_Iosb@H@std@@8 0046d0cc     libcpmt:cout.obj
 0002:0000f0e8       ??_R4?$basic_ios@DU?$char_traits@D@std@@@std@@6B@ 0046d0e8     libcpmt:cout.obj
 0002:0000f0fc       ??_R4?$ctype@D@std@@6B@    0046d0fc     libcpmt:cout.obj
 0002:0000f110       ??_R3?$ctype@D@std@@8      0046d110     libcpmt:cout.obj
 0002:0000f120       ??_R2?$ctype@D@std@@8      0046d120     libcpmt:cout.obj
 0002:0000f130       ??_R1A@?0A@EA@?$ctype@D@std@@8 0046d130     libcpmt:cout.obj
 0002:0000f14c       ??_R4?$basic_streambuf@DU?$char_traits@D@std@@@std@@6B@ 0046d14c     libcpmt:cout.obj
 0002:0000f160       ??_R3?$basic_streambuf@DU?$char_traits@D@std@@@std@@8 0046d160     libcpmt:cout.obj
 0002:0000f170       ??_R2?$basic_streambuf@DU?$char_traits@D@std@@@std@@8 0046d170     libcpmt:cout.obj
 0002:0000f178       ??_R1A@?0A@EA@?$basic_streambuf@DU?$char_traits@D@std@@@std@@8 0046d178     libcpmt:cout.obj
 0002:0000f194       ??_R4?$basic_filebuf@DU?$char_traits@D@std@@@std@@6B@ 0046d194     libcpmt:cout.obj
 0002:0000f1a8       ??_R3?$basic_filebuf@DU?$char_traits@D@std@@@std@@8 0046d1a8     libcpmt:cout.obj
 0002:0000f1b8       ??_R2?$basic_filebuf@DU?$char_traits@D@std@@@std@@8 0046d1b8     libcpmt:cout.obj
 0002:0000f1c4       ??_R1A@?0A@EA@?$basic_filebuf@DU?$char_traits@D@std@@@std@@8 0046d1c4     libcpmt:cout.obj
 0002:0000f1e0       ??_R4codecvt_base@std@@6B@ 0046d1e0     libcpmt:cout.obj
 0002:0000f1f4       ??_R3codecvt_base@std@@8   0046d1f4     libcpmt:cout.obj
 0002:0000f204       ??_R2codecvt_base@std@@8   0046d204     libcpmt:cout.obj
 0002:0000f210       ??_R1A@?0A@EA@codecvt_base@std@@8 0046d210     libcpmt:cout.obj
 0002:0000f22c       ??_R4?$codecvt@DDH@std@@6B@ 0046d22c     libcpmt:cout.obj
 0002:0000f240       ??_R3?$codecvt@DDH@std@@8  0046d240     libcpmt:cout.obj
 0002:0000f250       ??_R2?$codecvt@DDH@std@@8  0046d250     libcpmt:cout.obj
 0002:0000f260       ??_R1A@?0A@EA@?$codecvt@DDH@std@@8 0046d260     libcpmt:cout.obj
 0002:0000f27c       ??_R4exception@std@@6B@    0046d27c     LIBCMT:stdexcpt.obj
 0002:0000f290       ??_R4bad_cast@std@@6B@     0046d290     LIBCMT:stdexcpt.obj
 0002:0000f2a4       ??_R3bad_cast@std@@8       0046d2a4     LIBCMT:stdexcpt.obj
 0002:0000f2b4       ??_R2bad_cast@std@@8       0046d2b4     LIBCMT:stdexcpt.obj
 0002:0000f2c0       ??_R1A@?0A@EA@bad_cast@std@@8 0046d2c0     LIBCMT:stdexcpt.obj
 0002:0000f2dc       ??_R4bad_typeid@std@@6B@   0046d2dc     LIBCMT:stdexcpt.obj
 0002:0000f2f0       ??_R3bad_typeid@std@@8     0046d2f0     LIBCMT:stdexcpt.obj
 0002:0000f300       ??_R2bad_typeid@std@@8     0046d300     LIBCMT:stdexcpt.obj
 0002:0000f30c       ??_R1A@?0A@EA@bad_typeid@std@@8 0046d30c     LIBCMT:stdexcpt.obj
 0002:0000f328       ??_R4__non_rtti_object@std@@6B@ 0046d328     LIBCMT:stdexcpt.obj
 0002:0000f33c       ??_R3__non_rtti_object@std@@8 0046d33c     LIBCMT:stdexcpt.obj
 0002:0000f34c       ??_R2__non_rtti_object@std@@8 0046d34c     LIBCMT:stdexcpt.obj
 0002:0000f35c       ??_R1A@?0A@EA@__non_rtti_object@std@@8 0046d35c     LIBCMT:stdexcpt.obj
 0002:0000f378       ??_R4type_info@@6B@        0046d378     LIBCMT:typinfo.obj
 0002:0000f38c       ??_R3type_info@@8          0046d38c     LIBCMT:typinfo.obj
 0002:0000f39c       ??_R2type_info@@8          0046d39c     LIBCMT:typinfo.obj
 0002:0000f3a4       ??_R1A@?0A@EA@type_info@@8 0046d3a4     LIBCMT:typinfo.obj
 0002:0000f3c0       ??_R4bad_exception@std@@6B@ 0046d3c0     LIBCMT:frame.obj
 0002:0000f3d4       ??_R3bad_exception@std@@8  0046d3d4     LIBCMT:frame.obj
 0002:0000f3e4       ??_R2bad_exception@std@@8  0046d3e4     LIBCMT:frame.obj
 0002:0000f3f0       ??_R1A@?0A@EA@bad_exception@std@@8 0046d3f0     LIBCMT:frame.obj
 0002:0000f410       ___safe_se_handler_table   0046d410     <linker-defined>
 0002:0000f544       ___rtc_iaa                 0046d544     LIBCMT:_initsect_.obj
 0002:0000f548       ___rtc_izz                 0046d548     LIBCMT:_initsect_.obj
 0002:0000f54c       ___rtc_taa                 0046d54c     LIBCMT:_initsect_.obj
 0002:0000f550       ___rtc_tzz                 0046d550     LIBCMT:_initsect_.obj
 0002:0000f558       __TI2?AVbad_alloc@std@@    0046d558     animation.obj
 0002:0000f568       __CTA2?AVbad_alloc@std@@   0046d568     animation.obj
 0002:0000f574       __CT??_R0?AVbad_alloc@std@@@8??0bad_alloc@std@@QAE@ABV01@@Z12 0046d574     animation.obj
 0002:0000f590       __CT??_R0?AVexception@std@@@8??0exception@std@@QAE@ABV01@@Z12 0046d590     animation.obj
 0002:0000f690       __TI3?AVout_of_range@std@@ 0046d690     animation.obj
 0002:0000f6cc       __CTA3?AVout_of_range@std@@ 0046d6cc     animation.obj
 0002:0000f6dc       __CT??_R0?AVout_of_range@std@@@8??0out_of_range@std@@QAE@ABV01@@Z40 0046d6dc     animation.obj
 0002:0000f6f8       __CT??_R0?AVlogic_error@std@@@8??0logic_error@std@@QAE@ABV01@@Z40 0046d6f8     animation.obj
 0002:0000f740       __TI3?AVlength_error@std@@ 0046d740     animation.obj
 0002:0000f77c       __CTA3?AVlength_error@std@@ 0046d77c     animation.obj
 0002:0000f78c       __CT??_R0?AVlength_error@std@@@8??0length_error@std@@QAE@ABV01@@Z40 0046d78c     animation.obj
 0002:0000faac       __TI2CPAD                  0046daac     jpeg_interface.obj
 0002:0000fabc       __CTA2PAD                  0046dabc     jpeg_interface.obj
 0002:0000fac8       __CT??_R0PAD@84            0046dac8     jpeg_interface.obj
 0002:0000fae4       __CT??_R0PAX@84            0046dae4     jpeg_interface.obj
 0002:0000ff60       __TI3?AVfailure@ios_base@std@@ 0046df60     nodedictionary.obj
 0002:0000ffac       __CTA3?AVfailure@ios_base@std@@ 0046dfac     nodedictionary.obj
 0002:0000ffbc       __CT??_R0?AVfailure@ios_base@std@@@8??0failure@ios_base@std@@QAE@ABV012@@Z40 0046dfbc     nodedictionary.obj
 0002:0000ffd8       __CT??_R0?AVruntime_error@std@@@8??0runtime_error@std@@QAE@ABV01@@Z40 0046dfd8     nodedictionary.obj
 0002:00010020       __TI2?AVbad_cast@std@@     0046e020     nodedictionary.obj
 0002:0001005c       __CTA2?AVbad_cast@std@@    0046e05c     nodedictionary.obj
 0002:00010068       __CT??_R0?AVbad_cast@std@@@8??0bad_cast@std@@QAE@ABV01@@Z12 0046e068     nodedictionary.obj
 0002:000104b4       __TI3?AVinvalid_argument@std@@ 0046e4b4     libcpmt:string.obj
 0002:000104f0       __CTA3?AVinvalid_argument@std@@ 0046e4f0     libcpmt:string.obj
 0002:00010500       __CT??_R0?AVinvalid_argument@std@@@8??0invalid_argument@std@@QAE@ABV01@@Z40 0046e500     libcpmt:string.obj
 0002:00010d04       __TI2?AVbad_exception@std@@ 0046ed04     LIBCMT:frame.obj
 0002:00010d14       __CTA2?AVbad_exception@std@@ 0046ed14     LIBCMT:frame.obj
 0002:00010d20       __CT??_R0?AVbad_exception@std@@@8??0bad_exception@std@@QAE@ABV01@@Z12 0046ed20     LIBCMT:frame.obj
 0002:0001141c       __IMPORT_DESCRIPTOR_GLU32  0046f41c     glu32:GLU32.dll
 0002:00011430       __IMPORT_DESCRIPTOR_OPENGL32 0046f430     opengl32:OPENGL32.dll
 0002:00011444       __IMPORT_DESCRIPTOR_KERNEL32 0046f444     kernel32:KERNEL32.dll
 0002:00011458       __IMPORT_DESCRIPTOR_USER32 0046f458     user32:USER32.dll
 0002:0001146c       __IMPORT_DESCRIPTOR_GDI32  0046f46c     gdi32:GDI32.dll
 0002:00011480       __IMPORT_DESCRIPTOR_COMDLG32 0046f480     comdlg32:COMDLG32.dll
 0002:00011494       __NULL_IMPORT_DESCRIPTOR   0046f494     glu32:GLU32.dll
 0003:00000004       ?Sequence_Upper_Fake@@3USequence_t@@A 00471004     animation.obj
 0003:00000034       ?Sequence_Lower_Fake@@3USequence_t@@A 00471034     animation.obj
 0003:00000064       ??_R0?AVbad_alloc@std@@@8  00471064     animation.obj
 0003:00000080       ??_R0?AVexception@std@@@8  00471080     animation.obj
 0003:0000009c       ??_R0?AVlogic_error@std@@@8 0047109c     animation.obj
 0003:000000bc       ??_R0?AVlength_error@std@@@8 004710bc     animation.obj
 0003:000000dc       ??_R0?AVout_of_range@std@@@8 004710dc     animation.obj
 0003:00000110       ??_R0PAD@8                 00471110     jpeg_interface.obj
 0003:00000120       ??_R0PAX@8                 00471120     jpeg_interface.obj
 0003:00000130       ?Half_Pi@@3MB              00471130     matrix4.obj
 0003:00000138       ?g_NormDrawSclFactor@@3MA  00471138     md3gl.obj
 0003:0000013c       ?bTexturesOn@@3_NA         0047113c     md3gl.obj
 0003:000001e0       ?bAskThem@@3_NA            004711e0     md3IO.obj
 0003:000001e8       ??_R0?AVKeyComparatorInfo@@@8 004711e8     md3view.obj
 0003:00000208       ??_R0?AVStrKeyComparatorInfo@@@8 00471208     md3view.obj
 0003:00000230       ??_R0?AVfacet@locale@std@@@8 00471230     nodedictionary.obj
 0003:00000250       ??_R0?AV?$num_put@DV?$ostreambuf_iterator@DU?$char_traits@D@std@@@std@@@std@@@8 00471250     nodedictionary.obj
 0003:000002a4       ??_R0?AV?$numpunct@D@std@@@8 004712a4     nodedictionary.obj
 0003:000002c4       ??_R0?AVruntime_error@std@@@8 004712c4     nodedictionary.obj
 0003:000002e4       ??_R0?AVfailure@ios_base@std@@@8 004712e4     nodedictionary.obj
 0003:00000308       ??_R0?AVbad_cast@std@@@8   00471308     nodedictionary.obj
 0003:00000340       ?byChars@@3PAEA            00471340     TEXT.obj
 0003:00000648       ?mipBlendColors@@3PAY03EA  00471648     texture_res.obj
 0003:0000068c       ?Vect3X@@3VVect3@@B        0047168c     vect3.obj
 0003:00000698       ?Vect3Y@@3VVect3@@B        00471698     vect3.obj
 0003:000006a4       ?Vect3Z@@3VVect3@@B        004716a4     vect3.obj
 0003:000006b0       ?Vect3negX@@3VVect3@@B     004716b0     vect3.obj
 0003:000006bc       ?Vect3negY@@3VVect3@@B     004716bc     vect3.obj
 0003:000006c8       ?Vect3negZ@@3VVect3@@B     004716c8     vect3.obj
 0003:00001850       _inflate_mask              00472850     infutil.obj
 0003:000018d0       _z_errmsg                  004728d0     zutil.obj
 0003:000018fc       ??_R0?AVinvalid_argument@std@@@8 004728fc     libcpmt:string.obj
 0003:0000192c       ??_R0?AV_Locimp@locale@std@@@8 0047292c     libcpmt:locale0.obj
 0003:00001958       ??_R0?AUctype_base@std@@@8 00472958     libcpmt:cout.obj
 0003:00001978       ??_R0?AVios_base@std@@@8   00472978     libcpmt:cout.obj
 0003:00001994       ??_R0?AV?$_Iosb@H@std@@@8  00472994     libcpmt:cout.obj
 0003:000019b0       ??_R0?AV?$basic_ostream@DU?$char_traits@D@std@@@std@@@8 004729b0     libcpmt:cout.obj
 0003:000019ec       ??_R0?AV?$basic_ios@DU?$char_traits@D@std@@@std@@@8 004729ec     libcpmt:cout.obj
 0003:00001a24       ??_R0?AV?$ctype@D@std@@@8  00472a24     libcpmt:cout.obj
 0003:00001a40       ??_R0?AV?$basic_streambuf@DU?$char_traits@D@std@@@std@@@8 00472a40     libcpmt:cout.obj
 0003:00001a7c       ??_R0?AV?$basic_filebuf@DU?$char_traits@D@std@@@std@@@8 00472a7c     libcpmt:cout.obj
 0003:00001ab8       ??_R0?AVcodecvt_base@std@@@8 00472ab8     libcpmt:cout.obj
 0003:00001ad8       ??_R0?AV?$codecvt@DDH@std@@@8 00472ad8     libcpmt:cout.obj
 0003:00001b00       ?_PJP_CPP_Copyright@@3PADA 00472b00     libcpmt:iosptrs.obj
 0003:00001b60       ?_Sync@ios_base@std@@0_NA  00472b60     libcpmt:ios.obj
 0003:00001b74       ??_R0?AVbad_typeid@std@@@8 00472b74     LIBCMT:stdexcpt.obj
 0003:00001b94       ??_R0?AV__non_rtti_object@std@@@8 00472b94     LIBCMT:stdexcpt.obj
 0003:00001bbc       ??_R0?AVtype_info@@@8      00472bbc     LIBCMT:typinfo.obj
 0003:00001bd8       ___security_cookie         00472bd8     LIBCMT:gs_cookie.obj
 0003:00001bdc       ___security_cookie_complement 00472bdc     LIBCMT:gs_cookie.obj
 0003:00001be0       __fltused                  00472be0     LIBCMT:_fpinit_.obj
 0003:00001be4       __ldused                   00472be4     LIBCMT:_fpinit_.obj
 0003:00001bf0       __aexit_rtn                00472bf0     LIBCMT:crt0dat.obj
 0003:00001c10       __half                     00472c10     LIBCMT:_pow_.obj
 0003:00001c50       ___lconv_static_decimal    00472c50     LIBCMT:lconv.obj
 0003:00001c54       ___lconv_c                 00472c54     LIBCMT:lconv.obj
 0003:00001c84       ___lconv                   00472c84     LIBCMT:lconv.obj
 0003:00001c90       ___app_type                00472c90     LIBCMT:wincrt0.obj
 0003:00001e10       ___abort_behavior          00472e10     LIBCMT:abort.obj
 0003:00001e1c       ??_R0?AVbad_exception@std@@@8 00472e1c     LIBCMT:frame.obj
 0003:00001e40       __iob                      00472e40     LIBCMT:_file.obj
 0003:000020c0       __pctype                   004730c0     LIBCMT:ctype.obj
 0003:000020c4       __pwctype                  004730c4     LIBCMT:ctype.obj
 0003:000020d0       ___flsindex                004730d0     LIBCMT:tidtable.obj
 0003:000020d4       ___getvalueindex           004730d4     LIBCMT:tidtable.obj
 0003:000020e0       __cfltcvt_tab              004730e0     LIBCMT:cmiscdat.obj
 0003:00002108       ___nullstring              00473108     LIBCMT:output.obj
 0003:0000210c       ___wnullstring             0047310c     LIBCMT:output.obj
 0003:00002110       ___badioinfo               00473110     LIBCMT:ioinit.obj
 0003:00002270       __amblksiz                 00473270     LIBCMT:heapinit.obj
 0003:00002330       __lookuptrailbytes         00473330     LIBCMT:read.obj
 0003:00002430       __First_FPE_Indx           00473430     LIBCMT:winxfltr.obj
 0003:00002434       __Num_FPE                  00473434     LIBCMT:winxfltr.obj
 0003:00002438       __XcptActTabSize           00473438     LIBCMT:winxfltr.obj
 0003:0000243c       __XcptActTabCount          0047343c     LIBCMT:winxfltr.obj
 0003:00002440       __indefinite               00473440     LIBCMT:_87disp_.obj
 0003:0000244a       __piby2                    0047344a     LIBCMT:_87disp_.obj
 0003:00002480       __infinity                 00473480     LIBCMT:_87tran_.obj
 0003:0000248a       __minfinity                0047348a     LIBCMT:_87tran_.obj
 0003:00002494       __logemax                  00473494     LIBCMT:_87tran_.obj
 0003:000024ba       __OP_EXPjmptab             004734ba     LIBCMT:_87tran_.obj
 0003:000024e0       __OP_ATAN2jmptab           004734e0     LIBCMT:_87triga_.obj
 0003:00002530       ___globallocalestatus      00473530     LIBCMT:glstatus.obj
 0003:00002538       ___clocalestr              00473538     LIBCMT:nlsdata2.obj
 0003:00002540       ___initiallocinfo          00473540     LIBCMT:nlsdata2.obj
 0003:00002618       ___ptlocinfo               00473618     LIBCMT:nlsdata2.obj
 0003:0000261c       ___lc_clike                0047361c     LIBCMT:nlsdata2.obj
 0003:00002620       ___initiallocalestructinfo 00473620     LIBCMT:nlsdata2.obj
 0003:00002628       ___initialmbcinfo          00473628     LIBCMT:mbctype.obj
 0003:00002848       __mbctype                  00473848     LIBCMT:mbctype.obj
 0003:00002950       __mbcasemap                00473950     LIBCMT:mbctype.obj
 0003:00002a50       ___ptmbcinfo               00473a50     LIBCMT:mbctype.obj
 0003:00002b50       ___lc_time_c               00473b50     LIBCMT:strftime.obj
 0003:00002c08       ___lc_time_curr            00473c08     LIBCMT:strftime.obj
 0003:00002c0c       ___mb_cur_max              00473c0c     LIBCMT:nlsdata1.obj
 0003:00002c10       ___decimal_point           00473c10     LIBCMT:nlsdata1.obj
 0003:00002c14       ___decimal_point_length    00473c14     LIBCMT:nlsdata1.obj
 0003:00002c20       __NLG_Destination          00473c20     LIBCMT:exsup.obj
 0003:00002c34       __matherr_flag             00473c34     LIBCMT:_matherr_.obj
 0003:00002d20       __d_inf                    00473d20     LIBCMT:_util_.obj
 0003:00002d28       __d_ind                    00473d28     LIBCMT:_util_.obj
 0003:00002d30       __d_max                    00473d30     LIBCMT:_util_.obj
 0003:00002d38       __d_min                    00473d38     LIBCMT:_util_.obj
 0003:00002d40       __d_mzero                  00473d40     LIBCMT:_util_.obj
 0003:00002f00       __pow10pos                 00473f00     LIBCMT:_constpow_.obj
 0003:00003060       __pow10neg                 00474060     LIBCMT:_constpow_.obj
 0003:000031c0       __timezone                 004741c0     LIBCMT:timeset.obj
 0003:000031c4       __daylight                 004741c4     LIBCMT:timeset.obj
 0003:000031c8       __dstbias                  004741c8     LIBCMT:timeset.obj
 0003:00003250       __tzname                   00474250     LIBCMT:timeset.obj
 0003:00003270       __coninpfh                 00474270     LIBCMT:initcon.obj
 0003:00003274       __confh                    00474274     LIBCMT:initcon.obj
 0003:00003278       __lpdays                   00474278     LIBCMT:days.obj
 0003:000032ac       __days                     004742ac     LIBCMT:days.obj
 0003:000032e0       ?iAnimLockNumber_Upper@@3HA 004742e0     animation.obj
 0003:000032e4       ?iAnimLockNumber_Lower@@3HA 004742e4     animation.obj
 0003:000032e8       ?iAnimDisplayNumber_Upper@@3HA 004742e8     animation.obj
 0003:000032ec       ?iAnimDisplayNumber_Lower@@3HA 004742ec     animation.obj
 0003:000032f0       ?iAnimLockLongestString@@3HA 004742f0     animation.obj
 0003:000032f4       ?pModel_Lower@@3PAUgl_model@@A 004742f4     animation.obj
 0003:000032f8       ?pModel_Upper@@3PAUgl_model@@A 004742f8     animation.obj
 0003:000032fc       ?MultiSequenceLock_Lower@@3V?$vector@HV?$allocator@H@std@@@std@@A 004742fc     animation.obj
 0003:00003314       ?Sequences_UpperAnims@@3V?$vector@USequence_t@@V?$allocator@USequence_t@@@std@@@std@@A 00474314     animation.obj
 0003:0000332c       ?MultiSequenceLock_Upper@@3V?$vector@HV?$allocator@H@std@@@std@@A 0047432c     animation.obj
 0003:00003344       ?Sequences_LowerAnims@@3V?$vector@USequence_t@@V?$allocator@USequence_t@@@std@@@std@@A 00474344     animation.obj
 0003:00003b74       ?m_y@@3HA                  00474b74     drag.obj
 0003:00003b78       ?m_x@@3HA                  00474b78     drag.obj
 0003:00003b7c       ?giNumLODs@@3HA            00474b7c     g2export.obj
 0003:00003b80       ?giNumSurfaces@@3HA        00474b80     g2export.obj
 0003:00003b84       ?giNumTags@@3HA            00474b84     g2export.obj
 0003:000041e0       ?tess@@3UshaderCommands_s@@A 004751e0     md3gl.obj
 0003:00015b28       ?bWireFrame@@3_NA          00486b28     md3gl.obj
 0003:0001aa48       ?sinTable@@3PAMA           0048ba48     md3IO.obj
 0003:0001ba48       ?bAutoOverWrite@@3_NA      0048ca48     md3IO.obj
 0003:0001ba4c       ?gpModel@@3PAUgl_model@@A  0048ca4c     md3IO.obj
 0003:0001ba50       ?FilesWritten@@3V?$list@V?$basic_string@DU?$char_traits@D@std@@V?$allocator@D@2@@std@@V?$allocator@V?$basic_string@DU?$char_traits@D@std@@V?$allocator@D@2@@std@@@2@@std@@A 0048ca50     md3IO.obj
 0003:0001c2d0       ?giTagMenuSubtractValue_Head@@3HA 0048d2d0     md3view.obj
 0003:0001c2d4       ?giTagMenuSubtractValue_Weapon@@3HA 0048d2d4     md3view.obj
 0003:0001c2d8       ?giTagMenuSubtractValue_Barrel3@@3HA 0048d2d8     md3view.obj
 0003:0001c2dc       ?giTotTris@@3HA            0048d2dc     md3view.obj
 0003:0001c2e0       ?giTagMenuSubtractValue_Barrel2@@3HA 0048d2e0     md3view.obj
 0003:0001c2e4       ?giModelsStatted@@3HA      0048d2e4     md3view.obj
 0003:0001c2e8       ?pLastLoadedModel@@3PAUgl_model@@A 0048d2e8     md3view.obj
 0003:0001c2ec       ?giTagMenuSubtractValue_Torso@@3HA 0048d2ec     md3view.obj
 0003:0001c2f0       ?iTextX@@3HA               0048d2f0     md3view.obj
 0003:0001c2f4       ?giTagMenuSubtractValue_Barrel4@@3HA 0048d2f4     md3view.obj
 0003:0001c2f8       ?mdview@@3UMDViewState@@A  0048d2f8     md3view.obj
 0003:0001c3f0       ?giTagMenuSubtractValue_Barrel@@3HA 0048d3f0     md3view.obj
 0003:0001c3f4       ?iTextY@@3HA               0048d3f4     md3view.obj
 0003:0001c3f8       ?giTotVerts@@3HA           0048d3f8     md3view.obj
 0003:0001cc00       ?_Psave@?$_Facetptr@V?$num_put@DV?$ostreambuf_iterator@DU?$char_traits@D@std@@@std@@@std@@@std@@2PBVfacet@locale@2@B 0048dc00     nodedictionary.obj
 0003:0001cc04       ?_Psave@?$_Facetptr@V?$numpunct@D@std@@@std@@2PBVfacet@locale@2@B 0048dc04     nodedictionary.obj
 0003:0001cc08       ?id@?$num_put@DV?$ostreambuf_iterator@DU?$char_traits@D@std@@@std@@@std@@2V0locale@2@A 0048dc08     nodedictionary.obj
 0003:0001cc0c       ?id@?$numpunct@D@std@@2V0locale@2@A 0048dc0c     nodedictionary.obj
 0003:000226d4       ?gFontOffset@@3IA          004936d4     TEXT.obj
 0003:000226d8       ?g_iScreenWidth@@3HA       004936d8     TEXT.obj
 0003:000226dc       ?g_iScreenHeight@@3HA      004936dc     TEXT.obj
 0003:000226e0       ?gbTextInhibit@@3_NA       004936e0     TEXT.obj
 0003:000226e4       ?bTextCreated@@3HA         004936e4     TEXT.obj
 0003:000226ec       ?r_picmip@@3PAUcvar_t@@A   004936ec     texture_res.obj
 0003:000226f0       ?r_colorMipLevels@@3PAUcvar_t@@A 004936f0     texture_res.obj
 0003:000226f4       ?r_ext_compressed_lightmaps@@3PAUcvar_t@@A 004936f4     texture_res.obj
 0003:000226f8       ?r_texturebits@@3PAUcvar_t@@A 004936f8     texture_res.obj
 0003:000226fc       ?r_roundImagesDown@@3PAUcvar_t@@A 004936fc     texture_res.obj
 0003:00022700       ?r_picmipmin@@3PAUcvar_t@@A 00493700     texture_res.obj
 0003:00022704       ?r_simpleMipMaps@@3PAUcvar_t@@A 00493704     texture_res.obj
 0003:00022708       ?glConfig@@3UglConfig_t@@A 00493708     texture_res.obj
 0003:00022714       ?giReMipScratchBufferSize@@3HA 00493714     texture_res.obj
 0003:00022718       ?gbIgnoreTextureLoad@@3_NA 00493718     texture_res.obj
 0003:0002271c       ?CvarList@@3V?$list@PAXV?$allocator@PAX@std@@@std@@A 0049371c     texture_res.obj
 0003:00022738       ?Vect3Zero@@3VVect3@@B     00493738     vect3.obj
 0003:00022744       ?mainhWnd@@3PAUHWND__@@A   00493744     win32_driver.obj
 0003:00022748       ?WinhInstance@@3PAUHINSTANCE__@@A 00493748     win32_driver.obj
 0003:0002274c       ?CmdLine@@3PADA            0049374c     win32_driver.obj
 0003:00022750       ?hMainMenu@@3PAUHMENU__@@A 00493750     win32_driver.obj
 0003:00022754       ?hMenuUpperAnims@@3PAUHMENU__@@A 00493754     win32_driver.obj
 0003:00022758       ?hMenuLowerAnims@@3PAUHMENU__@@A 00493758     win32_driver.obj
 0003:0002275c       ?tagMenuList@@3VNodeSequenceInfo@@A 0049375c     win32_driver.obj
 0003:00022768       ?DragStartPoint@@3UtagPOINT@@A 00493768     win32_msg.obj
 0003:00022770       ?hDC_@@3PAUHDC__@@A        00493770     win32_msg.obj
 0003:00022778       ?qdir@@3PADA               00493778     win32_msg.obj
 0003:00022b78       ?gamedir@@3PADA            00493b78     win32_msg.obj
 0003:00022f78       ?sys_rbuttondown@@3_NA     00493f78     win32_msg.obj
 0003:00022f79       ?sys_lbuttondown@@3_NA     00493f79     win32_msg.obj
 0003:00022f7a       ?sys_mbuttondown@@3_NA     00493f7a     win32_msg.obj
 0003:00022f7b       ?gbMinimised@@3_NA         00493f7b     win32_msg.obj
 0003:00022f7c       ?g_bPerfect@@3_NA          00493f7c     win32_msg.obj
 0003:00022f80       ?szDirName@@3PADA          00493f80     win32_msg.obj
 0003:00023b34       ?_Clocptr@_Locimp@locale@std@@0PAV123@A 00494b34     libcpmt:locale0.obj
 0003:00023b38       ?_Id_cnt@id@locale@std@@0HA 00494b38     libcpmt:locale0.obj
 0003:00023b3c       ?id@?$ctype@D@std@@2V0locale@2@A 00494b3c     libcpmt:locale0.obj
 0003:00023b40       ?id@?$codecvt@GDH@std@@2V0locale@2@A 00494b40     libcpmt:locale0.obj
 0003:00023b44       ?id@?$ctype@_W@std@@2V0locale@2@A 00494b44     libcpmt:locale0.obj
 0003:00023b48       ?id@?$codecvt@_WDH@std@@2V0locale@2@A 00494b48     libcpmt:locale0.obj
 0003:00023b50       ?id@?$ctype@G@std@@2V0locale@2@A 00494b50     libcpmt:locale0.obj
 0003:00023b58       ?_Stinit@?1??_Init@?$basic_filebuf@DU?$char_traits@D@std@@@std@@IAEXPAU_iobuf@@W4_Initfl@23@@Z@4HA 00494b58     libcpmt:cout.obj
 0003:00023b5c       ?_Psave@?$_Facetptr@V?$ctype@D@std@@@std@@2PBVfacet@locale@2@B 00494b5c     libcpmt:cout.obj
 0003:00023b60       ?_Psave@?$_Facetptr@V?$codecvt@DDH@std@@@std@@2PBVfacet@locale@2@B 00494b60     libcpmt:cout.obj
 0003:00023bc0       ?cout@std@@3V?$basic_ostream@DU?$char_traits@D@std@@@1@A 00494bc0     libcpmt:cout.obj
 0003:00023bf8       ?id@?$codecvt@DDH@std@@2V0locale@2@A 00494bf8     libcpmt:cout.obj
 0003:00023cf8       ?_Ptr_cin@std@@3PAV?$basic_istream@DU?$char_traits@D@std@@@1@A 00494cf8     libcpmt:iosptrs.obj
 0003:00023cfc       ?_Ptr_cout@std@@3PAV?$basic_ostream@DU?$char_traits@D@std@@@1@A 00494cfc     libcpmt:iosptrs.obj
 0003:00023d00       ?_Ptr_cerr@std@@3PAV?$basic_ostream@DU?$char_traits@D@std@@@1@A 00494d00     libcpmt:iosptrs.obj
 0003:00023d04       ?_Ptr_clog@std@@3PAV?$basic_ostream@DU?$char_traits@D@std@@@1@A 00494d04     libcpmt:iosptrs.obj
 0003:00023d08       ?_Ptr_wcin@std@@3PAV?$basic_istream@_WU?$char_traits@_W@std@@@1@A 00494d08     libcpmt:iosptrs.obj
 0003:00023d0c       ?_Ptr_wcout@std@@3PAV?$basic_ostream@_WU?$char_traits@_W@std@@@1@A 00494d0c     libcpmt:iosptrs.obj
 0003:00023d10       ?_Ptr_wcerr@std@@3PAV?$basic_ostream@_WU?$char_traits@_W@std@@@1@A 00494d10     libcpmt:iosptrs.obj
 0003:00023d14       ?_Ptr_wclog@std@@3PAV?$basic_ostream@_WU?$char_traits@_W@std@@@1@A 00494d14     libcpmt:iosptrs.obj
 0003:00023d48       ?_Fpz@std@@3_JA            00494d48     libcpmt:ios.obj
 0003:00023d50       ?_Index@ios_base@std@@0HA  00494d50     libcpmt:ios.obj
 0003:00023d88       ___pInvalidArgHandler      00494d88     LIBCMT:invarg.obj
 0003:00023d9c       ___fastflag                00494d9c     LIBCMT:_fpinit_.obj
 0003:00023da0       __adjust_fdiv              00494da0     LIBCMT:_fpinit_.obj
 0003:00023da4       __umaskval                 00494da4     LIBCMT:crt0dat.obj
 0003:00023da8       ___argc                    00494da8     LIBCMT:crt0dat.obj
 0003:00023dac       ___argv                    00494dac     LIBCMT:crt0dat.obj
 0003:00023db0       ___wargv                   00494db0     LIBCMT:crt0dat.obj
 0003:00023db4       __environ                  00494db4     LIBCMT:crt0dat.obj
 0003:00023db8       ___initenv                 00494db8     LIBCMT:crt0dat.obj
 0003:00023dbc       __wenviron                 00494dbc     LIBCMT:crt0dat.obj
 0003:00023dc0       ___winitenv                00494dc0     LIBCMT:crt0dat.obj
 0003:00023dc4       __pgmptr                   00494dc4     LIBCMT:crt0dat.obj
 0003:00023dc8       __wpgmptr                  00494dc8     LIBCMT:crt0dat.obj
 0003:00023dcc       __exitflag                 00494dcc     LIBCMT:crt0dat.obj
 0003:00023dd0       __C_Termination_Done       00494dd0     LIBCMT:crt0dat.obj
 0003:00023dd4       __C_Exit_Done              00494dd4     LIBCMT:crt0dat.obj
 0003:00023dd8       ___lconv_static_null       00494dd8     LIBCMT:lconv.obj
 0003:00023dec       __aenvptr                  00494dec     LIBCMT:wincrt0.obj
 0003:00023df0       __wenvptr                  00494df0     LIBCMT:wincrt0.obj
 0003:00023df4       ___error_mode              00494df4     LIBCMT:wincrt0.obj
 0003:00023df8       ___locale_changed          00494df8     LIBCMT:setlocal.obj
 0003:00023dfc       __cflush                   00494dfc     LIBCMT:_file.obj
 0003:00023e00       __maxwait                  00494e00     LIBCMT:crtheap.obj
 0003:00023e10       _gpFlsAlloc                00494e10     LIBCMT:tidtable.obj
 0003:00023e14       _gpFlsGetValue             00494e14     LIBCMT:tidtable.obj
 0003:00023e18       _gpFlsSetValue             00494e18     LIBCMT:tidtable.obj
 0003:00023e1c       _gpFlsFree                 00494e1c     LIBCMT:tidtable.obj
 0003:00023e20       ?_pnhHeap@@3P6AHI@ZA       00494e20     LIBCMT:handler.obj
 0003:00023e24       ?__pInconsistency@@3P6AXXZA 00494e24     LIBCMT:hooks.obj
 0003:000242a0       ___sbh_pHeaderDefer        004952a0     LIBCMT:sbheap.obj
 0003:000242a4       __crtheap                  004952a4     LIBCMT:heapinit.obj
 0003:000245bc       __newmode                  004955bc     LIBCMT:_newmode.obj
 0003:000245e0       ___pPurecall               004955e0     LIBCMT:inithelp.obj
 0003:000245ec       __stdbuf                   004955ec     LIBCMT:_sftbuf.obj
 0003:000245f4       ___lc_handle               004955f4     LIBCMT:nlsdata2.obj
 0003:0002460c       ___lc_codepage             0049560c     LIBCMT:nlsdata2.obj
 0003:00024610       ___lc_collate_cp           00495610     LIBCMT:nlsdata2.obj
 0003:00024618       ___mbulinfo                00495618     LIBCMT:mbctype.obj
 0003:00024624       ___mbcodepage              00495624     LIBCMT:mbctype.obj
 0003:00024628       ___ismbcodepage            00495628     LIBCMT:mbctype.obj
 0003:0002462c       ___mblcid                  0049562c     LIBCMT:mbctype.obj
 0003:00024754       ?pArgList@UnDecorator@@0PAVReplicator@@A 00495754     LIBCMT:undname.obj
 0003:00024758       ?pZNameList@UnDecorator@@0PAVReplicator@@A 00495758     LIBCMT:undname.obj
 0003:0002475c       ?pTemplateArgList@UnDecorator@@0PAVReplicator@@A 0049575c     LIBCMT:undname.obj
 0003:00024760       ?gName@UnDecorator@@0PBDB  00495760     LIBCMT:undname.obj
 0003:00024764       ?name@UnDecorator@@0PBDB   00495764     LIBCMT:undname.obj
 0003:00024768       ?outputString@UnDecorator@@0PADA 00495768     LIBCMT:undname.obj
 0003:0002476c       ?maxStringLength@UnDecorator@@0HA 0049576c     LIBCMT:undname.obj
 0003:00024770       ?disableFlags@UnDecorator@@0KA 00495770     LIBCMT:undname.obj
 0003:00024774       ?m_pGetParameter@UnDecorator@@0P6APADJ@ZA 00495774     LIBCMT:undname.obj
 0003:00024778       ?fExplicitTemplateParams@UnDecorator@@0_NA 00495778     LIBCMT:undname.obj
 0003:00024779       ?fGetTemplateArgumentList@UnDecorator@@0_NA 00495779     LIBCMT:undname.obj
 0003:0002477c       ?nodes@?1??make@DNameStatusNode@@SAPAV2@W4DNameStatus@@@Z@4PAV2@A 0049577c     LIBCMT:undname.obj
 0003:000247ac       ??_B?1??make@DNameStatusNode@@SAPAV1@W4DNameStatus@@@Z@51 004957ac     LIBCMT:undname.obj
 0003:000247b0       __outputformat             004957b0     LIBCMT:outputformat.obj
 0003:000247b4       __commode                  004957b4     LIBCMT:ncommode.obj
 0003:00024890       __fmode                    00495890     LIBCMT:txtmode.obj
 0003:00024894       __pmatherr                 00495894     <common>
 0003:00024898       ___use_sse2_mathfcns       00495898     <common>
 0003:0002489c       ___active_heap             0049589c     <common>
 0003:000248a0       ___sbh_initialized         004958a0     <common>
 0003:000248a4       ___sbh_cntHeaderList       004958a4     <common>
 0003:000248a8       ___sbh_pHeaderList         004958a8     <common>
 0003:000248ac       ___sbh_threshold           004958ac     <common>
 0003:000248b0       ___sbh_pHeaderScan         004958b0     <common>
 0003:000248b4       ___sbh_sizeHeaderList      004958b4     <common>
 0003:000248b8       ___sbh_indGroupDefer       004958b8     <common>
 0003:000248bc       ___sse2_available          004958bc     <common>
 0003:000248c0       __nhandle                  004958c0     <common>
 0003:000248e0       ___pioinfo                 004958e0     <common>
 0003:000249e0       __debugger_hook_dummy      004959e0     <common>
 0003:000249e4       ___piob                    004959e4     <common>
 0003:00024a00       __bufin                    00495a00     <common>
 0003:00025a00       __nstream                  00496a00     <common>
 0003:00025a04       ___setlc_active            00496a04     <common>
 0003:00025a08       ___unguarded_readlc_active 00496a08     <common>
 0003:00025a0c       __acmdln                   00496a0c     <common>
 0003:00025a10       ___env_initialized         00496a10     <common>
 0003:00025a14       ___onexitend               00496a14     <common>
 0003:00025a18       ___onexitbegin             00496a18     <common>
 0003:00025a1c       ___mbctype_initialized     00496a1c     <common>
 0003:00025a20       ___dyn_tls_init_callback   00496a20     <common>

 entry point at        0001:00032c91

 Static symbols

 0001:fffff000       __ehhandler$?_Init@?$numpunct@D@std@@IAEXABV_Locinfo@2@_N@Z 00400000 f   nodesequence.obj
 0001:fffff000       __unwindfunclet$??0sentry@?$basic_ostream@DU?$char_traits@D@std@@@std@@QAE@AAV12@@Z$0 00400000 f   nodesequence.obj
 0001:fffff000       __ehhandler$?_Copy@?$basic_string@DU?$char_traits@D@std@@V?$allocator@D@2@@std@@IAEXII@Z 00400000 f   md3gl.obj
 0001:fffff000       __unwindfunclet$??0logic_error@std@@QAE@ABV?$basic_string@DU?$char_traits@D@std@@V?$allocator@D@2@@1@@Z$0 00400000 f   md3gl.obj
 0001:fffff000       __ehhandler$?_Osfx@?$basic_ostream@DU?$char_traits@D@std@@@std@@QAEXXZ 00400000 f   nodesequence.obj
 0001:fffff000       __unwindfunclet$??0logic_error@std@@QAE@ABV01@@Z$0 00400000 f   md3IO.obj
 0001:fffff000       __unwindfunclet$??1sentry@?$basic_ostream@DU?$char_traits@D@std@@@std@@QAE@XZ$0 00400000 f   nodesequence.obj
 0001:fffff000       __unwindfunclet$??0logic_error@std@@QAE@ABV01@@Z$0 00400000 f   md3gl.obj
 0001:fffff000       __unwindfunclet$??$?6U?$char_traits@D@std@@@std@@YAAAV?$basic_ostream@DU?$char_traits@D@std@@@0@AAV10@PBD@Z$2 00400000 f   nodesequence.obj
 0001:fffff000       __unwindfunclet$??6?$basic_ostream@DU?$char_traits@D@std@@@std@@QAEAAV01@H@Z$2 00400000 f   nodesequence.obj
 0001:fffff000       __unwindfunclet$??0logic_error@std@@QAE@ABV?$basic_string@DU?$char_traits@D@std@@V?$allocator@D@2@@1@@Z$0 00400000 f   md3IO.obj
 0001:fffff000       __ehhandler$?_Copy@?$basic_string@DU?$char_traits@D@std@@V?$allocator@D@2@@std@@IAEXII@Z 00400000 f   md3IO.obj
 0001:fffff000       __unwindfunclet$??0logic_error@std@@QAE@ABV01@@Z$0 00400000 f   texture_res.obj
 0001:fffff000       __ehhandler$?_Copy@?$basic_string@DU?$char_traits@D@std@@V?$allocator@D@2@@std@@IAEXII@Z 00400000 f   nodesequence.obj
 0001:fffff000       __unwindfunclet$?_Fput@?$num_put@DV?$ostreambuf_iterator@DU?$char_traits@D@std@@@std@@@std@@ABA?AV?$ostreambuf_iterator@DU?$char_traits@D@std@@@2@V32@AAVios_base@2@DPBDIIII@Z$0 00400000 f   nodesequence.obj
 0001:fffff000       __unwindfunclet$??0?$vector@HV?$allocator@H@std@@@std@@QAE@XZ$0 00400000 f   md3view.obj
 0001:fffff000       __unwindfunclet$??6?$basic_ostream@DU?$char_traits@D@std@@@std@@QAEAAV01@PBX@Z$2 00400000 f   nodesequence.obj
 0001:fffff000       __unwindfunclet$??0logic_error@std@@QAE@ABV01@@Z$0 00400000 f   md3view.obj
 0001:fffff000       __unwindfunclet$?do_put@?$num_put@DV?$ostreambuf_iterator@DU?$char_traits@D@std@@@std@@@std@@MBE?AV?$ostreambuf_iterator@DU?$char_traits@D@std@@@2@V32@AAVios_base@2@D_N@Z$0 00400000 f   nodesequence.obj
 0001:fffff000       __unwindfunclet$?_Xlen@?$vector@HV?$allocator@H@std@@@std@@KAXXZ$0 00400000 f   md3view.obj
 0001:fffff000       __unwindfunclet$?put@?$basic_ostream@DU?$char_traits@D@std@@@std@@QAEAAV12@D@Z$2 00400000 f   nodesequence.obj
 0001:fffff000       __unwindfunclet$??0logic_error@std@@QAE@ABV?$basic_string@DU?$char_traits@D@std@@V?$allocator@D@2@@1@@Z$0 00400000 f   md3view.obj
 0001:fffff000       __ehhandler$?_Copy@?$basic_string@DU?$char_traits@D@std@@V?$allocator@D@2@@std@@IAEXII@Z 00400000 f   md3view.obj
 0001:fffff000       __unwindfunclet$??0?$numpunct@D@std@@QAE@ABV_Locinfo@1@I_N@Z$0 00400000 f   nodesequence.obj
 0001:fffff000       __unwindfunclet$??$use_facet@V?$numpunct@D@std@@@std@@YAABV?$numpunct@D@0@ABVlocale@0@@Z$0 00400000 f   nodesequence.obj
 0001:fffff000       __ehhandler$?_Copy@?$basic_string@DU?$char_traits@D@std@@V?$allocator@D@2@@std@@IAEXII@Z 00400000 f   nodedictionary.obj
 0001:fffff000       __unwindfunclet$??0logic_error@std@@QAE@ABV?$basic_string@DU?$char_traits@D@std@@V?$allocator@D@2@@1@@Z$0 00400000 f   texture_res.obj
 0001:fffff000       __ehhandler$?_Copy@?$basic_string@DU?$char_traits@D@std@@V?$allocator@D@2@@std@@IAEXII@Z 00400000 f   libcpmt:cout.obj
 0001:fffff000       __ehhandler$?_Copy@?$basic_string@DU?$char_traits@D@std@@V?$allocator@D@2@@std@@IAEXII@Z 00400000 f   texture_res.obj
 0001:fffff000       __unwindfunclet$??0logic_error@std@@QAE@ABV01@@Z$0 00400000 f   libcpmt:string.obj
 0001:fffff000       __unwindfunclet$??0_Locinfo@std@@QAE@ABV?$basic_string@DU?$char_traits@D@std@@V?$allocator@D@2@@1@@Z$0 00400000 f   nodesequence.obj
 0001:fffff000       __unwindfunclet$??0logic_error@std@@QAE@ABV?$basic_string@DU?$char_traits@D@std@@V?$allocator@D@2@@1@@Z$0 00400000 f   libcpmt:string.obj
 0001:fffff000       __unwindfunclet$??0_Locinfo@std@@QAE@ABV?$basic_string@DU?$char_traits@D@std@@V?$allocator@D@2@@1@@Z$0 00400000 f   libcpmt:cout.obj
 0001:fffff000       __ehhandler$?_Copy@?$basic_string@DU?$char_traits@D@std@@V?$allocator@D@2@@std@@IAEXII@Z 00400000 f   libcpmt:string.obj
 0001:fffff000       __unwindfunclet$??1_Locinfo@std@@QAE@XZ$0 00400000 f   nodesequence.obj
 0001:fffff000       __unwindfunclet$??0runtime_error@std@@QAE@ABV?$basic_string@DU?$char_traits@D@std@@V?$allocator@D@2@@1@@Z$0 00400000 f   nodesequence.obj
 0001:fffff000       __unwindfunclet$?_Getcat@?$num_put@DV?$ostreambuf_iterator@DU?$char_traits@D@std@@@std@@@std@@SAIPAPBVfacet@locale@2@PBV42@@Z$0 00400000 f   nodesequence.obj
 0001:fffff000       __unwindfunclet$??$use_facet@V?$num_put@DV?$ostreambuf_iterator@DU?$char_traits@D@std@@@std@@@std@@@std@@YAABV?$num_put@DV?$ostreambuf_iterator@DU?$char_traits@D@std@@@std@@@0@ABVlocale@0@@Z$0 00400000 f   nodesequence.obj
 0001:fffff000       __unwindfunclet$??1_Locinfo@std@@QAE@XZ$0 00400000 f   libcpmt:cout.obj
 0001:fffff000       __unwindfunclet$?_Getcat@?$numpunct@D@std@@SAIPAPBVfacet@locale@2@PBV42@@Z$0 00400000 f   nodesequence.obj
 0001:fffff000       __unwindfunclet$??0runtime_error@std@@QAE@ABV?$basic_string@DU?$char_traits@D@std@@V?$allocator@D@2@@1@@Z$0 00400000 f   libcpmt:cout.obj
 0001:fffff000       __ehhandler$?_Copy@?$basic_string@DU?$char_traits@D@std@@V?$allocator@D@2@@std@@IAEXII@Z 00400000 f   libcpmt:locale0.obj
 0001:fffff000       __unwindfunclet$??0runtime_error@std@@QAE@ABV01@@Z$0 00400000 f   nodesequence.obj
 0001:fffff000       __unwindfunclet$??0runtime_error@std@@QAE@ABV01@@Z$0 00400000 f   libcpmt:cout.obj
 0001:fffff000       __unwindfunclet$?clear@ios_base@std@@QAEXH_N@Z$0 00400000 f   libcpmt:cout.obj
 0001:fffff000       __unwindfunclet$?clear@ios_base@std@@QAEXH_N@Z$0 00400000 f   nodesequence.obj
 0001:fffff000       __unwindfunclet$?_Iput@?$num_put@DV?$ostreambuf_iterator@DU?$char_traits@D@std@@@std@@@std@@ABA?AV?$ostreambuf_iterator@DU?$char_traits@D@std@@@2@V32@AAVios_base@2@DPADI@Z$0 00400000 f   nodesequence.obj
 0001:fffff008       __ehhandler$??0runtime_error@std@@QAE@ABV01@@Z 00400008 f   libcpmt:cout.obj
 0001:fffff008       __unwindfunclet$?clear@ios_base@std@@QAEXH_N@Z$1 00400008 f   nodesequence.obj
 0001:fffff008       __ehhandler$??0runtime_error@std@@QAE@ABV01@@Z 00400008 f   nodesequence.obj
 0001:fffff008       __ehhandler$??0runtime_error@std@@QAE@ABV?$basic_string@DU?$char_traits@D@std@@V?$allocator@D@2@@1@@Z 00400008 f   libcpmt:cout.obj
 0001:fffff008       __unwindfunclet$??1_Locinfo@std@@QAE@XZ$1 00400008 f   libcpmt:cout.obj
 0001:fffff008       __ehhandler$??$use_facet@V?$num_put@DV?$ostreambuf_iterator@DU?$char_traits@D@std@@@std@@@std@@@std@@YAABV?$num_put@DV?$ostreambuf_iterator@DU?$char_traits@D@std@@@std@@@0@ABVlocale@0@@Z 00400008 f   nodesequence.obj
 0001:fffff008       __unwindfunclet$??1_Locinfo@std@@QAE@XZ$1 00400008 f   nodesequence.obj
 0001:fffff008       __unwindfunclet$??0_Locinfo@std@@QAE@ABV?$basic_string@DU?$char_traits@D@std@@V?$allocator@D@2@@1@@Z$1 00400008 f   libcpmt:cout.obj
 0001:fffff008       __ehhandler$??0logic_error@std@@QAE@ABV?$basic_string@DU?$char_traits@D@std@@V?$allocator@D@2@@1@@Z 00400008 f   libcpmt:string.obj
 0001:fffff008       __unwindfunclet$??0_Locinfo@std@@QAE@ABV?$basic_string@DU?$char_traits@D@std@@V?$allocator@D@2@@1@@Z$1 00400008 f   nodesequence.obj
 0001:fffff008       __ehhandler$??0logic_error@std@@QAE@ABV01@@Z 00400008 f   libcpmt:string.obj
 0001:fffff008       __ehhandler$??0logic_error@std@@QAE@ABV?$basic_string@DU?$char_traits@D@std@@V?$allocator@D@2@@1@@Z 00400008 f   texture_res.obj
 0001:fffff008       __ehhandler$??0?$numpunct@D@std@@QAE@ABV_Locinfo@1@I_N@Z 00400008 f   nodesequence.obj
 0001:fffff008       __ehhandler$??$use_facet@V?$numpunct@D@std@@@std@@YAABV?$numpunct@D@0@ABVlocale@0@@Z 00400008 f   nodesequence.obj
 0001:fffff008       __ehhandler$?put@?$basic_ostream@DU?$char_traits@D@std@@@std@@QAEAAV12@D@Z 00400008 f   nodesequence.obj
 0001:fffff008       __unwindfunclet$?do_put@?$num_put@DV?$ostreambuf_iterator@DU?$char_traits@D@std@@@std@@@std@@MBE?AV?$ostreambuf_iterator@DU?$char_traits@D@std@@@2@V32@AAVios_base@2@D_N@Z$1 00400008 f   nodesequence.obj
 0001:fffff008       __ehhandler$??0logic_error@std@@QAE@ABV?$basic_string@DU?$char_traits@D@std@@V?$allocator@D@2@@1@@Z 00400008 f   md3view.obj
 0001:fffff008       __ehhandler$?_Xlen@?$vector@HV?$allocator@H@std@@@std@@KAXXZ 00400008 f   md3view.obj
 0001:fffff008       __unwindfunclet$?_Fput@?$num_put@DV?$ostreambuf_iterator@DU?$char_traits@D@std@@@std@@@std@@ABA?AV?$ostreambuf_iterator@DU?$char_traits@D@std@@@2@V32@AAVios_base@2@DPBDIIII@Z$1 00400008 f   nodesequence.obj
 0001:fffff008       __ehhandler$??0logic_error@std@@QAE@ABV01@@Z 00400008 f   md3view.obj
 0001:fffff008       __unwindfunclet$??6?$basic_ostream@DU?$char_traits@D@std@@@std@@QAEAAV01@PBX@Z$3 00400008 f   nodesequence.obj
 0001:fffff008       __ehhandler$??0runtime_error@std@@QAE@ABV?$basic_string@DU?$char_traits@D@std@@V?$allocator@D@2@@1@@Z 00400008 f   nodesequence.obj
 0001:fffff008       __ehhandler$??0?$vector@HV?$allocator@H@std@@@std@@QAE@XZ 00400008 f   md3view.obj
 0001:fffff008       __ehhandler$??0logic_error@std@@QAE@ABV?$basic_string@DU?$char_traits@D@std@@V?$allocator@D@2@@1@@Z 00400008 f   md3IO.obj
 0001:fffff008       __unwindfunclet$??6?$basic_ostream@DU?$char_traits@D@std@@@std@@QAEAAV01@H@Z$3 00400008 f   nodesequence.obj
 0001:fffff008       __ehhandler$??$?6U?$char_traits@D@std@@@std@@YAAAV?$basic_ostream@DU?$char_traits@D@std@@@0@AAV10@PBD@Z 00400008 f   nodesequence.obj
 0001:fffff008       __ehhandler$??0logic_error@std@@QAE@ABV01@@Z 00400008 f   md3gl.obj
 0001:fffff008       __ehhandler$??1sentry@?$basic_ostream@DU?$char_traits@D@std@@@std@@QAE@XZ 00400008 f   nodesequence.obj
 0001:fffff008       __ehhandler$??0logic_error@std@@QAE@ABV?$basic_string@DU?$char_traits@D@std@@V?$allocator@D@2@@1@@Z 00400008 f   md3gl.obj
 0001:fffff008       __ehhandler$??0logic_error@std@@QAE@ABV01@@Z 00400008 f   md3IO.obj
 0001:fffff008       __unwindfunclet$?_Iput@?$num_put@DV?$ostreambuf_iterator@DU?$char_traits@D@std@@@std@@@std@@ABA?AV?$ostreambuf_iterator@DU?$char_traits@D@std@@@2@V32@AAVios_base@2@DPADI@Z$1 00400008 f   nodesequence.obj
 0001:fffff008       __ehhandler$??0sentry@?$basic_ostream@DU?$char_traits@D@std@@@std@@QAE@AAV12@@Z 00400008 f   nodesequence.obj
 0001:fffff008       __ehhandler$??0logic_error@std@@QAE@ABV01@@Z 00400008 f   texture_res.obj
 0001:fffff008       __unwindfunclet$?clear@ios_base@std@@QAEXH_N@Z$1 00400008 f   libcpmt:cout.obj
 0001:fffff00e       __unwindfunclet$?_Getcat@?$numpunct@D@std@@SAIPAPBVfacet@locale@2@PBV42@@Z$1 0040000e f   nodesequence.obj
 0001:fffff00e       __unwindfunclet$?_Getcat@?$num_put@DV?$ostreambuf_iterator@DU?$char_traits@D@std@@@std@@@std@@SAIPAPBVfacet@locale@2@PBV42@@Z$1 0040000e f   nodesequence.obj
 0001:fffff010       __ehhandler$?_Iput@?$num_put@DV?$ostreambuf_iterator@DU?$char_traits@D@std@@@std@@@std@@ABA?AV?$ostreambuf_iterator@DU?$char_traits@D@std@@@2@V32@AAVios_base@2@DPADI@Z 00400010 f   nodesequence.obj
 0001:fffff010       __unwindfunclet$?clear@ios_base@std@@QAEXH_N@Z$2 00400010 f   nodesequence.obj
 0001:fffff010       __unwindfunclet$?clear@ios_base@std@@QAEXH_N@Z$2 00400010 f   libcpmt:cout.obj
 0001:fffff010       __unwindfunclet$?_Fput@?$num_put@DV?$ostreambuf_iterator@DU?$char_traits@D@std@@@std@@@std@@ABA?AV?$ostreambuf_iterator@DU?$char_traits@D@std@@@2@V32@AAVios_base@2@DPBDIIII@Z$2 00400010 f   nodesequence.obj
 0001:fffff010       __unwindfunclet$?do_put@?$num_put@DV?$ostreambuf_iterator@DU?$char_traits@D@std@@@std@@@std@@MBE?AV?$ostreambuf_iterator@DU?$char_traits@D@std@@@2@V32@AAVios_base@2@D_N@Z$2 00400010 f   nodesequence.obj
 0001:fffff010       __ehhandler$??6?$basic_ostream@DU?$char_traits@D@std@@@std@@QAEAAV01@PBX@Z 00400010 f   nodesequence.obj
 0001:fffff010       __ehhandler$??6?$basic_ostream@DU?$char_traits@D@std@@@std@@QAEAAV01@H@Z 00400010 f   nodesequence.obj
 0001:fffff013       __unwindfunclet$??1_Locinfo@std@@QAE@XZ$2 00400013 f   nodesequence.obj
 0001:fffff013       __unwindfunclet$??1_Locinfo@std@@QAE@XZ$2 00400013 f   libcpmt:cout.obj
 0001:fffff013       __unwindfunclet$??0_Locinfo@std@@QAE@ABV?$basic_string@DU?$char_traits@D@std@@V?$allocator@D@2@@1@@Z$2 00400013 f   libcpmt:cout.obj
 0001:fffff013       __unwindfunclet$??0_Locinfo@std@@QAE@ABV?$basic_string@DU?$char_traits@D@std@@V?$allocator@D@2@@1@@Z$2 00400013 f   nodesequence.obj
 0001:fffff018       __ehhandler$?clear@ios_base@std@@QAEXH_N@Z 00400018 f   libcpmt:cout.obj
 0001:fffff018       __unwindfunclet$?do_put@?$num_put@DV?$ostreambuf_iterator@DU?$char_traits@D@std@@@std@@@std@@MBE?AV?$ostreambuf_iterator@DU?$char_traits@D@std@@@2@V32@AAVios_base@2@D_N@Z$3 00400018 f   nodesequence.obj
 0001:fffff018       __ehhandler$?_Fput@?$num_put@DV?$ostreambuf_iterator@DU?$char_traits@D@std@@@std@@@std@@ABA?AV?$ostreambuf_iterator@DU?$char_traits@D@std@@@2@V32@AAVios_base@2@DPBDIIII@Z 00400018 f   nodesequence.obj
 0001:fffff018       __ehhandler$?clear@ios_base@std@@QAEXH_N@Z 00400018 f   nodesequence.obj
 0001:fffff01e       __unwindfunclet$??0_Locinfo@std@@QAE@ABV?$basic_string@DU?$char_traits@D@std@@V?$allocator@D@2@@1@@Z$3 0040001e f   libcpmt:cout.obj
 0001:fffff01e       __unwindfunclet$??1_Locinfo@std@@QAE@XZ$3 0040001e f   libcpmt:cout.obj
 0001:fffff01e       __unwindfunclet$??0_Locinfo@std@@QAE@ABV?$basic_string@DU?$char_traits@D@std@@V?$allocator@D@2@@1@@Z$3 0040001e f   nodesequence.obj
 0001:fffff01e       __unwindfunclet$??1_Locinfo@std@@QAE@XZ$3 0040001e f   nodesequence.obj
 0001:fffff020       __ehhandler$?do_put@?$num_put@DV?$ostreambuf_iterator@DU?$char_traits@D@std@@@std@@@std@@MBE?AV?$ostreambuf_iterator@DU?$char_traits@D@std@@@2@V32@AAVios_base@2@D_N@Z 00400020 f   nodesequence.obj
 0001:fffff029       __unwindfunclet$??0_Locinfo@std@@QAE@ABV?$basic_string@DU?$char_traits@D@std@@V?$allocator@D@2@@1@@Z$4 00400029 f   nodesequence.obj
 0001:fffff029       __unwindfunclet$??0_Locinfo@std@@QAE@ABV?$basic_string@DU?$char_traits@D@std@@V?$allocator@D@2@@1@@Z$4 00400029 f   libcpmt:cout.obj
 0001:fffff029       __unwindfunclet$??1_Locinfo@std@@QAE@XZ$4 00400029 f   nodesequence.obj
 0001:fffff029       __unwindfunclet$??1_Locinfo@std@@QAE@XZ$4 00400029 f   libcpmt:cout.obj
 0001:fffff030       __unwindfunclet$?_Getcat@?$numpunct@D@std@@SAIPAPBVfacet@locale@2@PBV42@@Z$2 00400030 f   nodesequence.obj
 0001:fffff030       __ehhandler$?_Getcat@?$num_put@DV?$ostreambuf_iterator@DU?$char_traits@D@std@@@std@@@std@@SAIPAPBVfacet@locale@2@PBV42@@Z 00400030 f   nodesequence.obj
 0001:fffff034       __ehhandler$??1_Locinfo@std@@QAE@XZ 00400034 f   libcpmt:cout.obj
 0001:fffff034       __ehhandler$??0_Locinfo@std@@QAE@ABV?$basic_string@DU?$char_traits@D@std@@V?$allocator@D@2@@1@@Z 00400034 f   libcpmt:cout.obj
 0001:fffff034       __ehhandler$??1_Locinfo@std@@QAE@XZ 00400034 f   nodesequence.obj
 0001:fffff034       __ehhandler$??0_Locinfo@std@@QAE@ABV?$basic_string@DU?$char_traits@D@std@@V?$allocator@D@2@@1@@Z 00400034 f   nodesequence.obj
 0001:fffff04f       __ehhandler$?_Getcat@?$numpunct@D@std@@SAIPAPBVfacet@locale@2@PBV42@@Z 0040004f f   nodesequence.obj
 0001:fffff053       __catch$?_Osfx@?$basic_ostream@DU?$char_traits@D@std@@@std@@QAEXXZ$0 00400053 f   nodesequence.obj
 0001:fffff059       __catch$?_Copy@?$basic_string@DU?$char_traits@D@std@@V?$allocator@D@2@@std@@IAEXII@Z$0 00400059 f   libcpmt:locale0.obj
 0001:fffff059       __catch$?_Copy@?$basic_string@DU?$char_traits@D@std@@V?$allocator@D@2@@std@@IAEXII@Z$0 00400059 f   libcpmt:string.obj
 0001:fffff059       __catch$?_Copy@?$basic_string@DU?$char_traits@D@std@@V?$allocator@D@2@@std@@IAEXII@Z$0 00400059 f   libcpmt:cout.obj
 0001:fffff07d       __catch$?_Copy@?$basic_string@DU?$char_traits@D@std@@V?$allocator@D@2@@std@@IAEXII@Z$0 0040007d f   nodesequence.obj
 0001:fffff07d       __catch$?_Copy@?$basic_string@DU?$char_traits@D@std@@V?$allocator@D@2@@std@@IAEXII@Z$0 0040007d f   md3view.obj
 0001:fffff07d       __catch$?_Copy@?$basic_string@DU?$char_traits@D@std@@V?$allocator@D@2@@std@@IAEXII@Z$0 0040007d f   md3gl.obj
 0001:fffff07d       __catch$?_Copy@?$basic_string@DU?$char_traits@D@std@@V?$allocator@D@2@@std@@IAEXII@Z$0 0040007d f   md3IO.obj
 0001:fffff07d       __catch$?_Copy@?$basic_string@DU?$char_traits@D@std@@V?$allocator@D@2@@std@@IAEXII@Z$0 0040007d f   texture_res.obj
 0001:fffff07d       __catch$?_Copy@?$basic_string@DU?$char_traits@D@std@@V?$allocator@D@2@@std@@IAEXII@Z$0 0040007d f   nodedictionary.obj
 0001:fffff09a       __catch$?put@?$basic_ostream@DU?$char_traits@D@std@@@std@@QAEAAV12@D@Z$0 0040009a f   nodesequence.obj
 0001:fffff0ca       __catch$?_Copy@?$basic_string@DU?$char_traits@D@std@@V?$allocator@D@2@@std@@IAEXII@Z$1 004000ca f   libcpmt:string.obj
 0001:fffff0ca       __catch$?_Copy@?$basic_string@DU?$char_traits@D@std@@V?$allocator@D@2@@std@@IAEXII@Z$1 004000ca f   libcpmt:cout.obj
 0001:fffff0ca       __catch$?_Copy@?$basic_string@DU?$char_traits@D@std@@V?$allocator@D@2@@std@@IAEXII@Z$1 004000ca f   libcpmt:locale0.obj
 0001:fffff102       __catch$??6?$basic_ostream@DU?$char_traits@D@std@@@std@@QAEAAV01@H@Z$0 00400102 f   nodesequence.obj
 0001:fffff102       __catch$??6?$basic_ostream@DU?$char_traits@D@std@@@std@@QAEAAV01@PBX@Z$0 00400102 f   nodesequence.obj
 0001:fffff10e       __catch$?_Copy@?$basic_string@DU?$char_traits@D@std@@V?$allocator@D@2@@std@@IAEXII@Z$1 0040010e f   texture_res.obj
 0001:fffff10e       __catch$?_Copy@?$basic_string@DU?$char_traits@D@std@@V?$allocator@D@2@@std@@IAEXII@Z$1 0040010e f   md3IO.obj
 0001:fffff10e       __catch$?_Copy@?$basic_string@DU?$char_traits@D@std@@V?$allocator@D@2@@std@@IAEXII@Z$1 0040010e f   md3gl.obj
 0001:fffff10e       __catch$?_Copy@?$basic_string@DU?$char_traits@D@std@@V?$allocator@D@2@@std@@IAEXII@Z$1 0040010e f   nodesequence.obj
 0001:fffff10e       __catch$?_Copy@?$basic_string@DU?$char_traits@D@std@@V?$allocator@D@2@@std@@IAEXII@Z$1 0040010e f   nodedictionary.obj
 0001:fffff10e       __catch$?_Copy@?$basic_string@DU?$char_traits@D@std@@V?$allocator@D@2@@std@@IAEXII@Z$1 0040010e f   md3view.obj
 0001:fffff15a       __catch$?_Init@?$numpunct@D@std@@IAEXABV_Locinfo@2@_N@Z$0 0040015a f   nodesequence.obj
 0001:fffff1c1       __catch$??$?6U?$char_traits@D@std@@@std@@YAAAV?$basic_ostream@DU?$char_traits@D@std@@@0@AAV10@PBD@Z$0 004001c1 f   nodesequence.obj
 0001:0000125d       __catch$?_Copy@?$basic_string@DU?$char_traits@D@std@@V?$allocator@D@2@@std@@IAEXII@Z$0 0040225d f i animation.obj
 0001:000012ee       __catch$?_Copy@?$basic_string@DU?$char_traits@D@std@@V?$allocator@D@2@@std@@IAEXII@Z$1 004022ee f i animation.obj
 0001:00002169       __catch$??$_Uninit_copy@PAUSequence_t@@PAU1@V?$allocator@USequence_t@@@std@@@std@@YAPAUSequence_t@@PAU1@00AAV?$allocator@USequence_t@@@0@U_Nonscalar_ptr_iterator_tag@0@U_Range_checked_iterator_tag@0@@Z$0 00403169 f i animation.obj
 0001:000023b7       __catch$??$_Uninit_fill_n@PAUSequence_t@@IU1@V?$allocator@USequence_t@@@std@@@std@@YAXPAUSequence_t@@IABU1@AAV?$allocator@USequence_t@@@0@U_Nonscalar_ptr_iterator_tag@0@U_Range_checked_iterator_tag@0@@Z$0 004033b7 f i animation.obj
 0001:00003129       __catch$?_Insert_n@?$vector@USequence_t@@V?$allocator@USequence_t@@@std@@@std@@IAEXV?$_Vector_const_iterator@USequence_t@@V?$allocator@USequence_t@@@std@@@2@IABUSequence_t@@@Z$0 00404129 f i animation.obj
 0001:00003223       __catch$?_Insert_n@?$vector@USequence_t@@V?$allocator@USequence_t@@@std@@@std@@IAEXV?$_Vector_const_iterator@USequence_t@@V?$allocator@USequence_t@@@std@@@2@IABUSequence_t@@@Z$2 00404223 f i animation.obj
 0001:00004180       ?BMP_FlipTrueColour@@YA_NPBD@Z 00405180 f   bmp.obj
 0001:00004b40       ?Filename_StripQuakeBase@@YAPBDPBD@Z 00405b40 f   g2export.obj
 0001:00004b90       ?ForwardSlash@@YAXPAD@Z    00405b90 f   g2export.obj
 0001:00004bb0       ?ExportGhoul2FromMD3_Main@@YAPADPAU_iobuf@@PBD@Z 00405bb0 f   g2export.obj
 0001:000051af       __catch$_LoadJPG$0         004061af f   jpeg_interface.obj
 0001:0000b1ac       __catch$?_Insert_n@?$vector@UNormal@@V?$allocator@UNormal@@@std@@@std@@IAEXV?$_Vector_const_iterator@UNormal@@V?$allocator@UNormal@@@std@@@2@IABUNormal@@@Z$0 0040c1ac f i md3gl.obj
 0001:0000b1b8       __catch$?_Insert_n@?$vector@UNormal@@V?$allocator@UNormal@@@std@@@std@@IAEXV?$_Vector_const_iterator@UNormal@@V?$allocator@UNormal@@@std@@@2@IABUNormal@@@Z$2 0040c1b8 f i md3gl.obj
 0001:0000ccb0       ?Model_AccountForLOD@@YAPAUgl_model@@PAU1@H@Z 0040dcb0 f   md3IO.obj
 0001:0000ce30       ?EnsureQuakeTablesSetup@@YAXXZ 0040de30 f   md3IO.obj
 0001:0000d940       ?R_LoadMD4@@YAHPAUmodel_s@@PAXPBD@Z 0040e940 f   md3IO.obj
 0001:0000f31c       __catch$?_Buynode@?$list@V?$basic_string@DU?$char_traits@D@std@@V?$allocator@D@2@@std@@V?$allocator@V?$basic_string@DU?$char_traits@D@std@@V?$allocator@D@2@@std@@@2@@std@@IAEPAU_Node@?$_List_nod@V?$basic_string@DU?$char_traits@D@std@@V?$allocator@D@2@@std@@V?$allocator@V?$basic_string@DU?$char_traits@D@std@@V?$allocator@D@2@@std@@@2@@2@PAU342@0ABV?$basic_string@DU?$char_traits@D@std@@V?$allocator@D@2@@2@@Z$0 0041031c f i md3IO.obj
 0001:000132da       __catch$?_Init@?$numpunct@D@std@@IAEXABV_Locinfo@2@_N@Z$0 004142da f i nodedictionary.obj
 0001:00015663       __catch$?_Osfx@?$basic_ostream@DU?$char_traits@D@std@@@std@@QAEXXZ$0 00416663 f i nodedictionary.obj
 0001:000158a1       __catch$??$?6U?$char_traits@D@std@@@std@@YAAAV?$basic_ostream@DU?$char_traits@D@std@@@0@AAV10@PBD@Z$0 004168a1 f i nodedictionary.obj
 0001:000159f2       __catch$??6?$basic_ostream@DU?$char_traits@D@std@@@std@@QAEAAV01@H@Z$0 004169f2 f i nodedictionary.obj
 0001:00015b42       __catch$??6?$basic_ostream@DU?$char_traits@D@std@@@std@@QAEAAV01@PBX@Z$0 00416b42 f i nodedictionary.obj
 0001:00015c2a       __catch$?put@?$basic_ostream@DU?$char_traits@D@std@@@std@@QAEAAV12@D@Z$0 00416c2a f i nodedictionary.obj
 0001:00018e90       ?RI_malloc@@YAPAXH@Z       00419e90 f   texture_res.obj
 0001:00018f10       ?R_MipMap2@@YAXPAIHH@Z     00419f10 f   texture_res.obj
 0001:000191d0       ?R_MipMap@@YAXPAEHH@Z      0041a1d0 f   texture_res.obj
 0001:000193a0       ?ResampleTexture@@YAXPAIHH0HH@Z 0041a3a0 f   texture_res.obj
 0001:00019560       ?R_BlendOverTexture@@YAXPAEHQAE@Z 0041a560 f   texture_res.obj
 0001:00019eb0       ?Upload32@@YAXPAIHHHHHPAH11@Z 0041aeb0 f   texture_res.obj
 0001:0001a4a0       ?Texture_BindAndUpload@@YAXPAUTextureGL@@@Z 0041b4a0 f   texture_res.obj
 0001:0001aec0       ?InitCvar@@YAPAUcvar_t@@H@Z 0041bec0 f   texture_res.obj
 0001:0001c500       ?GLW_ChoosePFD@@YAHPAUHDC__@@PAUtagPIXELFORMATDESCRIPTOR@@@Z 0041d500 f   win32_msg.obj
 0001:0001e540       _default_decompress_parms  0041f540 f   jdapimin.obj
 0001:0001e9d0       _output_pass_setup         0041f9d0 f   jdapistd.obj
 0001:0001ec40       _init_source               0041fc40 f   jdatasrc.obj
 0001:0001ec50       _fill_input_buffer         0041fc50 f   jdatasrc.obj
 0001:0001ec90       _skip_input_data           0041fc90 f   jdatasrc.obj
 0001:0001ecd0       _term_source               0041fcd0 f   jdatasrc.obj
 0001:0001ed50       _start_iMCU_row            0041fd50 f   jdcoefct.obj
 0001:0001eda0       _start_input_pass          0041fda0 f   jdcoefct.obj
 0001:0001edc0       _start_output_pass         0041fdc0 f   jdcoefct.obj
 0001:0001edd0       _decompress_onepass        0041fdd0 f   jdcoefct.obj
 0001:0001f000       _dummy_consume_data        00420000 f   jdcoefct.obj
 0001:0001f0e0       _build_ycc_rgb_table       004200e0 f   jdcolor.obj
 0001:0001f1b0       _ycc_rgb_convert           004201b0 f   jdcolor.obj
 0001:0001f2d0       _null_convert              004202d0 f   jdcolor.obj
 0001:0001f360       _grayscale_convert         00420360 f   jdcolor.obj
 0001:0001f390       _ycck_cmyk_convert         00420390 f   jdcolor.obj
 0001:0001f4e0       _start_pass_dcolor         004204e0 f   jdcolor.obj
 0001:0001f650       _start_pass                00420650 f   jddctmgr.obj
 0001:0001fcb0       _process_restart           00420cb0 f   jdhuff.obj
 0001:0001fd20       _decode_mcu                00420d20 f   jdhuff.obj
 0001:00020150       _start_pass_huff_decoder   00421150 f   jdhuff.obj
 0001:000202e0       _initial_setup             004212e0 f   jdinput.obj
 0001:000204e0       _per_scan_setup            004214e0 f   jdinput.obj
 0001:00020680       _latch_quant_tables        00421680 f   jdinput.obj
 0001:00020720       _start_input_pass          00421720 f   jdinput.obj
 0001:00020760       _consume_markers           00421760 f   jdinput.obj
 0001:00020820       _reset_input_controller    00421820 f   jdinput.obj
 0001:00020860       _finish_input_pass         00421860 f   jdinput.obj
 0001:000208d0       _alloc_funny_pointers      004218d0 f   jdmainct.obj
 0001:00020980       _make_funny_pointers       00421980 f   jdmainct.obj
 0001:00020ac0       _set_wraparound_pointers   00421ac0 f   jdmainct.obj
 0001:00020ba0       _set_bottom_pointers       00421ba0 f   jdmainct.obj
 0001:00020c40       _process_data_simple_main  00421c40 f   jdmainct.obj
 0001:00020cb0       _process_data_context_main 00421cb0 f   jdmainct.obj
 0001:00020df0       _start_pass_main           00421df0 f   jdmainct.obj
 0001:00020f40       _get_soi                   00421f40 f   jdmarker.obj
 0001:00020fe0       _get_sof                   00421fe0 f   jdmarker.obj
 0001:000212e0       _get_sos                   004222e0 f   jdmarker.obj
 0001:000215e0       _get_app0                  004225e0 f   jdmarker.obj
 0001:00021880       _get_app14                 00422880 f   jdmarker.obj
 0001:00021a50       _get_dac                   00422a50 f   jdmarker.obj
 0001:00021bc0       _get_dht                   00422bc0 f   jdmarker.obj
 0001:00021ec0       _get_dqt                   00422ec0 f   jdmarker.obj
 0001:000220f0       _get_dri                   004230f0 f   jdmarker.obj
 0001:000221f0       _skip_variable             004231f0 f   jdmarker.obj
 0001:000222a0       _next_marker               004232a0 f   jdmarker.obj
 0001:000223c0       _first_marker              004233c0 f   jdmarker.obj
 0001:00022460       _read_markers              00423460 f   jdmarker.obj
 0001:00022800       _read_restart_marker       00423800 f   jdmarker.obj
 0001:000229a0       _reset_marker_reader       004239a0 f   jdmarker.obj
 0001:00022a70       _use_merged_upsample       00423a70 f   jdmaster.obj
 0001:00022b20       _prepare_range_limit_table 00423b20 f   jdmaster.obj
 0001:00022bb0       _master_selection          00423bb0 f   jdmaster.obj
 0001:00022d40       _prepare_for_output_pass   00423d40 f   jdmaster.obj
 0001:00022e80       _finish_output_pass        00423e80 f   jdmaster.obj
 0001:00022ef0       _post_process_1pass        00423ef0 f   jdpostct.obj
 0001:00022f70       _start_pass_dpost          00423f70 f   jdpostct.obj
 0001:00023070       _start_pass_upsample       00424070 f   jdsample.obj
 0001:00023090       _sep_upsample              00424090 f   jdsample.obj
 0001:00023160       _fullsize_upsample         00424160 f   jdsample.obj
 0001:00023170       _noop_upsample             00424170 f   jdsample.obj
 0001:00023180       _int_upsample              00424180 f   jdsample.obj
 0001:00023260       _h2v1_upsample             00424260 f   jdsample.obj
 0001:000232c0       _h2v2_upsample             004242c0 f   jdsample.obj
 0001:00023330       _h2v1_fancy_upsample       00424330 f   jdsample.obj
 0001:000233f0       _h2v2_fancy_upsample       004243f0 f   jdsample.obj
 0001:00023710       _transdecode_master_selection 00424710 f   jdtrans.obj
 0001:00023880       _error_exit                00424880 f   jerror.obj
 0001:000238e0       _output_message            004248e0 f   jerror.obj
 0001:00023930       _emit_message              00424930 f   jerror.obj
 0001:00023970       _format_message            00424970 f   jerror.obj
 0001:00023a20       _reset_error_mgr           00424a20 f   jerror.obj
 0001:00023ff0       _out_of_memory             00424ff0 f   jmemmgr.obj
 0001:00024010       _alloc_small               00425010 f   jmemmgr.obj
 0001:00024140       _alloc_large               00425140 f   jmemmgr.obj
 0001:000241e0       _alloc_sarray              004251e0 f   jmemmgr.obj
 0001:00024290       _alloc_barray              00425290 f   jmemmgr.obj
 0001:00024340       _request_virt_sarray       00425340 f   jmemmgr.obj
 0001:000243b0       _request_virt_barray       004253b0 f   jmemmgr.obj
 0001:00024420       _realize_virt_arrays       00425420 f   jmemmgr.obj
 0001:000245c0       _do_sarray_io              004255c0 f   jmemmgr.obj
 0001:00024660       _do_barray_io              00425660 f   jmemmgr.obj
 0001:00024700       _access_virt_sarray        00425700 f   jmemmgr.obj
 0001:00024840       _access_virt_barray        00425840 f   jmemmgr.obj
 0001:00024990       _free_pool                 00425990 f   jmemmgr.obj
 0001:00024aa0       _self_destruct             00425aa0 f   jmemmgr.obj
 0001:000260e0       _putShortMSB               004270e0 f   deflate.obj
 0001:00026110       _flush_pending             00427110 f   deflate.obj
 0001:00026630       _read_buf                  00427630 f   deflate.obj
 0001:00026680       _lm_init                   00427680 f   deflate.obj
 0001:00026710       _longest_match             00427710 f   deflate.obj
 0001:00026870       _fill_window               00427870 f   deflate.obj
 0001:00026970       _deflate_stored            00427970 f   deflate.obj
 0001:00026aa0       _deflate_fast              00427aa0 f   deflate.obj
 0001:00026d80       _deflate_slow              00427d80 f   deflate.obj
 0001:000291e0       _huft_build                0042a1e0 f   inftrees.obj
 0001:000299a0       _tr_static_init            0042a9a0 f   trees.obj
 0001:000299b0       _init_block                0042a9b0 f   trees.obj
 0001:00029a30       _pqdownheap                0042aa30 f   trees.obj
 0001:00029b00       _gen_bitlen                0042ab00 f   trees.obj
 0001:00029d20       _scan_tree                 0042ad20 f   trees.obj
 0001:00029e00       _send_tree                 0042ae00 f   trees.obj
 0001:0002a310       _send_all_trees            0042b310 f   trees.obj
 0001:0002a610       _compress_block            0042b610 f   trees.obj
 0001:0002aa10       _set_data_type             0042ba10 f   trees.obj
 0001:0002aac0       _bi_reverse                0042bac0 f   trees.obj
 0001:0002aae0       _bi_flush                  0042bae0 f   trees.obj
 0001:0002ab60       _bi_windup                 0042bb60 f   trees.obj
 0001:0002abc0       _copy_block                0042bbc0 f   trees.obj
 0001:0002acc0       _gen_codes                 0042bcc0 f   trees.obj
 0001:0002ad40       _build_tree                0042bd40 f   trees.obj
 0001:0002af40       _build_bl_tree             0042bf40 f   trees.obj
 0001:0002bb7d       _tidy_global               0042cb7d f   libcpmt:locale0.obj
 0001:0002d63b       __CreateLocForCP           0042e63b f   libcpmt:xmbtowc.obj
 0001:0002d718       __ReleaseCPLocHash         0042e718 f   libcpmt:xmbtowc.obj
 0001:0002d758       __InitCPLocHash            0042e758 f   libcpmt:xmbtowc.obj
 0001:0002e629       ?CatchGuardHandler@@YA?AW4_EXCEPTION_DISPOSITION@@PAUEHExceptionRecord@@PAUCatchGuardRN@@PAX2@Z 0042f629 f   LIBCMT:_trnsctrl_.obj
 0001:0002e733       ?TranslatorGuardHandler@@YA?AW4_EXCEPTION_DISPOSITION@@PAUEHExceptionRecord@@PAUTranslatorGuardRN@@PAX2@Z 0042f733 f   LIBCMT:_trnsctrl_.obj
 0001:0002ed01       _vscan_fn                  0042fd01 f   LIBCMT:sscanf.obj
 0001:0002f11a       __onexit_nolock            0043011a f   LIBCMT:onexit.obj
 0001:00030193       __initterm                 00431193 f   LIBCMT:crt0dat.obj
 0001:000302d1       _doexit                    004312d1 f   LIBCMT:crt0dat.obj
 0001:0003257f       __getenv_s_helper          0043357f f   LIBCMT:getenv.obj
 0001:00032614       __dupenv_s_helper          00433614 f   LIBCMT:getenv.obj
 0001:00032aa3       _fast_error_exit           00433aa3 f   LIBCMT:wincrt0.obj
 0001:00032acc       _check_managed_app         00433acc f   LIBCMT:wincrt0.obj
 0001:00032b13       ___tmainCRTStartup         00433b13 f   LIBCMT:wincrt0.obj
 0001:0003376e       __copytlocinfo_nolock      0043476e f   LIBCMT:setlocal.obj
 0001:00033794       __updatetlocinfoEx_nolock  00434794 f   LIBCMT:setlocal.obj
 0001:000338b2       _sync_legacy_variables_lk  004348b2 f   LIBCMT:setlocal.obj
 0001:00033c5f       __setlocale_get_all        00434c5f f   LIBCMT:setlocal.obj
 0001:0003400d       __setlocale_set_cat        0043500d f   LIBCMT:setlocal.obj
 0001:0003430f       __setlocale_nolock         0043530f f   LIBCMT:setlocal.obj
 0001:00034973       ?ExFilterRethrow@@YAHPAU_EXCEPTION_POINTERS@@@Z 00435973 f   LIBCMT:frame.obj
 0001:00034d67       ?IsInExceptionSpec@@YAEPAUEHExceptionRecord@@PBU_s_ESTypeList@@@Z 00435d67 f   LIBCMT:frame.obj
 0001:00034de2       ?CallUnexpected@@YAXPBU_s_ESTypeList@@@Z 00435de2 f   LIBCMT:frame.obj
 0001:00034e13       __catch$?CallUnexpected@@YAXPBU_s_ESTypeList@@@Z$0 00435e13 f   LIBCMT:frame.obj
 0001:00034e2b       ?Is_bad_exception_allowed@@YAEPBU_s_ESTypeList@@@Z 00435e2b f   LIBCMT:frame.obj
 0001:00034ee3       ?CallCatchBlock@@YAPAXPAUEHExceptionRecord@@PAUEHRegistrationNode@@PAU_CONTEXT@@PBU_s_FuncInfo@@PAXHK@Z 00435ee3 f   LIBCMT:frame.obj
 0001:000353d5       ?CatchIt@@YAXPAUEHExceptionRecord@@PAUEHRegistrationNode@@PAU_CONTEXT@@PAXPBU_s_FuncInfo@@PBU_s_HandlerType@@PBU_s_CatchableType@@PBU_s_TryBlockMapEntry@@H1E@Z 004363d5 f   LIBCMT:frame.obj
 0001:00035443       ?FindHandlerForForeignException@@YAXPAUEHExceptionRecord@@PAUEHRegistrationNode@@PAU_CONTEXT@@PAXPBU_s_FuncInfo@@HH1@Z 00436443 f   LIBCMT:frame.obj
 0001:00035537       ?FindHandler@@YAXPAUEHExceptionRecord@@PAUEHRegistrationNode@@PAU_CONTEXT@@PAXPBU_s_FuncInfo@@EH1@Z 00436537 f   LIBCMT:frame.obj
 0001:00035b94       _flsall                    00436b94 f   LIBCMT:fflush.obj
 0001:00036030       _xtoa_s@20                 00437030 f   LIBCMT:xtoas.obj
 0001:00036178       @x64toa_s@24               00437178 f   LIBCMT:xtoas.obj
 0001:0003645f       ?strncnt@@YAHPBDH@Z        0043745f f   LIBCMT:a_map.obj
 0001:0003647d       ?__crtLCMapStringA_stat@@YAHPAUlocaleinfo_struct@@KKPBDHPADHHH@Z 0043747d f   LIBCMT:a_map.obj
 0001:00037a8f       __shift                    00438a8f f   LIBCMT:cvt.obj
 0001:00037ad4       __cftoe2_l                 00438ad4 f   LIBCMT:cvt.obj
 0001:000380c6       __cftof2_l                 004390c6 f   LIBCMT:cvt.obj
 0001:00038671       _write_char                00439671 f   LIBCMT:output.obj
 0001:000386a4       _write_multi_char          004396a4 f   LIBCMT:output.obj
 0001:000386ca       _write_string              004396ca f   LIBCMT:output.obj
 0001:00039850       _ValidateLocalCookies      0043a850 f   LIBCMT:chandler4.obj
 0001:00039a0c       ___check_float_string      0043aa0c f   LIBCMT:input.obj
 0001:00039a75       __hextodec                 0043aa75 f   LIBCMT:input.obj
 0001:00039a95       __inc                      0043aa95 f   LIBCMT:input.obj
 0001:00039aab       __un_inc                   0043aaab f   LIBCMT:input.obj
 0001:00039abe       __whiteout                 0043aabe f   LIBCMT:input.obj
 0001:0003aaa5       ___check_float_string      0043baa5 f   LIBCMT:inputs.obj
 0001:0003aafc       __hextodec                 0043bafc f   LIBCMT:inputs.obj
 0001:0003ab1c       __inc                      0043bb1c f   LIBCMT:inputs.obj
 0001:0003ab32       __un_inc                   0043bb32 f   LIBCMT:inputs.obj
 0001:0003ab45       __whiteout                 0043bb45 f   LIBCMT:inputs.obj
 0001:0003c4f4       __unwind_handler4          0043d4f4 f   LIBCMT:exsup4.obj
 0001:0003c5b7       _fastzero_I                0043d5b7 f   LIBCMT:p4_memset.obj
 0001:0003c69d       _has_osfxsr_set            0043d69d f   LIBCMT:cpu_disp.obj
 0001:0003eb6b       _fastcopy_I                0043fb6b f   LIBCMT:p4_memcpy.obj
 0001:0003ee7e       _xcptlookup                0043fe7e f   LIBCMT:winxfltr.obj
 0001:0003f051       _ctrlevent_capture@4       00440051 f   LIBCMT:winsig.obj
 0001:0003f0ec       _siglookup                 004400ec f   LIBCMT:winsig.obj
 0001:0003f96e       _write_char                0044096e f   LIBCMT:outputp.obj
 0001:0003f9a1       _write_multi_char          004409a1 f   LIBCMT:outputp.obj
 0001:0003f9c7       _write_string              004409c7 f   LIBCMT:outputp.obj
 0001:000433a9       ?CPtoLCID@@YAHH@Z          004443a9 f   LIBCMT:mbctype.obj
 0001:000433d8       ?setSBCS@@YAXPAUthreadmbcinfostruct@@@Z 004443d8 f   LIBCMT:mbctype.obj
 0001:0004343c       ?setSBUpLow@@YAXPAUthreadmbcinfostruct@@@Z 0044443c f   LIBCMT:mbctype.obj
 0001:00043673       ?getSystemCP@@YAHH@Z       00444673 f   LIBCMT:mbctype.obj
 0001:00045340       _parse_cmdline             00446340 f   LIBCMT:stdargv.obj
 0001:00045762       ?__crtGetStringTypeA_stat@@YAHPAUlocaleinfo_struct@@KPBDHPAGHHH@Z 00446762 f   LIBCMT:a_str.obj
 0001:0004595e       __get_lc_time              0044695e f   LIBCMT:inittime.obj
 0001:00045f87       _fix_grouping              00446f87 f   LIBCMT:initnum.obj
 0001:000461c9       _fix_grouping              004471c9 f   LIBCMT:initmon.obj
 0001:00046ac5       ?_store_str@@YAXPADPAPADPAI@Z 00447ac5 f   LIBCMT:strftime.obj
 0001:00046ae5       ?_store_number@@YAXHPAPADPAI@Z 00447ae5 f   LIBCMT:strftime.obj
 0001:00046b1b       ?_store_num@@YAXHHPAPADPAII@Z 00447b1b f   LIBCMT:strftime.obj
 0001:00046b96       ?_expandtime@@YAHPAUlocaleinfo_struct@@DPBUtm@@PAPADPAIPAU__lc_time_data@@I@Z 00447b96 f   LIBCMT:strftime.obj
 0001:00046f7e       ?_store_winword@@YAHPAUlocaleinfo_struct@@HPBUtm@@PAPADPAIPAU__lc_time_data@@@Z 00447f7e f   LIBCMT:strftime.obj
 0001:0004770b       _TranslateName             0044870b f   LIBCMT:getqloc.obj
 0001:0004776d       _GetLcidFromDefault        0044876d f   LIBCMT:getqloc.obj
 0001:00047781       _ProcessCodePage           00448781 f   LIBCMT:getqloc.obj
 0001:00047825       _TestDefaultCountry        00448825 f   LIBCMT:getqloc.obj
 0001:00047849       _LcidFromHexString         00448849 f   LIBCMT:getqloc.obj
 0001:0004787d       _GetPrimaryLen             0044887d f   LIBCMT:getqloc.obj
 0001:00047898       _CountryEnumProc@4         00448898 f   LIBCMT:getqloc.obj
 0001:00047930       _TestDefaultLanguage       00448930 f   LIBCMT:getqloc.obj
 0001:000479a4       _LangCountryEnumProc@4     004489a4 f   LIBCMT:getqloc.obj
 0001:00047b76       _LanguageEnumProc@4        00448b76 f   LIBCMT:getqloc.obj
 0001:00047c37       _GetLcidFromCountry        00448c37 f   LIBCMT:getqloc.obj
 0001:00047c63       _GetLcidFromLangCountry    00448c63 f   LIBCMT:getqloc.obj
 0001:00047cca       _GetLcidFromLanguage       00448cca f   LIBCMT:getqloc.obj
 0001:00047ef7       _cmpResult                 00448ef7 f   LIBCMT:memcmp.obj
 0001:00047f09       _cmpBYTE                   00448f09 f   LIBCMT:memcmp.obj
 0001:00047f21       _cmpWORD                   00448f21 f   LIBCMT:memcmp.obj
 0001:00047f61       _cmpDWORD                  00448f61 f   LIBCMT:memcmp.obj
 0001:00047fd9       _unaligned_memcmp          00448fd9 f   LIBCMT:memcmp.obj
 0001:0004c202       ?und_strlen@@YAIPBD@Z      0044d202 f   LIBCMT:undname.obj
 0001:0004c210       ?und_memcpy@@YAXPADPBDI@Z  0044d210 f   LIBCMT:undname.obj
 0001:0004c226       ?und_strncmp@@YAIPBD0I@Z   0044d226 f   LIBCMT:undname.obj
 0001:00050b2c       __unwind_handler           00451b2c f   LIBCMT:exsup.obj
 0001:000517a2       _write_char                004527a2 f   LIBCMT:outputs.obj
 0001:000517d5       _write_multi_char          004527d5 f   LIBCMT:outputs.obj
 0001:000517fb       _write_string              004527fb f   LIBCMT:outputs.obj
 0001:00052a3e       __tsopen_nolock            00453a3e f   LIBCMT:open.obj
 0001:00053a6d       ?__crtGetLocaleInfoW_stat@@YAHPAUlocaleinfo_struct@@KKPA_WHH@Z 00454a6d f   LIBCMT:w_loc.obj
 0001:00053aba       ?__crtGetLocaleInfoA_stat@@YAHPAUlocaleinfo_struct@@KKPADHH@Z 00454aba f   LIBCMT:a_loc.obj
 0001:00053c36       ?strtoxl@@YAKPAUlocaleinfo_struct@@PBDPAPBDHH@Z 00454c36 f   LIBCMT:strtol.obj
 0001:00054569       __get_fname                00455569 f   LIBCMT:_fpexcept_.obj
 0001:0005750d       ?strncnt@@YAHPBDH@Z        0045850d f   LIBCMT:a_cmp.obj
 0001:0005752b       ?__crtCompareStringA_stat@@YAHPAUlocaleinfo_struct@@KKPBDH1HH@Z 0045852b f   LIBCMT:a_cmp.obj
 0001:00057a00       _findenv                   00458a00 f   LIBCMT:setenv.obj
 0001:00057a52       _copy_environ              00458a52 f   LIBCMT:setenv.obj
 0001:00057cf7       ?x_ismbbtype_l@@YAHPAUlocaleinfo_struct@@IHH@Z 00458cf7 f   LIBCMT:ismbbyte.obj
 0001:0005814e       __tzset_nolock             0045914e f   LIBCMT:tzset.obj
 0001:00058494       _cvtdate                   00459494 f   LIBCMT:tzset.obj
 0001:0005868b       __isindst_nolock           0045968b f   LIBCMT:tzset.obj
 0001:000595eb       __abstract_cw              0045a5eb f   LIBCMT:_ieee87_.obj
 0001:0005968a       __hw_cw                    0045a68a f   LIBCMT:_ieee87_.obj
 0001:00059718       __abstract_sw              0045a718 f   LIBCMT:_ieee87_.obj
 0001:0005975b       ___abstract_cw_sse2        0045a75b f   LIBCMT:_ieee87_.obj
 0001:000597fb       ___hw_cw_sse2              0045a7fb f   LIBCMT:_ieee87_.obj
 0001:0005989b       ___abstract_sw_sse2        0045a89b f   LIBCMT:_ieee87_.obj
 0001:000598de       ___fpreset_sse2            0045a8de f   LIBCMT:_ieee87_.obj
 0001:000599b4       ___statusfp_sse2           0045a9b4 f   LIBCMT:_ieee87_.obj
 0001:000599ef       ___clearfp_sse2            0045a9ef f   LIBCMT:_ieee87_.obj
 0001:00059a3f       ___control87_sse2          0045aa3f f   LIBCMT:_ieee87_.obj
 0001:0005ad4b       ?__crtGetStringTypeW_stat@@YAHPAUlocaleinfo_struct@@KPB_WHPAGHH@Z 0045bd4b f   LIBCMT:w_str.obj
 0001:0005aed4       ?strtoxq@@YA_KPAUlocaleinfo_struct@@PBDPAPBDHH@Z 0045bed4 f   LIBCMT:strtoq.obj
 0001:0005b47e       ?_strupr_s_l_stat@@YAHPADIPAUlocaleinfo_struct@@@Z 0045c47e f   LIBCMT:strupr.obj
 0001:0005b6d0       __ehhandler$?_Copy@?$basic_string@DU?$char_traits@D@std@@V?$allocator@D@2@@std@@IAEXII@Z 0045c6d0 f   animation.obj
 0001:0005b6f0       __unwindfunclet$??$_Construct@USequence_t@@U1@@std@@YAXPAUSequence_t@@ABU1@@Z$0 0045c6f0 f   animation.obj
 0001:0005b701       __ehhandler$??$_Construct@USequence_t@@U1@@std@@YAXPAUSequence_t@@ABU1@@Z 0045c701 f   animation.obj
 0001:0005b720       __unwindfunclet$??0logic_error@std@@QAE@ABV?$basic_string@DU?$char_traits@D@std@@V?$allocator@D@2@@1@@Z$0 0045c720 f   animation.obj
 0001:0005b728       __ehhandler$??0logic_error@std@@QAE@ABV?$basic_string@DU?$char_traits@D@std@@V?$allocator@D@2@@1@@Z 0045c728 f   animation.obj
 0001:0005b750       __unwindfunclet$?_Xran@?$vector@HV?$allocator@H@std@@@std@@KAXXZ$0 0045c750 f   animation.obj
 0001:0005b758       __ehhandler$?_Xran@?$vector@HV?$allocator@H@std@@@std@@KAXXZ 0045c758 f   animation.obj
 0001:0005b780       __unwindfunclet$??0logic_error@std@@QAE@ABV01@@Z$0 0045c780 f   animation.obj
 0001:0005b788       __ehhandler$??0logic_error@std@@QAE@ABV01@@Z 0045c788 f   animation.obj
 0001:0005b7b0       __unwindfunclet$?_Xlen@?$vector@HV?$allocator@H@std@@@std@@KAXXZ$0 0045c7b0 f   animation.obj
 0001:0005b7b8       __ehhandler$?_Xlen@?$vector@HV?$allocator@H@std@@@std@@KAXXZ 0045c7b8 f   animation.obj
 0001:0005b7e0       __unwindfunclet$?_Xlen@?$vector@USequence_t@@V?$allocator@USequence_t@@@std@@@std@@KAXXZ$0 0045c7e0 f   animation.obj
 0001:0005b7e8       __ehhandler$?_Xlen@?$vector@USequence_t@@V?$allocator@USequence_t@@@std@@@std@@KAXXZ 0045c7e8 f   animation.obj
 0001:0005b810       __ehhandler$??$_Uninit_copy@PAUSequence_t@@PAU1@V?$allocator@USequence_t@@@std@@@std@@YAPAUSequence_t@@PAU1@00AAV?$allocator@USequence_t@@@0@U_Nonscalar_ptr_iterator_tag@0@U_Range_checked_iterator_tag@0@@Z 0045c810 f   animation.obj
 0001:0005b830       __ehhandler$??$_Uninit_fill_n@PAUSequence_t@@IU1@V?$allocator@USequence_t@@@std@@@std@@YAXPAUSequence_t@@IABU1@AAV?$allocator@USequence_t@@@0@U_Nonscalar_ptr_iterator_tag@0@U_Range_checked_iterator_tag@0@@Z 0045c830 f   animation.obj
 0001:0005b850       __unwindfunclet$??0?$vector@HV?$allocator@H@std@@@std@@QAE@XZ$0 0045c850 f   animation.obj
 0001:0005b858       __ehhandler$??0?$vector@HV?$allocator@H@std@@@std@@QAE@XZ 0045c858 f   animation.obj
 0001:0005b880       __unwindfunclet$??0?$vector@USequence_t@@V?$allocator@USequence_t@@@std@@@std@@QAE@XZ$0 0045c880 f   animation.obj
 0001:0005b888       __ehhandler$??0?$vector@USequence_t@@V?$allocator@USequence_t@@@std@@@std@@QAE@XZ 0045c888 f   animation.obj
 0001:0005b8b0       __unwindfunclet$?_Insert_n@?$vector@USequence_t@@V?$allocator@USequence_t@@@std@@@std@@IAEXV?$_Vector_const_iterator@USequence_t@@V?$allocator@USequence_t@@@std@@@2@IABUSequence_t@@@Z$4 0045c8b0 f   animation.obj
 0001:0005b8b8       __unwindfunclet$?_Insert_n@?$vector@USequence_t@@V?$allocator@USequence_t@@@std@@@std@@IAEXV?$_Vector_const_iterator@USequence_t@@V?$allocator@USequence_t@@@std@@@2@IABUSequence_t@@@Z$5 0045c8b8 f   animation.obj
 0001:0005b8c0       __ehhandler$?_Insert_n@?$vector@USequence_t@@V?$allocator@USequence_t@@@std@@@std@@IAEXV?$_Vector_const_iterator@USequence_t@@V?$allocator@USequence_t@@@std@@@2@IABUSequence_t@@@Z 0045c8c0 f   animation.obj
 0001:0005b8f0       __unwindfunclet$?LoadAnimationCFG@@YAXPBDPAUHDC__@@@Z$0 0045c8f0 f   animation.obj
 0001:0005b8fb       __ehhandler$?LoadAnimationCFG@@YAXPBDPAUHDC__@@@Z 0045c8fb f   animation.obj
 0001:0005b930       __unwindfunclet$??__ESequences_LowerAnims@@YAXXZ$0 0045c930 f   animation.obj
 0001:0005b93a       __ehhandler$??__ESequences_LowerAnims@@YAXXZ 0045c93a f   animation.obj
 0001:0005b960       __unwindfunclet$??__ESequences_UpperAnims@@YAXXZ$0 0045c960 f   animation.obj
 0001:0005b96a       __ehhandler$??__ESequences_UpperAnims@@YAXXZ 0045c96a f   animation.obj
 0001:0005b990       __unwindfunclet$??__EMultiSequenceLock_Upper@@YAXXZ$0 0045c990 f   animation.obj
 0001:0005b99a       __ehhandler$??__EMultiSequenceLock_Upper@@YAXXZ 0045c99a f   animation.obj
 0001:0005b9c0       __unwindfunclet$??__EMultiSequenceLock_Lower@@YAXXZ$0 0045c9c0 f   animation.obj
 0001:0005b9ca       __ehhandler$??__EMultiSequenceLock_Lower@@YAXXZ 0045c9ca f   animation.obj
 0001:0005b9f0       __ehhandler$_LoadJPG       0045c9f0 f   jpeg_interface.obj
 0001:0005ba20       __unwindfunclet$?_Xlen@?$vector@UNormal@@V?$allocator@UNormal@@@std@@@std@@KAXXZ$0 0045ca20 f   md3gl.obj
 0001:0005ba28       __ehhandler$?_Xlen@?$vector@UNormal@@V?$allocator@UNormal@@@std@@@std@@KAXXZ 0045ca28 f   md3gl.obj
 0001:0005ba50       __ehhandler$?_Insert_n@?$vector@UNormal@@V?$allocator@UNormal@@@std@@@std@@IAEXV?$_Vector_const_iterator@UNormal@@V?$allocator@UNormal@@@std@@@2@IABUNormal@@@Z 0045ca50 f   md3gl.obj
 0001:0005ba70       __unwindfunclet$??0?$vector@UNormal@@V?$allocator@UNormal@@@std@@@std@@QAE@XZ$0 0045ca70 f   md3gl.obj
 0001:0005ba78       __ehhandler$??0?$vector@UNormal@@V?$allocator@UNormal@@@std@@@std@@QAE@XZ 0045ca78 f   md3gl.obj
 0001:0005baa0       __unwindfunclet$?draw_gl_mesh@@YAXPAUgl_mesh@@PAY02MPAUgl_model@@@Z$1 0045caa0 f   md3gl.obj
 0001:0005baab       __unwindfunclet$?draw_gl_mesh@@YAXPAUgl_mesh@@PAY02MPAUgl_model@@@Z$0 0045caab f   md3gl.obj
 0001:0005bab6       __ehhandler$?draw_gl_mesh@@YAXPAUgl_mesh@@PAY02MPAUgl_model@@@Z 0045cab6 f   md3gl.obj
 0001:0005bae0       __unwindfunclet$??$_Construct@V?$basic_string@DU?$char_traits@D@std@@V?$allocator@D@2@@std@@V12@@std@@YAXPAV?$basic_string@DU?$char_traits@D@std@@V?$allocator@D@2@@0@ABV10@@Z$0 0045cae0 f   md3IO.obj
 0001:0005baf1       __ehhandler$??$_Construct@V?$basic_string@DU?$char_traits@D@std@@V?$allocator@D@2@@std@@V12@@std@@YAXPAV?$basic_string@DU?$char_traits@D@std@@V?$allocator@D@2@@0@ABV10@@Z 0045caf1 f   md3IO.obj
 0001:0005bb10       __unwindfunclet$??0?$list@V?$basic_string@DU?$char_traits@D@std@@V?$allocator@D@2@@std@@V?$allocator@V?$basic_string@DU?$char_traits@D@std@@V?$allocator@D@2@@std@@@2@@std@@QAE@XZ$0 0045cb10 f   md3IO.obj
 0001:0005bb18       __ehhandler$??0?$list@V?$basic_string@DU?$char_traits@D@std@@V?$allocator@D@2@@std@@V?$allocator@V?$basic_string@DU?$char_traits@D@std@@V?$allocator@D@2@@std@@@2@@std@@QAE@XZ 0045cb18 f   md3IO.obj
 0001:0005bb40       __unwindfunclet$?_Incsize@?$list@V?$basic_string@DU?$char_traits@D@std@@V?$allocator@D@2@@std@@V?$allocator@V?$basic_string@DU?$char_traits@D@std@@V?$allocator@D@2@@std@@@2@@std@@IAEXI@Z$0 0045cb40 f   md3IO.obj
 0001:0005bb48       __ehhandler$?_Incsize@?$list@V?$basic_string@DU?$char_traits@D@std@@V?$allocator@D@2@@std@@V?$allocator@V?$basic_string@DU?$char_traits@D@std@@V?$allocator@D@2@@std@@@2@@std@@IAEXI@Z 0045cb48 f   md3IO.obj
 0001:0005bb70       __ehhandler$?_Buynode@?$list@V?$basic_string@DU?$char_traits@D@std@@V?$allocator@D@2@@std@@V?$allocator@V?$basic_string@DU?$char_traits@D@std@@V?$allocator@D@2@@std@@@2@@std@@IAEPAU_Node@?$_List_nod@V?$basic_string@DU?$char_traits@D@std@@V?$allocator@D@2@@std@@V?$allocator@V?$basic_string@DU?$char_traits@D@std@@V?$allocator@D@2@@std@@@2@@2@PAU342@0ABV?$basic_string@DU?$char_traits@D@std@@V?$allocator@D@2@@2@@Z 0045cb70 f   md3IO.obj
 0001:0005bb90       __unwindfunclet$?ExportThisModel@@YA_NPBDPAUgl_model@@_N@Z$11 0045cb90 f   md3IO.obj
 0001:0005bb9b       __unwindfunclet$?ExportThisModel@@YA_NPBDPAUgl_model@@_N@Z$12 0045cb9b f   md3IO.obj
 0001:0005bba6       __unwindfunclet$?ExportThisModel@@YA_NPBDPAUgl_model@@_N@Z$13 0045cba6 f   md3IO.obj
 0001:0005bbb1       __unwindfunclet$?ExportThisModel@@YA_NPBDPAUgl_model@@_N@Z$14 0045cbb1 f   md3IO.obj
 0001:0005bbbc       __ehhandler$?ExportThisModel@@YA_NPBDPAUgl_model@@_N@Z 0045cbbc f   md3IO.obj
 0001:0005bbf0       __unwindfunclet$?init_mdview@@YAXPBD@Z$0 0045cbf0 f   md3view.obj
 0001:0005bbfe       __ehhandler$?init_mdview@@YAXPBD@Z 0045cbfe f   md3view.obj
 0001:0005bc30       __unwindfunclet$?ParseSequenceLockFile@@YA_NPBD@Z$0 0045cc30 f   md3view.obj
 0001:0005bc38       __ehhandler$?ParseSequenceLockFile@@YA_NPBD@Z 0045cc38 f   md3view.obj
 0001:0005bc60       __ehhandler$?_Init@?$numpunct@D@std@@IAEXABV_Locinfo@2@_N@Z 0045cc60 f   nodedictionary.obj
 0001:0005bc80       __unwindfunclet$??0?$numpunct@D@std@@QAE@ABV_Locinfo@1@I_N@Z$0 0045cc80 f   nodedictionary.obj
 0001:0005bc88       __ehhandler$??0?$numpunct@D@std@@QAE@ABV_Locinfo@1@I_N@Z 0045cc88 f   nodedictionary.obj
 0001:0005bcb0       __unwindfunclet$??0_Locinfo@std@@QAE@ABV?$basic_string@DU?$char_traits@D@std@@V?$allocator@D@2@@1@@Z$0 0045ccb0 f   nodedictionary.obj
 0001:0005bcb8       __unwindfunclet$??0_Locinfo@std@@QAE@ABV?$basic_string@DU?$char_traits@D@std@@V?$allocator@D@2@@1@@Z$1 0045ccb8 f   nodedictionary.obj
 0001:0005bcc3       __unwindfunclet$??0_Locinfo@std@@QAE@ABV?$basic_string@DU?$char_traits@D@std@@V?$allocator@D@2@@1@@Z$2 0045ccc3 f   nodedictionary.obj
 0001:0005bcce       __unwindfunclet$??0_Locinfo@std@@QAE@ABV?$basic_string@DU?$char_traits@D@std@@V?$allocator@D@2@@1@@Z$3 0045ccce f   nodedictionary.obj
 0001:0005bcd9       __unwindfunclet$??0_Locinfo@std@@QAE@ABV?$basic_string@DU?$char_traits@D@std@@V?$allocator@D@2@@1@@Z$4 0045ccd9 f   nodedictionary.obj
 0001:0005bce4       __ehhandler$??0_Locinfo@std@@QAE@ABV?$basic_string@DU?$char_traits@D@std@@V?$allocator@D@2@@1@@Z 0045cce4 f   nodedictionary.obj
 0001:0005bd00       __unwindfunclet$??1_Locinfo@std@@QAE@XZ$0 0045cd00 f   nodedictionary.obj
 0001:0005bd08       __unwindfunclet$??1_Locinfo@std@@QAE@XZ$1 0045cd08 f   nodedictionary.obj
 0001:0005bd13       __unwindfunclet$??1_Locinfo@std@@QAE@XZ$2 0045cd13 f   nodedictionary.obj
 0001:0005bd1e       __unwindfunclet$??1_Locinfo@std@@QAE@XZ$3 0045cd1e f   nodedictionary.obj
 0001:0005bd29       __unwindfunclet$??1_Locinfo@std@@QAE@XZ$4 0045cd29 f   nodedictionary.obj
 0001:0005bd34       __ehhandler$??1_Locinfo@std@@QAE@XZ 0045cd34 f   nodedictionary.obj
 0001:0005bd50       __unwindfunclet$??0runtime_error@std@@QAE@ABV?$basic_string@DU?$char_traits@D@std@@V?$allocator@D@2@@1@@Z$0 0045cd50 f   nodedictionary.obj
 0001:0005bd58       __ehhandler$??0runtime_error@std@@QAE@ABV?$basic_string@DU?$char_traits@D@std@@V?$allocator@D@2@@1@@Z 0045cd58 f   nodedictionary.obj
 0001:0005bd80       __unwindfunclet$?_Getcat@?$num_put@DV?$ostreambuf_iterator@DU?$char_traits@D@std@@@std@@@std@@SAIPAPBVfacet@locale@2@PBV42@@Z$0 0045cd80 f   nodedictionary.obj
 0001:0005bd8e       __unwindfunclet$?_Getcat@?$num_put@DV?$ostreambuf_iterator@DU?$char_traits@D@std@@@std@@@std@@SAIPAPBVfacet@locale@2@PBV42@@Z$1 0045cd8e f   nodedictionary.obj
 0001:0005bdb0       __ehhandler$?_Getcat@?$num_put@DV?$ostreambuf_iterator@DU?$char_traits@D@std@@@std@@@std@@SAIPAPBVfacet@locale@2@PBV42@@Z 0045cdb0 f   nodedictionary.obj
 0001:0005bde0       __unwindfunclet$?_Getcat@?$numpunct@D@std@@SAIPAPBVfacet@locale@2@PBV42@@Z$0 0045cde0 f   nodedictionary.obj
 0001:0005bdee       __unwindfunclet$?_Getcat@?$numpunct@D@std@@SAIPAPBVfacet@locale@2@PBV42@@Z$1 0045cdee f   nodedictionary.obj
 0001:0005be10       __unwindfunclet$?_Getcat@?$numpunct@D@std@@SAIPAPBVfacet@locale@2@PBV42@@Z$2 0045ce10 f   nodedictionary.obj
 0001:0005be2f       __ehhandler$?_Getcat@?$numpunct@D@std@@SAIPAPBVfacet@locale@2@PBV42@@Z 0045ce2f f   nodedictionary.obj
 0001:0005be50       __unwindfunclet$?clear@ios_base@std@@QAEXH_N@Z$0 0045ce50 f   nodedictionary.obj
 0001:0005be58       __unwindfunclet$?clear@ios_base@std@@QAEXH_N@Z$1 0045ce58 f   nodedictionary.obj
 0001:0005be60       __unwindfunclet$?clear@ios_base@std@@QAEXH_N@Z$2 0045ce60 f   nodedictionary.obj
 0001:0005be68       __ehhandler$?clear@ios_base@std@@QAEXH_N@Z 0045ce68 f   nodedictionary.obj
 0001:0005be90       __unwindfunclet$??0runtime_error@std@@QAE@ABV01@@Z$0 0045ce90 f   nodedictionary.obj
 0001:0005be98       __ehhandler$??0runtime_error@std@@QAE@ABV01@@Z 0045ce98 f   nodedictionary.obj
 0001:0005bec0       __unwindfunclet$??$use_facet@V?$num_put@DV?$ostreambuf_iterator@DU?$char_traits@D@std@@@std@@@std@@@std@@YAABV?$num_put@DV?$ostreambuf_iterator@DU?$char_traits@D@std@@@std@@@0@ABVlocale@0@@Z$0 0045cec0 f   nodedictionary.obj
 0001:0005bec8       __ehhandler$??$use_facet@V?$num_put@DV?$ostreambuf_iterator@DU?$char_traits@D@std@@@std@@@std@@@std@@YAABV?$num_put@DV?$ostreambuf_iterator@DU?$char_traits@D@std@@@std@@@0@ABVlocale@0@@Z 0045cec8 f   nodedictionary.obj
 0001:0005bef0       __unwindfunclet$??$use_facet@V?$numpunct@D@std@@@std@@YAABV?$numpunct@D@0@ABVlocale@0@@Z$0 0045cef0 f   nodedictionary.obj
 0001:0005bef8       __ehhandler$??$use_facet@V?$numpunct@D@std@@@std@@YAABV?$numpunct@D@0@ABVlocale@0@@Z 0045cef8 f   nodedictionary.obj
 0001:0005bf20       __unwindfunclet$?do_put@?$num_put@DV?$ostreambuf_iterator@DU?$char_traits@D@std@@@std@@@std@@MBE?AV?$ostreambuf_iterator@DU?$char_traits@D@std@@@2@V32@AAVios_base@2@D_N@Z$0 0045cf20 f   nodedictionary.obj
 0001:0005bf28       __unwindfunclet$?do_put@?$num_put@DV?$ostreambuf_iterator@DU?$char_traits@D@std@@@std@@@std@@MBE?AV?$ostreambuf_iterator@DU?$char_traits@D@std@@@2@V32@AAVios_base@2@D_N@Z$1 0045cf28 f   nodedictionary.obj
 0001:0005bf30       __unwindfunclet$?do_put@?$num_put@DV?$ostreambuf_iterator@DU?$char_traits@D@std@@@std@@@std@@MBE?AV?$ostreambuf_iterator@DU?$char_traits@D@std@@@2@V32@AAVios_base@2@D_N@Z$2 0045cf30 f   nodedictionary.obj
 0001:0005bf38       __unwindfunclet$?do_put@?$num_put@DV?$ostreambuf_iterator@DU?$char_traits@D@std@@@std@@@std@@MBE?AV?$ostreambuf_iterator@DU?$char_traits@D@std@@@2@V32@AAVios_base@2@D_N@Z$3 0045cf38 f   nodedictionary.obj
 0001:0005bf40       __ehhandler$?do_put@?$num_put@DV?$ostreambuf_iterator@DU?$char_traits@D@std@@@std@@@std@@MBE?AV?$ostreambuf_iterator@DU?$char_traits@D@std@@@2@V32@AAVios_base@2@D_N@Z 0045cf40 f   nodedictionary.obj
 0001:0005bf70       __unwindfunclet$?_Fput@?$num_put@DV?$ostreambuf_iterator@DU?$char_traits@D@std@@@std@@@std@@ABA?AV?$ostreambuf_iterator@DU?$char_traits@D@std@@@2@V32@AAVios_base@2@DPBDIIII@Z$0 0045cf70 f   nodedictionary.obj
 0001:0005bf78       __unwindfunclet$?_Fput@?$num_put@DV?$ostreambuf_iterator@DU?$char_traits@D@std@@@std@@@std@@ABA?AV?$ostreambuf_iterator@DU?$char_traits@D@std@@@2@V32@AAVios_base@2@DPBDIIII@Z$1 0045cf78 f   nodedictionary.obj
 0001:0005bf80       __unwindfunclet$?_Fput@?$num_put@DV?$ostreambuf_iterator@DU?$char_traits@D@std@@@std@@@std@@ABA?AV?$ostreambuf_iterator@DU?$char_traits@D@std@@@2@V32@AAVios_base@2@DPBDIIII@Z$2 0045cf80 f   nodedictionary.obj
 0001:0005bf88       __ehhandler$?_Fput@?$num_put@DV?$ostreambuf_iterator@DU?$char_traits@D@std@@@std@@@std@@ABA?AV?$ostreambuf_iterator@DU?$char_traits@D@std@@@2@V32@AAVios_base@2@DPBDIIII@Z 0045cf88 f   nodedictionary.obj
 0001:0005bfb0       __unwindfunclet$?_Iput@?$num_put@DV?$ostreambuf_iterator@DU?$char_traits@D@std@@@std@@@std@@ABA?AV?$ostreambuf_iterator@DU?$char_traits@D@std@@@2@V32@AAVios_base@2@DPADI@Z$0 0045cfb0 f   nodedictionary.obj
 0001:0005bfb8       __unwindfunclet$?_Iput@?$num_put@DV?$ostreambuf_iterator@DU?$char_traits@D@std@@@std@@@std@@ABA?AV?$ostreambuf_iterator@DU?$char_traits@D@std@@@2@V32@AAVios_base@2@DPADI@Z$1 0045cfb8 f   nodedictionary.obj
 0001:0005bfc0       __ehhandler$?_Iput@?$num_put@DV?$ostreambuf_iterator@DU?$char_traits@D@std@@@std@@@std@@ABA?AV?$ostreambuf_iterator@DU?$char_traits@D@std@@@2@V32@AAVios_base@2@DPADI@Z 0045cfc0 f   nodedictionary.obj
 0001:0005bff0       __unwindfunclet$??0sentry@?$basic_ostream@DU?$char_traits@D@std@@@std@@QAE@AAV12@@Z$0 0045cff0 f   nodedictionary.obj
 0001:0005bff8       __ehhandler$??0sentry@?$basic_ostream@DU?$char_traits@D@std@@@std@@QAE@AAV12@@Z 0045cff8 f   nodedictionary.obj
 0001:0005c020       __ehhandler$?_Osfx@?$basic_ostream@DU?$char_traits@D@std@@@std@@QAEXXZ 0045d020 f   nodedictionary.obj
 0001:0005c040       __unwindfunclet$??1sentry@?$basic_ostream@DU?$char_traits@D@std@@@std@@QAE@XZ$0 0045d040 f   nodedictionary.obj
 0001:0005c048       __ehhandler$??1sentry@?$basic_ostream@DU?$char_traits@D@std@@@std@@QAE@XZ 0045d048 f   nodedictionary.obj
 0001:0005c070       __unwindfunclet$??$?6U?$char_traits@D@std@@@std@@YAAAV?$basic_ostream@DU?$char_traits@D@std@@@0@AAV10@PBD@Z$2 0045d070 f   nodedictionary.obj
 0001:0005c078       __ehhandler$??$?6U?$char_traits@D@std@@@std@@YAAAV?$basic_ostream@DU?$char_traits@D@std@@@0@AAV10@PBD@Z 0045d078 f   nodedictionary.obj
 0001:0005c0a0       __unwindfunclet$??6?$basic_ostream@DU?$char_traits@D@std@@@std@@QAEAAV01@H@Z$2 0045d0a0 f   nodedictionary.obj
 0001:0005c0a8       __unwindfunclet$??6?$basic_ostream@DU?$char_traits@D@std@@@std@@QAEAAV01@H@Z$3 0045d0a8 f   nodedictionary.obj
 0001:0005c0b0       __ehhandler$??6?$basic_ostream@DU?$char_traits@D@std@@@std@@QAEAAV01@H@Z 0045d0b0 f   nodedictionary.obj
 0001:0005c0d0       __unwindfunclet$??6?$basic_ostream@DU?$char_traits@D@std@@@std@@QAEAAV01@PBX@Z$2 0045d0d0 f   nodedictionary.obj
 0001:0005c0d8       __unwindfunclet$??6?$basic_ostream@DU?$char_traits@D@std@@@std@@QAEAAV01@PBX@Z$3 0045d0d8 f   nodedictionary.obj
 0001:0005c0e0       __ehhandler$??6?$basic_ostream@DU?$char_traits@D@std@@@std@@QAEAAV01@PBX@Z 0045d0e0 f   nodedictionary.obj
 0001:0005c100       __unwindfunclet$?put@?$basic_ostream@DU?$char_traits@D@std@@@std@@QAEAAV12@D@Z$2 0045d100 f   nodedictionary.obj
 0001:0005c108       __ehhandler$?put@?$basic_ostream@DU?$char_traits@D@std@@@std@@QAEAAV12@D@Z 0045d108 f   nodedictionary.obj
 0001:0005c130       __unwindfunclet$??0?$list@PAXV?$allocator@PAX@std@@@std@@QAE@XZ$0 0045d130 f   texture_res.obj
 0001:0005c138       __ehhandler$??0?$list@PAXV?$allocator@PAX@std@@@std@@QAE@XZ 0045d138 f   texture_res.obj
 0001:0005c160       __unwindfunclet$?_Incsize@?$list@PAXV?$allocator@PAX@std@@@std@@IAEXI@Z$0 0045d160 f   texture_res.obj
 0001:0005c168       __ehhandler$?_Incsize@?$list@PAXV?$allocator@PAX@std@@@std@@IAEXI@Z 0045d168 f   texture_res.obj
 0001:0005c183       __unwindfunclet$?_Xlen@_String_base@std@@SAXXZ$0 0045d183 f   libcpmt:string.obj
 0001:0005c18b       __ehhandler$?_Xlen@_String_base@std@@SAXXZ 0045d18b f   libcpmt:string.obj
 0001:0005c1a6       __unwindfunclet$?_Xran@_String_base@std@@SAXXZ$0 0045d1a6 f   libcpmt:string.obj
 0001:0005c1ae       __ehhandler$?_Xran@_String_base@std@@SAXXZ 0045d1ae f   libcpmt:string.obj
 0001:0005c1c9       __unwindfunclet$?_Xinvarg@_String_base@std@@SAXXZ$0 0045d1c9 f   libcpmt:string.obj
 0001:0005c1d1       __ehhandler$?_Xinvarg@_String_base@std@@SAXXZ 0045d1d1 f   libcpmt:string.obj
 0001:0005c1ec       __unwindfunclet$?_Locimp_dtor@_Locimp@locale@std@@CAXPAV123@@Z$0 0045d1ec f   libcpmt:locale0.obj
 0001:0005c1f4       __ehhandler$?_Locimp_dtor@_Locimp@locale@std@@CAXPAV123@@Z 0045d1f4 f   libcpmt:locale0.obj
 0001:0005c20f       __unwindfunclet$??0_Locimp@locale@std@@AAE@_N@Z$0 0045d20f f   libcpmt:locale0.obj
 0001:0005c217       __ehhandler$??0_Locimp@locale@std@@AAE@_N@Z 0045d217 f   libcpmt:locale0.obj
 0001:0005c232       __unwindfunclet$??1_Locimp@locale@std@@MAE@XZ$0 0045d232 f   libcpmt:locale0.obj
 0001:0005c23a       __unwindfunclet$??1_Locimp@locale@std@@MAE@XZ$1 0045d23a f   libcpmt:locale0.obj
 0001:0005c245       __ehhandler$??1_Locimp@locale@std@@MAE@XZ 0045d245 f   libcpmt:locale0.obj
 0001:0005c260       __unwindfunclet$?_Init@locale@std@@CAPAV_Locimp@12@XZ$0 0045d260 f   libcpmt:locale0.obj
 0001:0005c268       __unwindfunclet$?_Init@locale@std@@CAPAV_Locimp@12@XZ$1 0045d268 f   libcpmt:locale0.obj
 0001:0005c272       __ehhandler$?_Init@locale@std@@CAPAV_Locimp@12@XZ 0045d272 f   libcpmt:locale0.obj
 0001:0005c28d       __unwindfunclet$?empty@locale@std@@SA?AV12@XZ$0 0045d28d f   libcpmt:locale0.obj
 0001:0005c297       __ehhandler$?empty@locale@std@@SA?AV12@XZ 0045d297 f   libcpmt:locale0.obj
 0001:0005c2b2       __unwindfunclet$??0?$basic_streambuf@DU?$char_traits@D@std@@@std@@IAE@XZ$0 0045d2b2 f   libcpmt:cout.obj
 0001:0005c2bd       __ehhandler$??0?$basic_streambuf@DU?$char_traits@D@std@@@std@@IAE@XZ 0045d2bd f   libcpmt:cout.obj
 0001:0005c2d8       __unwindfunclet$?uflow@?$basic_filebuf@DU?$char_traits@D@std@@@std@@MAEHXZ$0 0045d2d8 f   libcpmt:cout.obj
 0001:0005c2e0       __ehhandler$?uflow@?$basic_filebuf@DU?$char_traits@D@std@@@std@@MAEHXZ 0045d2e0 f   libcpmt:cout.obj
 0001:0005c305       __unwindfunclet$?_Endwrite@?$basic_filebuf@DU?$char_traits@D@std@@@std@@IAE_NXZ$0 0045d305 f   libcpmt:cout.obj
 0001:0005c30d       __ehhandler$?_Endwrite@?$basic_filebuf@DU?$char_traits@D@std@@@std@@IAE_NXZ 0045d30d f   libcpmt:cout.obj
 0001:0005c332       __unwindfunclet$?_Getcat@?$ctype@D@std@@SAIPAPBVfacet@locale@2@PBV42@@Z$0 0045d332 f   libcpmt:cout.obj
 0001:0005c33c       __unwindfunclet$?_Getcat@?$ctype@D@std@@SAIPAPBVfacet@locale@2@PBV42@@Z$1 0045d33c f   libcpmt:cout.obj
 0001:0005c355       __ehhandler$?_Getcat@?$ctype@D@std@@SAIPAPBVfacet@locale@2@PBV42@@Z 0045d355 f   libcpmt:cout.obj
 0001:0005c373       __unwindfunclet$?overflow@?$basic_filebuf@DU?$char_traits@D@std@@@std@@MAEHH@Z$0 0045d373 f   libcpmt:cout.obj
 0001:0005c37b       __ehhandler$?overflow@?$basic_filebuf@DU?$char_traits@D@std@@@std@@MAEHH@Z 0045d37b f   libcpmt:cout.obj
 0001:0005c3a0       __unwindfunclet$??$use_facet@V?$ctype@D@std@@@std@@YAABV?$ctype@D@0@ABVlocale@0@@Z$0 0045d3a0 f   libcpmt:cout.obj
 0001:0005c3a8       __ehhandler$??$use_facet@V?$ctype@D@std@@@std@@YAABV?$ctype@D@0@ABVlocale@0@@Z 0045d3a8 f   libcpmt:cout.obj
 0001:0005c3c3       __unwindfunclet$?_Getcat@?$codecvt@DDH@std@@SAIPAPBVfacet@locale@2@PBV42@@Z$0 0045d3c3 f   libcpmt:cout.obj
 0001:0005c3cd       __unwindfunclet$?_Getcat@?$codecvt@DDH@std@@SAIPAPBVfacet@locale@2@PBV42@@Z$1 0045d3cd f   libcpmt:cout.obj
 0001:0005c3e6       __ehhandler$?_Getcat@?$codecvt@DDH@std@@SAIPAPBVfacet@locale@2@PBV42@@Z 0045d3e6 f   libcpmt:cout.obj
 0001:0005c404       __unwindfunclet$??1?$basic_filebuf@DU?$char_traits@D@std@@@std@@UAE@XZ$0 0045d404 f   libcpmt:cout.obj
 0001:0005c40c       __ehhandler$??1?$basic_filebuf@DU?$char_traits@D@std@@@std@@UAE@XZ 0045d40c f   libcpmt:cout.obj
 0001:0005c427       __unwindfunclet$?widen@?$basic_ios@DU?$char_traits@D@std@@@std@@QBEDD@Z$0 0045d427 f   libcpmt:cout.obj
 0001:0005c42f       __ehhandler$?widen@?$basic_ios@DU?$char_traits@D@std@@@std@@QBEDD@Z 0045d42f f   libcpmt:cout.obj
 0001:0005c44a       __unwindfunclet$??$use_facet@V?$codecvt@DDH@std@@@std@@YAABV?$codecvt@DDH@0@ABVlocale@0@@Z$0 0045d44a f   libcpmt:cout.obj
 0001:0005c452       __ehhandler$??$use_facet@V?$codecvt@DDH@std@@@std@@YAABV?$codecvt@DDH@0@ABVlocale@0@@Z 0045d452 f   libcpmt:cout.obj
 0001:0005c46d       __unwindfunclet$??0?$basic_ostream@DU?$char_traits@D@std@@@std@@QAE@PAV?$basic_streambuf@DU?$char_traits@D@std@@@1@_N@Z$0 0045d46d f   libcpmt:cout.obj
 0001:0005c489       __ehhandler$??0?$basic_ostream@DU?$char_traits@D@std@@@std@@QAE@PAV?$basic_streambuf@DU?$char_traits@D@std@@@1@_N@Z 0045d489 f   libcpmt:cout.obj
 0001:0005c4a4       __ehhandler$?CallUnexpected@@YAXPBU_s_ESTypeList@@@Z 0045d4a4 f   LIBCMT:frame.obj
 0001:0005c4c0       ??__ESequences_LowerAnims@@YAXXZ 0045d4c0 f   animation.obj
 0001:0005c530       ??__ESequences_UpperAnims@@YAXXZ 0045d530 f   animation.obj
 0001:0005c5a0       ??__EMultiSequenceLock_Upper@@YAXXZ 0045d5a0 f   animation.obj
 0001:0005c610       ??__EMultiSequenceLock_Lower@@YAXXZ 0045d610 f   animation.obj
 0001:0005c680       ??__ESequence_Upper_Fake@@YAXXZ 0045d680 f   animation.obj
 0001:0005c690       ??__ESequence_Lower_Fake@@YAXXZ 0045d690 f   animation.obj
 0001:0005c6a0       ??__EFilesWritten@@YAXXZ   0045d6a0 f   md3IO.obj
 0001:0005c6c0       ??__ECvarList@@YAXXZ       0045d6c0 f   texture_res.obj
 0001:0005c6e0       ??__EtagMenuList@@YAXXZ    0045d6e0 f   win32_driver.obj
 0001:0005c6ec       ??__Einitlocks@std@@YAXXZ  0045d6ec f   libcpmt:xlock.obj
 0001:0005c702       ??__Eclassic_locale@std@@YAXXZ 0045d702 f   libcpmt:locale0.obj
 0001:0005c70e       ??__Einitlocks@@YAXXZ      0045d70e f   libcpmt:cout.obj
 0001:0005c724       ??__Efout@std@@YAXXZ       0045d724 f   libcpmt:cout.obj
 0001:0005c743       ??__Ecout@std@@YAXXZ       0045d743 f   libcpmt:cout.obj
 0001:0005c762       ??__Einit_cout@std@@YAXXZ  0045d762 f   libcpmt:cout.obj
 0001:0005c76c       ??__Einitlocks@std@@YAXXZ  0045d76c f   libcpmt:iosptrs.obj
 0001:0005c782       ??__Einit_atexit@@YAXXZ    0045d782 f   libcpmt:iosptrs.obj
 0001:0005c790       ??__FSequence_Lower_Fake@@YAXXZ 0045d790 f   animation.obj
 0001:0005c7c0       ??__FMultiSequenceLock_Upper@@YAXXZ 0045d7c0 f   animation.obj
 0001:0005c800       ??__FMultiSequenceLock_Lower@@YAXXZ 0045d800 f   animation.obj
 0001:0005c840       ??__FSequence_Upper_Fake@@YAXXZ 0045d840 f   animation.obj
 0001:0005c870       ??__FSequences_LowerAnims@@YAXXZ 0045d870 f   animation.obj
 0001:0005c8d0       ??__FSequences_UpperAnims@@YAXXZ 0045d8d0 f   animation.obj
 0001:0005c930       ??__FFilesWritten@@YAXXZ   0045d930 f   md3IO.obj
 0001:0005c960       ??__FCvarList@@YAXXZ       0045d960 f   texture_res.obj
 0001:0005c980       ??__FtagMenuList@@YAXXZ    0045d980 f   win32_driver.obj
 0001:0005c98a       ??__Finitlocks@std@@YAXXZ  0045d98a f   libcpmt:xlock.obj
 0001:0005c994       ??__Fclassic_locale@std@@YAXXZ 0045d994 f   libcpmt:locale0.obj
 0001:0005c99e       ??__Finitlocks@@YAXXZ      0045d99e f   libcpmt:cout.obj
 0001:0005c9a8       ??__Fcout@std@@YAXXZ       0045d9a8 f   libcpmt:cout.obj
 0001:0005c9b2       ??__Ffout@std@@YAXXZ       0045d9b2 f   libcpmt:cout.obj
 0001:0005c9bc       ??__Finitlocks@std@@YAXXZ  0045d9bc f   libcpmt:iosptrs.obj
 0001:0005c9c6       ??__Finit_atexit@@YAXXZ    0045d9c6 f   libcpmt:iosptrs.obj
 0001:0005c9d0       ??__Fnomem@?5???2@YAPAXI@Z@YAXXZ 0045d9d0 f   LIBCMT:new.obj
